L251 LINKER/LOCATER V4.66.93.0                                                          07/01/2025  14:01:01  PAGE 1


L251 LINKER/LOCATER V4.66.93.0, INVOKED BY:
C:\KEIL_V5_C251\C251\BIN\L251.EXE .\obj\STARTUP251_RT569MP.obj, .\obj\main.obj, .\obj\rf_task_ctrl.obj, .\obj\intr_rf.ob
>> j, .\obj\sys_init.obj, .\obj\sys_task.obj, .\obj\isr_hdlr.obj, .\obj\sys_ctrl.obj, .\obj\sys_mem.obj, .\obj\sys_mem2.
>> obj, .\obj\sys_qctrl.obj, .\obj\sys_rtc.obj, .\obj\common_isr.obj, .\obj\common_cmd_hdlr.obj, .\obj\common_event_gen.
>> obj, .\obj\common_feature.obj, .\obj\bmu.obj, .\obj\bmu_cmd.obj, .\obj\bmu_common.obj, .\obj\bmu_rx.obj, .\obj\bmu_tx
>> .obj, .\obj\bmu_ble.obj, .\obj\mac.obj, .\obj\mac_frame_parse.obj, .\obj\mac_isr.obj, .\obj\mac_cmd_hdlr.obj, .\obj\m
>> ac_task_ctrl.obj, .\obj\ruci_data_parse.obj, .\obj\mac_event_gen.obj, .\obj\mac_RaaSchedule.obj, .\obj\mac_TarSchedul
>> e.obj, .\obj\mac_cad.obj, .\obj\mac_scheduler.obj, .\obj\mac_RfeRx.obj, .\obj\mac_RfeTx.obj, .\obj\mac_DtmRx.obj, .\o
>> bj\mac_DtmTx.obj, .\obj\mac_htrp_control.obj, .\obj\mac_htrp_rx.obj, .\obj\mac_htrp_tx.obj, .\obj\mac_srcmatch.obj, .
>> \obj\mac_rx_scan.obj, .\obj\msg_ctrl.obj, .\obj\hal.obj, .\obj\hal_cfg.obj, .\obj\hal_mac.obj, .\obj\hal_para.obj, .\
>> obj\hal_phy.obj, .\obj\hal_pkt.obj, .\obj\hal_rf.obj, .\obj\hal_rfdb.obj, .\obj\hal_sec.obj, .\obj\hal_rfk.obj, .\obj
>> \hal_io.obj, .\obj\hal_init.obj, .\obj\hal_patch.obj, .\obj\hal_prtcl.obj, .\obj\hal_rt569mp_init.obj, .\obj\rt569mp_
>> mem.obj, .\obj\rt569mp_reg.obj, .\obj\hal_rt569mp_rfk.obj, .\obj\hal_rt569mp_rf.obj, .\obj\hal_rt569mp_tcon.obj, .\ob
>> j\hal_rt569mp_para.obj, .\obj\hal_rt569mp_pmu.obj, .\obj\Ruci.obj, .\obj\Ruci_Pci15p4MacCmd.obj, .\obj\Ruci_PciBleCmd
>> .obj, .\obj\Ruci_PciCommonCmd.obj, .\obj\Ruci_PciData.obj, .\obj\Ruci_PciEvent.obj, .\obj\Ruci_PciFskCmd.obj, .\obj\R
>> uci_PciOqpskCmd.obj, .\obj\Ruci_PciSlinkCmd.obj, .\obj\Ruci_CmnEvent.obj, .\obj\Ruci_CmnHalCmd.obj, .\obj\Ruci_CmnSys
>> Cmd.obj TO .\obj\RT569 NOOVERLAY REMOVEUNUSED CLASSES (DATA (0X0000-0X007F), IDATA (0X0080-0X0090), EDATA (0XA000-0XB
>> FFF), CODE (0XFF0000-0XFFFFFF), ECODE (0XFF0000-0XFFFFFF), HCONST (0XFF0000-0XFFFFFF)) SEGMENTS (?PR?SYS_ENTERWAITI?S
>> YS_CTRL (0XFFEF00))


CPU MODE:     251 SOURCE MODE
INTR FRAME:   4 BYTES SAVED ON INTERRUPT
MEMORY MODEL: XTINY [HUGE PTR]


INPUT MODULES INCLUDED:
  .\obj\STARTUP251_RT569MP.obj (?C_START)
         COMMENT TYPE 0: A251 V4.69.13.0
  .\obj\main.obj (main)
         COMMENT TYPE 0: C251 V5.60.0
  .\obj\rf_task_ctrl.obj (rf_task_ctrl)
         COMMENT TYPE 0: C251 V5.60.0
  .\obj\intr_rf.obj (intr_rf)
         COMMENT TYPE 0: C251 V5.60.0
  .\obj\sys_init.obj (sys_init)
         COMMENT TYPE 0: C251 V5.60.0
  .\obj\sys_task.obj (sys_task)
         COMMENT TYPE 0: C251 V5.60.0
  .\obj\isr_hdlr.obj (isr_hdlr)
         COMMENT TYPE 0: C251 V5.60.0
  .\obj\sys_ctrl.obj (sys_ctrl)
         COMMENT TYPE 0: C251 V5.60.0
  .\obj\sys_mem.obj (SYS_MEM)
         COMMENT TYPE 0: A251 V4.69.13.0
  .\obj\sys_mem2.obj (SYS_MEM2)
         COMMENT TYPE 0: A251 V4.69.13.0
  .\obj\sys_qctrl.obj (sys_qctrl)
         COMMENT TYPE 0: C251 V5.60.0
  .\obj\sys_rtc.obj (sys_rtc)
         COMMENT TYPE 0: C251 V5.60.0
  .\obj\common_isr.obj (common_isr)
         COMMENT TYPE 0: C251 V5.60.0
  .\obj\common_cmd_hdlr.obj (common_cmd_hdlr)
         COMMENT TYPE 0: C251 V5.60.0
  .\obj\common_event_gen.obj (common_event_gen)
         COMMENT TYPE 0: C251 V5.60.0
  .\obj\common_feature.obj (common_feature)
         COMMENT TYPE 0: C251 V5.60.0
  .\obj\bmu.obj (bmu)
         COMMENT TYPE 0: C251 V5.60.0
  .\obj\bmu_cmd.obj (bmu_cmd)
         COMMENT TYPE 0: C251 V5.60.0
  .\obj\bmu_common.obj (bmu_common)
         COMMENT TYPE 0: C251 V5.60.0
  .\obj\bmu_rx.obj (bmu_rx)
L251 LINKER/LOCATER V4.66.93.0                                                        07/01/2025  14:01:01  PAGE 2


         COMMENT TYPE 0: C251 V5.60.0
  .\obj\bmu_tx.obj (bmu_tx)
         COMMENT TYPE 0: C251 V5.60.0
  .\obj\bmu_ble.obj (bmu_ble)
         COMMENT TYPE 0: C251 V5.60.0
  .\obj\mac.obj (mac)
         COMMENT TYPE 0: C251 V5.60.0
  .\obj\mac_frame_parse.obj (mac_frame_parse)
         COMMENT TYPE 0: C251 V5.60.0
  .\obj\mac_isr.obj (mac_isr)
         COMMENT TYPE 0: C251 V5.60.0
  .\obj\mac_cmd_hdlr.obj (mac_cmd_hdlr)
         COMMENT TYPE 0: C251 V5.60.0
  .\obj\mac_task_ctrl.obj (mac_task_ctrl)
         COMMENT TYPE 0: C251 V5.60.0
  .\obj\ruci_data_parse.obj (ruci_data_parse)
         COMMENT TYPE 0: C251 V5.60.0
  .\obj\mac_event_gen.obj (mac_event_gen)
         COMMENT TYPE 0: C251 V5.60.0
  .\obj\mac_RaaSchedule.obj (mac_RaaSchedule)
         COMMENT TYPE 0: C251 V5.60.0
  .\obj\mac_TarSchedule.obj (mac_TarSchedule)
         COMMENT TYPE 0: C251 V5.60.0
  .\obj\mac_cad.obj (mac_cad)
         COMMENT TYPE 0: C251 V5.60.0
  .\obj\mac_scheduler.obj (mac_scheduler)
         COMMENT TYPE 0: C251 V5.60.0
  .\obj\mac_RfeRx.obj (mac_RfeRx)
         COMMENT TYPE 0: C251 V5.60.0
  .\obj\mac_RfeTx.obj (mac_RfeTx)
         COMMENT TYPE 0: C251 V5.60.0
  .\obj\mac_DtmRx.obj (mac_DtmRx)
         COMMENT TYPE 0: C251 V5.60.0
  .\obj\mac_DtmTx.obj (mac_DtmTx)
         COMMENT TYPE 0: C251 V5.60.0
  .\obj\mac_htrp_control.obj (mac_htrp_control)
         COMMENT TYPE 0: C251 V5.60.0
  .\obj\mac_htrp_rx.obj (mac_htrp_rx)
         COMMENT TYPE 0: C251 V5.60.0
  .\obj\mac_htrp_tx.obj (mac_htrp_tx)
         COMMENT TYPE 0: C251 V5.60.0
  .\obj\mac_srcmatch.obj (mac_srcmatch)
         COMMENT TYPE 0: C251 V5.60.0
  .\obj\mac_rx_scan.obj (mac_rx_scan)
         COMMENT TYPE 0: C251 V5.60.0
  .\obj\msg_ctrl.obj (msg_ctrl)
         COMMENT TYPE 0: C251 V5.60.0
  .\obj\hal.obj (hal)
         COMMENT TYPE 0: C251 V5.60.0
  .\obj\hal_cfg.obj (hal_cfg)
         COMMENT TYPE 0: C251 V5.60.0
  .\obj\hal_mac.obj (hal_mac)
         COMMENT TYPE 0: C251 V5.60.0
  .\obj\hal_para.obj (hal_para)
         COMMENT TYPE 0: C251 V5.60.0
  .\obj\hal_phy.obj (hal_phy)
         COMMENT TYPE 0: C251 V5.60.0
  .\obj\hal_pkt.obj (hal_pkt)
         COMMENT TYPE 0: C251 V5.60.0
  .\obj\hal_rf.obj (hal_rf)
         COMMENT TYPE 0: C251 V5.60.0
  .\obj\hal_rfdb.obj (hal_rfdb)
         COMMENT TYPE 0: C251 V5.60.0
  .\obj\hal_sec.obj (hal_sec)
         COMMENT TYPE 0: C251 V5.60.0
L251 LINKER/LOCATER V4.66.93.0                                                        07/01/2025  14:01:01  PAGE 3


  .\obj\hal_rfk.obj (hal_rfk)
         COMMENT TYPE 0: C251 V5.60.0
  .\obj\hal_io.obj (hal_io)
         COMMENT TYPE 0: C251 V5.60.0
  .\obj\hal_init.obj (hal_init)
         COMMENT TYPE 0: C251 V5.60.0
  .\obj\hal_patch.obj (hal_patch)
         COMMENT TYPE 0: C251 V5.60.0
  .\obj\hal_prtcl.obj (hal_prtcl)
         COMMENT TYPE 0: C251 V5.60.0
  .\obj\hal_rt569mp_init.obj (hal_rt569mp_init)
         COMMENT TYPE 0: C251 V5.60.0
  .\obj\rt569mp_mem.obj (rt569mp_mem)
         COMMENT TYPE 0: C251 V5.60.0
  .\obj\rt569mp_reg.obj (rt569mp_reg)
         COMMENT TYPE 0: C251 V5.60.0
  .\obj\hal_rt569mp_rfk.obj (hal_rt569mp_rfk)
         COMMENT TYPE 0: C251 V5.60.0
  .\obj\hal_rt569mp_rf.obj (hal_rt569mp_rf)
         COMMENT TYPE 0: C251 V5.60.0
  .\obj\hal_rt569mp_tcon.obj (hal_rt569mp_tcon)
         COMMENT TYPE 0: C251 V5.60.0
  .\obj\hal_rt569mp_para.obj (hal_rt569mp_para)
         COMMENT TYPE 0: C251 V5.60.0
  .\obj\hal_rt569mp_pmu.obj (hal_rt569mp_pmu)
         COMMENT TYPE 0: C251 V5.60.0
  .\obj\Ruci.obj (Ruci)
         COMMENT TYPE 0: C251 V5.60.0
  .\obj\Ruci_Pci15p4MacCmd.obj (Ruci_Pci15p4MacCmd)
         COMMENT TYPE 0: C251 V5.60.0
  .\obj\Ruci_PciBleCmd.obj (Ruci_PciBleCmd)
         COMMENT TYPE 0: C251 V5.60.0
  .\obj\Ruci_PciCommonCmd.obj (Ruci_PciCommonCmd)
         COMMENT TYPE 0: C251 V5.60.0
  .\obj\Ruci_PciData.obj (Ruci_PciData)
         COMMENT TYPE 0: C251 V5.60.0
  .\obj\Ruci_PciEvent.obj (Ruci_PciEvent)
         COMMENT TYPE 0: C251 V5.60.0
  .\obj\Ruci_PciFskCmd.obj (Ruci_PciFskCmd)
         COMMENT TYPE 0: C251 V5.60.0
  .\obj\Ruci_PciOqpskCmd.obj (Ruci_PciOqpskCmd)
         COMMENT TYPE 0: C251 V5.60.0
  .\obj\Ruci_PciSlinkCmd.obj (Ruci_PciSlinkCmd)
         COMMENT TYPE 0: C251 V5.60.0
  .\obj\Ruci_CmnEvent.obj (Ruci_CmnEvent)
         COMMENT TYPE 0: C251 V5.60.0
  .\obj\Ruci_CmnHalCmd.obj (Ruci_CmnHalCmd)
         COMMENT TYPE 0: C251 V5.60.0
  .\obj\Ruci_CmnSysCmd.obj (Ruci_CmnSysCmd)
         COMMENT TYPE 0: C251 V5.60.0
  C:\KEIL_V5_C251\C251\LIB\C2SXT.LIB (?C?INITEDATA)
         COMMENT TYPE 0: A251 V4.69.6.0
  C:\KEIL_V5_C251\C251\LIB\C2SXT.LIB (?C?SIDIV)
         COMMENT TYPE 0: A251 V4.69.6.0
  C:\KEIL_V5_C251\C251\LIB\C2SXT.LIB (?C?LMUL)
         COMMENT TYPE 0: A251 V4.69.6.0
  C:\KEIL_V5_C251\C251\LIB\C2SXT.LIB (?C?LIMUL)
         COMMENT TYPE 0: A251 V4.69.6.0
  C:\KEIL_V5_C251\C251\LIB\C2SXT.LIB (?C?ULDIV)
         COMMENT TYPE 0: A251 V4.69.6.0
  C:\KEIL_V5_C251\C251\LIB\C2SXT.LIB (memcpy)
         COMMENT TYPE 0: C251 V5.58.7
  C:\KEIL_V5_C251\C251\LIB\C2SXT.LIB (memset)
         COMMENT TYPE 0: C251 V5.58.7
  C:\KEIL_V5_C251\C251\LIB\C2SXT.LIB (hmemcpy)
L251 LINKER/LOCATER V4.66.93.0                                                        07/01/2025  14:01:01  PAGE 4


         COMMENT TYPE 0: C251 V5.58.7
  C:\KEIL_V5_C251\C251\LIB\C2SXT.LIB (?C?INITEDATA_END)
         COMMENT TYPE 0: A251 V4.69.6.0


ACTIVE MEMORY CLASSES OF MODULE:  .\obj\RT569 (?C_START)

BASE        START       END         USED      MEMORY CLASS
==========================================================
000000H     000000H     00007FH     000010H   DATA
000000H     000080H     000090H               IDATA
000000H     00A000H     00BFFFH     0019B0H   EDATA
FF0000H     FF0000H     FFFFFFH     00C9E7H   CODE
000000H     FF0000H     FFFFFFH               ECODE
000000H     FF0000H     FFFFFFH     001221H   HCONST


MEMORY MAP OF MODULE:  .\obj\RT569 (?C_START)


START     STOP      LENGTH    ALIGN  RELOC    MEMORY CLASS   SEGMENT NAME
=========================================================================
000000H   000007H   000008H   ---    AT..     DATA           "REG BANK 0"
000008H   00000FH   000008H   ---    AT..     DATA           "REG BANK 1"
000010H   0000FFH   0000F0H   ---    ---      **GAP**
000100H   0003FFH   000300H   BYTE   AT..     EDATA          ?STACK
000400H   009FFFH   009C00H   ---    ---      **GAP**
00A000H   00A94FH   000950H   BYTE   UNIT     EDATA          ?ED?MAC_TARSCHEDULE
00A950H   00AC70H   000321H   BYTE   UNIT     EDATA          ?ED?MAC_SRCMATCH
00AC71H   00AF06H   000296H   BYTE   UNIT     EDATA          ?ED?SYS_QCTRL
00AF07H   00B0DDH   0001D7H   BYTE   UNIT     EDATA          ?ED?HAL_INIT
00B0DEH   00B21AH   00013DH   BYTE   UNIT     EDATA          ?ED?MAC_HTRP_CONTROL
00B21BH   00B2A8H   00008EH   BYTE   UNIT     EDATA          ?ED?COMMON_ISR
00B2A9H   00B331H   000089H   BYTE   UNIT     EDATA          ?ED?MAC_RAASCHEDULE
00B332H   00B366H   000035H   BYTE   UNIT     EDATA          ?ED?MAC
00B367H   00B38BH   000025H   BYTE   UNIT     EDATA          ?ED?MAC_TAR_CHECK_DATA_REQUST?MAC_TARSCHEDULE
00B38CH   00B3ADH   000022H   BYTE   UNIT     EDATA          ?ED?MAC_RX_SCAN
00B3AEH   00B3CFH   000022H   BYTE   UNIT     EDATA          ?ED?HALRFK_CALIBRATION?HAL_RFK
00B3D0H   00B3EFH   000020H   BYTE   UNIT     EDATA          ?ED?MAC_HTRP_RX_HANDLER?MAC_HTRP_RX
00B3F0H   00B40CH   00001DH   BYTE   UNIT     EDATA          ?ED?MAC_CMD_HDLR
00B40DH   00B425H   000019H   BYTE   UNIT     EDATA          ?ED?MAC_RFERX
00B426H   00B43CH   000017H   BYTE   UNIT     EDATA          ?ED?T2RTASK_SET?MAC_TASK_CTRL
00B43DH   00B44FH   000013H   BYTE   UNIT     EDATA          ?ED?HALRF_FREQSUBGCFG?HAL_RT569MP_RF
00B450H   00B461H   000012H   BYTE   UNIT     EDATA          ?ED?TRTTASK_SET?MAC_TASK_CTRL
00B462H   00B473H   000012H   BYTE   UNIT     EDATA          ?ED?TXCONTTASK_SET?MAC_TASK_CTRL
00B474H   00B485H   000012H   BYTE   UNIT     EDATA          ?ED?MAC_RAA_SCHCONFIGHDLR?MAC_RAASCHEDULE
00B486H   00B497H   000012H   BYTE   UNIT     EDATA          ?ED?MAC_HTRP_TX_HANDLER?MAC_HTRP_TX
00B498H   00B4A8H   000011H   BYTE   UNIT     EDATA          ?ED?MAC_RFETX
00B4A9H   00B4B9H   000011H   BYTE   UNIT     EDATA          ?ED?RUCI_ENDIANCONVERT?RUCI
00B4BAH   00B4C9H   000010H   BYTE   UNIT     EDATA          ?ED?INTR_RF
00B4CAH   00B4D8H   00000FH   BYTE   UNIT     EDATA          ?ED?MAC_HTRP_RX_SET_NEXT_TASK_AND_CHANNEL?MAC_HTRP_RX
00B4D9H   00B4E7H   00000FH   BYTE   UNIT     EDATA          ?ED?MAC_HTRP_TX_SLOT_RX_DONE?MAC_HTRP_TX
00B4E8H   00B4F6H   00000FH   BYTE   UNIT     EDATA          ?ED?MAC_HTRP_TX_PERIOD_BURST_RX_DONE?MAC_HTRP_TX
00B4F7H   00B504H   00000EH   BYTE   UNIT     EDATA          ?ED?RXTASK_ALWAYSON_SET?MAC_TASK_CTRL
00B505H   00B512H   00000EH   BYTE   UNIT     EDATA          ?ED?R2TTASK_SET?MAC_TASK_CTRL
00B513H   00B520H   00000EH   BYTE   UNIT     EDATA          ?ED?RXTASK_TIMEOUT_SET?MAC_TASK_CTRL
00B521H   00B52EH   00000EH   BYTE   UNIT     EDATA          ?ED?TXTASK_SET?MAC_TASK_CTRL
00B52FH   00B53CH   00000EH   BYTE   UNIT     EDATA          ?ED?TXRTCTASK_SET?MAC_TASK_CTRL
00B53DH   00B54AH   00000EH   BYTE   UNIT     EDATA          ?ED?MAC_HTRP_RX_SET_RF_TASK?MAC_HTRP_RX
00B54BH   00B558H   00000EH   BYTE   UNIT     EDATA          ?ED?MAC_HTRP_TX_SET_RF_TASK?MAC_HTRP_TX
00B559H   00B564H   00000CH   BYTE   UNIT     EDATA          ?ED?COMMON_ISRBMUCHECKTX?COMMON_ISR
00B565H   00B570H   00000CH   BYTE   UNIT     EDATA          ?ED?BMU_TRXQUEUEGET?BMU_COMMON
00B571H   00B57CH   00000CH   BYTE   UNIT     EDATA          ?ED?BMU_TRXQUEUESET?BMU_COMMON
00B57DH   00B588H   00000CH   BYTE   UNIT     EDATA          ?ED?MAC_RFETXSCHEDULE?MAC_RFETX
00B589H   00B594H   00000CH   BYTE   UNIT     EDATA          ?ED?MAC_HTRP_RX_SET_PERIOD_NEXT_TASK?MAC_HTRP_RX
L251 LINKER/LOCATER V4.66.93.0                                                        07/01/2025  14:01:01  PAGE 5


00B595H   00B59EH   00000AH   BYTE   UNIT     EDATA          ?ED?MAC_TAR_SCHCONFIGHDLR?MAC_TARSCHEDULE
00B59FH   00B5A8H   00000AH   BYTE   UNIT     EDATA          ?ED?MAC_HTRP_RX_PERIOD_TX_DONE?MAC_HTRP_RX
00B5A9H   00B5B2H   00000AH   BYTE   UNIT     EDATA          ?ED?MAC_HTRP_TX_BURST_TX_DONE?MAC_HTRP_TX
00B5B3H   00B5BCH   00000AH   BYTE   UNIT     EDATA          ?ED?MAC_HTRP_TX_PERIOD_BURST_TX_DONE?MAC_HTRP_TX
00B5BDH   00B5C6H   00000AH   BYTE   UNIT     EDATA          ?ED?HALRF_FREQ2GCFG?HAL_RT569MP_RF
00B5C7H   00B5CFH   000009H   BYTE   UNIT     EDATA          ?ED?HALRFK_TXSBK?HAL_RT569MP_RFK
00B5D0H   00B5D7H   000008H   BYTE   UNIT     EDATA          ?ED?Q_QPUSHBACK?SYS_QCTRL
00B5D8H   00B5DFH   000008H   BYTE   UNIT     EDATA          ?ED?BMU_RX
00B5E0H   00B5E7H   000008H   BYTE   UNIT     EDATA          ?ED?MAC_ISR
00B5E8H   00B5EFH   000008H   BYTE   UNIT     EDATA          ?ED?MAC_GETCSLPHASE?MAC_RAASCHEDULE
00B5F0H   00B5F7H   000008H   BYTE   UNIT     EDATA          ?ED?MAC_RFERXSCHEDULE?MAC_RFERX
00B5F8H   00B5FEH   000007H   BYTE   UNIT     EDATA          ?ED?HALPHY_RXBWSET?HAL_PHY
00B5FFH   00B604H   000006H   BYTE   UNIT     EDATA          ?ED?SYS_CTRL
00B605H   00B60AH   000006H   BYTE   UNIT     EDATA          ?ED?SYS_RAND?SYS_CTRL
00B60BH   00B610H   000006H   BYTE   UNIT     EDATA          ?ED?Q_QPUSHFRONT?SYS_QCTRL
00B611H   00B616H   000006H   BYTE   UNIT     EDATA          ?ED?SYS_RTC
00B617H   00B61CH   000006H   BYTE   UNIT     EDATA          ?ED?HALRFK_RXFILTK?HAL_RT569MP_RFK
00B61DH   00B621H   000005H   BYTE   UNIT     EDATA          ?ED?SYS_TASK
00B622H   00B626H   000005H   BYTE   UNIT     EDATA          ?ED?MAC_TAR_SCHWAITCCADONEHDLR?MAC_TARSCHEDULE
00B627H   00B62BH   000005H   BYTE   UNIT     EDATA          ?ED?MAC_HTRP_RELAY_DATA_TO_SW_RXQ?MAC_HTRP_CONTROL
00B62CH   00B630H   000005H   BYTE   UNIT     EDATA          ?ED?MSG_CTRL
00B631H   00B634H   000004H   BYTE   UNIT     EDATA          ?ED?RTC_UDELAY?SYS_RTC
00B635H   00B638H   000004H   BYTE   UNIT     EDATA          ?ED?BMU_MEMALLOCATE?BMU
00B639H   00B63CH   000004H   BYTE   UNIT     EDATA          ?ED?BMU_PRIVACYIRKSINGLESEARCH?BMU_BLE
00B63DH   00B640H   000004H   BYTE   UNIT     EDATA          ?ED?GET_SWITCH_TX_FREQ?MAC_CMD_HDLR
00B641H   00B644H   000004H   BYTE   UNIT     EDATA          ?ED?PCI_SETWAKEONRADIO?MAC_CMD_HDLR
00B645H   00B648H   000004H   BYTE   UNIT     EDATA          ?ED?MAC_TASK_CTRL
00B649H   00B64CH   000004H   BYTE   UNIT     EDATA          ?ED?MAC_GENENHACK?MAC_RAASCHEDULE
00B64DH   00B650H   000004H   BYTE   UNIT     EDATA          ?ED?INTERCOM_MAXCCATIMECAL?MAC_TARSCHEDULE
00B651H   00B654H   000004H   BYTE   UNIT     EDATA          ?ED?MAC_SECLBHWSET?MAC_TARSCHEDULE
00B655H   00B658H   000004H   BYTE   UNIT     EDATA          ?ED?MAC_CCASTART?MAC_TARSCHEDULE
00B659H   00B65CH   000004H   BYTE   UNIT     EDATA          ?ED?HALSEC_AESSET?HAL_SEC
00B65DH   00B660H   000004H   BYTE   UNIT     EDATA          ?ED?HAL_HWINIT?HAL_RT569MP_INIT
00B661H   00B664H   000004H   BYTE   UNIT     EDATA          ?ED?HAL_RT569MP_RFK
00B665H   00B668H   000004H   BYTE   UNIT     EDATA          ?ED?HALRFK_TXLOK?HAL_RT569MP_RFK
00B669H   00B66CH   000004H   BYTE   UNIT     EDATA          ?ED?HALRF_IFCHECK?HAL_RT569MP_RF
00B66DH   00B66FH   000003H   BYTE   UNIT     EDATA          ?ED?Q_QCHAGETYPE?SYS_QCTRL
00B670H   00B672H   000003H   BYTE   UNIT     EDATA          ?ED?COMMON_ISRBMUTXQPCIGET?COMMON_ISR
00B673H   00B675H   000003H   BYTE   UNIT     EDATA          ?ED?PANIDPRESENT?MAC_FRAME_PARSE
00B676H   00B678H   000003H   BYTE   UNIT     EDATA          ?ED?MAC_TXHWSET?MAC_TARSCHEDULE
00B679H   00B67BH   000003H   BYTE   UNIT     EDATA          ?ED?MAC_TXTASKSET?MAC_TARSCHEDULE
00B67CH   00B67EH   000003H   BYTE   UNIT     EDATA          ?ED?MAC_HTRP_RX
00B67FH   00B681H   000003H   BYTE   UNIT     EDATA          ?ED?HALRFK_RINGPLLSET?HAL_RT569MP_RFK
00B682H   00B683H   000002H   BYTE   UNIT     EDATA          ?ED?BMU_HWINIT?BMU
00B684H   00B685H   000002H   BYTE   UNIT     EDATA          ?ED?BMU_COMMON
00B686H   00B687H   000002H   BYTE   UNIT     EDATA          ?ED?BMU_LRXSHAREQISFULL?BMU_RX
00B688H   00B689H   000002H   BYTE   UNIT     EDATA          ?ED?PCI_SETPHR?MAC_CMD_HDLR
00B68AH   00B68BH   000002H   BYTE   UNIT     EDATA          ?ED?PCI_PARSET15P4SMENTRYCTRL?MAC_CMD_HDLR
00B68CH   00B68DH   000002H   BYTE   UNIT     EDATA          ?ED?MAC_SCANVCO_GET?MAC_RAASCHEDULE
00B68EH   00B68FH   000002H   BYTE   UNIT     EDATA          ?ED?MAC_GENACK?MAC_RAASCHEDULE
00B690H   00B691H   000002H   BYTE   UNIT     EDATA          ?ED?MAC_ACKFRAMECHECK?MAC_TARSCHEDULE
00B692H   00B693H   000002H   BYTE   UNIT     EDATA          ?ED?MAC_RFEDATAGEN?MAC_RFETX
00B694H   00B695H   000002H   BYTE   UNIT     EDATA          ?ED?MAC_HTRP_CLEAR_RX_QUEUE?MAC_HTRP_CONTROL
00B696H   00B697H   000002H   BYTE   UNIT     EDATA          ?ED?MAC_HTRP_SET_TX_QUEUE?MAC_HTRP_CONTROL
00B698H   00B699H   000002H   BYTE   UNIT     EDATA          ?ED?MAC_HTRP_TX
00B69AH   00B69BH   000002H   BYTE   UNIT     EDATA          ?ED?MAC_SRCMATCH_LISTCLEAR?MAC_SRCMATCH
00B69CH   00B69DH   000002H   BYTE   UNIT     EDATA          ?ED?MSG_INMSGPROC?MSG_CTRL
00B69EH   00B69FH   000002H   BYTE   UNIT     EDATA          ?ED?HAL_RF
00B6A0H   00B6A0H   000001H   BYTE   UNIT     EDATA          ?ED?BMU_H2MCMDGET?BMU_CMD
00B6A1H   00B6A1H   000001H   BYTE   UNIT     EDATA          ?ED?BMU_PRIVACYLOCALRPAGEN?BMU_BLE
00B6A2H   00B6A2H   000001H   BYTE   UNIT     EDATA          ?ED?MAC_TRXPAR_INIT?MAC
00B6A3H   00B6A3H   000001H   BYTE   UNIT     EDATA          ?ED?GET_PAN_NUMBER?MAC_CMD_HDLR
00B6A4H   00B6A4H   000001H   BYTE   UNIT     EDATA          ?ED?GET_INTERCOM_MODE_STATUS?MAC_CMD_HDLR
00B6A5H   00B6A5H   000001H   BYTE   UNIT     EDATA          ?ED?PCI_SETCLOCKMODE?MAC_CMD_HDLR
00B6A6H   00B6A6H   000001H   BYTE   UNIT     EDATA          ?ED?PCI_SETRFFREQ?MAC_CMD_HDLR
L251 LINKER/LOCATER V4.66.93.0                                                        07/01/2025  14:01:01  PAGE 6


00B6A7H   00B6A7H   000001H   BYTE   UNIT     EDATA          ?ED?MAC_CMDQUEUEPARSE?MAC_CMD_HDLR
00B6A8H   00B6A8H   000001H   BYTE   UNIT     EDATA          ?ED?MAC_RAA_SCHWAITMHRHDLR?MAC_RAASCHEDULE
00B6A9H   00B6A9H   000001H   BYTE   UNIT     EDATA          ?ED?MAC_BACKOFFTIMECAL?MAC_TARSCHEDULE
00B6AAH   00B6AAH   000001H   BYTE   UNIT     EDATA          ?ED?INTERCOM_BACKOFFTIMECAL?MAC_TARSCHEDULE
00B6ABH   00B6ABH   000001H   BYTE   UNIT     EDATA          ?ED?MAC_RFERXDATACONFIRM?MAC_RFERX
00B6ACH   00B6ACH   000001H   BYTE   UNIT     EDATA          ?ED?MAC_SRCMATCH_LISTINIT?MAC_SRCMATCH
00B6ADH   00B6ADH   000001H   BYTE   UNIT     EDATA          ?ED?MAC_SRCMATCH_LISTADDSHORT?MAC_SRCMATCH
00B6AEH   00B6AEH   000001H   BYTE   UNIT     EDATA          ?ED?MAC_SRCMATCH_LISTADDEXTENDED?MAC_SRCMATCH
00B6AFH   00B6AFH   000001H   BYTE   UNIT     EDATA          ?ED?HALRFK_RSSIGET?HAL_RT569MP_RFK
00B6B0H   FEFFFFH   FE4950H   ---    ---      **GAP**
FF0000H   FF0002H   000003H   ---    OFFS..   CODE           ?CO?STARTUP251_RT569MP?4
FF0003H   FF0005H   000003H   ---    OFFS..   CODE           ?PR?IV?0
FF0006H   FF0007H   000002H   BYTE   UNIT     HCONST         ?HC?RT569MP_REG
FF0008H   FF000AH   000003H   BYTE   INSEG    CODE           ?PR?ALLTASK_STOP?MAC_TASK_CTRL
FF000BH   FF000DH   000003H   ---    OFFS..   CODE           ?PR?IV?1
FF000EH   FF00ACH   00009FH   BYTE   UNIT     CODE           ?C?LIB_CODE
FF00ADH   FF010BH   00005FH   BYTE   UNIT     CODE           ?PR?ASM_MEMCPY??SYS_MEM2
FF010CH   FF0122H   000017H   BYTE   UNIT     CODE           ?C_C51STARTUP
FF0123H   FF014BH   000029H   BYTE   UNIT     CODE           ?C_C51STARTUP?2
FF014CH   FF014EH   000003H   BYTE   UNIT     CODE           ?C_C51STARTUP?3
FF014FH   FF018FH   000041H   BYTE   UNIT     CODE           ?PR?ASM_MEMSET??SYS_MEM
FF0190H   FF01AEH   00001FH   BYTE   INSEG    CODE           ?PR?MEMCPY?_?MEMCPY
FF01AFH   FF01CDH   00001FH   BYTE   INSEG    CODE           ?PR?HMEMCPY?_?HMEMCPY
FF01CEH   FF01E1H   000014H   BYTE   INSEG    CODE           ?PR?MEMSET?_?MEMSET
FF01E2H   FF082AH   000649H   BYTE   UNIT     HCONST         ?HC?HAL_RT569MP_PARA
FF082BH   FF0CDDH   0004B3H   BYTE   UNIT     HCONST         ?HC?HAL_PARA
FF0CDEH   FF1012H   000335H   BYTE   UNIT     HCONST         ?C_INITEDATA
FF1013H   FF1118H   000106H   BYTE   UNIT     HCONST         ?HC?MAC_RFETX
FF1119H   FF11C8H   0000B0H   BYTE   UNIT     HCONST         ?HC?HAL_CFG
FF11C9H   FF123AH   000072H   BYTE   UNIT     HCONST         ?HC?RUCI_PCICOMMONCMD
FF123BH   FF128BH   000051H   BYTE   UNIT     HCONST         ?HC?MAC_CMD_HDLR
FF128CH   FF12CFH   000044H   BYTE   UNIT     HCONST         ?HC?HAL_INIT
FF12D0H   FF1313H   000044H   BYTE   UNIT     HCONST         ?HC?RUCI_PCI15P4MACCMD
FF1314H   FF133DH   00002AH   BYTE   UNIT     HCONST         ?HC?RUCI_PCIBLECMD
FF133EH   FF1364H   000027H   BYTE   UNIT     HCONST         ?HC?HAL_PRTCL
FF1365H   FF1388H   000024H   BYTE   UNIT     HCONST         ?HC?RUCI_CMNEVENT
FF1389H   FF13A2H   00001AH   BYTE   UNIT     HCONST         ?HC?RUCI_CMNHALCMD
FF13A3H   FF13BAH   000018H   BYTE   UNIT     HCONST         ?HC?HAL_RT569MP_RF
FF13BBH   FF13D0H   000016H   BYTE   UNIT     HCONST         ?HC?RUCI_PCIDATA
FF13D1H   FF13E2H   000012H   BYTE   UNIT     HCONST         ?HC?RUCI_PCIEVENT
FF13E3H   FF13F2H   000010H   BYTE   UNIT     HCONST         ?HC?BMU_COMMON
FF13F3H   FF13FAH   000008H   BYTE   UNIT     HCONST         ?HC?RUCI_PCIFSKCMD
FF13FBH   FF1400H   000006H   BYTE   UNIT     HCONST         ?HC?RT569MP_MEM
FF1401H   FF1407H   000007H   BYTE   INSEG    CODE           ?PR?MAIN?MAIN
FF1408H   FF1440H   000039H   BYTE   INSEG    CODE           ?PR?SYS_INIT?SYS_INIT
FF1441H   FF144CH   00000CH   BYTE   INSEG    CODE           ?PR?SYS_IDLETASKINIT?SYS_CTRL
FF144DH   FF145FH   000013H   BYTE   INSEG    CODE           ?PR?MSG_HDLRINIT?MSG_CTRL
FF1460H   FF146BH   00000CH   BYTE   INSEG    CODE           ?PR?SYS_IDLETASKINTINIT?SYS_CTRL
FF146CH   FF14B8H   00004DH   BYTE   INSEG    CODE           ?PR?INTR_RF_REGISTER?INTR_RF
FF14B9H   FF14C7H   00000FH   BYTE   INSEG    CODE           ?PR?COMMON_ISR_INIT?COMMON_ISR
FF14C8H   FF1501H   00003AH   BYTE   INSEG    CODE           ?PR?MAC_INIT?MAC
FF1502H   FF1543H   000042H   BYTE   INSEG    CODE           ?PR?RF_TASK_ALLSTOP?RF_TASK_CTRL
FF1544H   FF176BH   000228H   BYTE   INSEG    CODE           ?PR?MAC_RFETXSCHEDULE?MAC_RFETX
FF176CH   FF17B2H   000047H   BYTE   INSEG    CODE           ?PR?SYS_TRAP?SYS_CTRL
FF17B3H   FF17BEH   00000CH   BYTE   INSEG    CODE           ?PR?MAC_ISRINIT?MAC_ISR
FF17BFH   FF17D9H   00001BH   BYTE   INSEG    CODE           ?PR?RTC_CLKGET?_?SYS_RTC
FF17DAH   FF17F4H   00001BH   BYTE   INSEG    CODE           ?PR?RTC_ISRHDLRINIT?SYS_RTC
FF17F5H   FF17F9H   000005H   BYTE   INSEG    CODE           ?PR?INTR_ENABLE?INTR_RF
FF17FAH   FF1828H   00002FH   BYTE   INSEG    CODE           ?PR?SYS_TASK_REGISTER?SYS_TASK
FF1829H   FF186AH   000042H   BYTE   INSEG    CODE           ?PR?RF_TASK_EN?RF_TASK_CTRL
FF186BH   FF1914H   0000AAH   BYTE   INSEG    CODE           ?PR?TRTTASK_SET?MAC_TASK_CTRL
FF1915H   FF19D2H   0000BEH   BYTE   INSEG    CODE           ?PR?RF_TASK_SET?RF_TASK_CTRL
FF19D3H   FF1AF7H   000125H   BYTE   INSEG    CODE           ?PR?T2RTASK_SET?MAC_TASK_CTRL
FF1AF8H   FF1BB4H   0000BDH   BYTE   INSEG    CODE           ?PR?MAC_HTRP_RX_SET_RF_TASK?MAC_HTRP_RX
FF1BB5H   FF1F7FH   0003CBH   BYTE   INSEG    CODE           ?PR?MAC_HTRP_RX_HANDLER?MAC_HTRP_RX
L251 LINKER/LOCATER V4.66.93.0                                                        07/01/2025  14:01:01  PAGE 7


FF1F80H   FF1F84H   000005H   BYTE   INSEG    CODE           ?PR?MAC_HTRP_RX_SET_STATE?MAC_HTRP_RX
FF1F85H   FF1FB6H   000032H   BYTE   INSEG    CODE           ?PR?SYS_TASK_UNBLOCK?SYS_TASK
FF1FB7H   FF1FCEH   000018H   BYTE   INSEG    CODE           ?PR?MAC_HTRP_CTRL_CHANNEL_SET?MAC_HTRP_CONTROL
FF1FCFH   FF1FE7H   000019H   BYTE   INSEG    CODE           ?PR?RTC_TICKGAPCOUNT?SYS_RTC
FF1FE8H   FF1FF6H   00000FH   BYTE   INSEG    CODE           ?PR?MAC_HTRP_SET_RX_QUEUE?MAC_HTRP_CONTROL
FF1FF7H   FF2043H   00004DH   BYTE   INSEG    CODE           ?PR?MAC_HTRP_SET_RX_HW_QUEUE?MAC_HTRP_CONTROL
FF2044H   FF20BFH   00007CH   BYTE   INSEG    CODE           ?PR?MAC_RXHWSET?MAC_TARSCHEDULE
FF20C0H   FF2149H   00008AH   BYTE   INSEG    CODE           ?PR?BMU_RXCONFIG?BMU_RX
FF214AH   FF2152H   000009H   BYTE   INSEG    CODE           ?PR?HALMAC_MAXPAYLOADDFTGET?HAL_MAC
FF2153H   FF2175H   000023H   BYTE   INSEG    CODE           ?PR?HALMAC_RXMAXPKTLENSET?HAL_MAC
FF2176H   FF2262H   0000EDH   BYTE   INSEG    CODE           ?PR?MAC_TAR_SCHWAITACKRXDONEHDLR?MAC_TARSCHEDULE
FF2263H   FF22B9H   000057H   BYTE   INSEG    CODE           ?PR?HALPKT_RXQDONESET?HAL_PKT
FF22BAH   FF271BH   000462H   BYTE   INSEG    CODE           ?PR?MAC_RAARXDONEHANDLE?_?MAC_RAASCHEDULE
FF271CH   FF273BH   000020H   BYTE   INSEG    CODE           ?PR?SYS_ISCLKAPASSOVERCLKB?SYS_CTRL
FF273CH   FF2777H   00003CH   BYTE   INSEG    CODE           ?PR?MAC_FUNEVENTQADD?_?MAC
FF2778H   FF27B2H   00003BH   BYTE   INSEG    CODE           ?PR?MAC_HTRP_ISR_TX_DONE_HANDLER?MAC_HTRP_CONTROL
FF27B3H   FF27C9H   000017H   BYTE   INSEG    CODE           ?PR?MAC_HTRP_SET_RX_SW_QUEUE?MAC_HTRP_CONTROL
FF27CAH   FF27CDH   000004H   BYTE   INSEG    CODE           ?PR?MAC_TAR_CCA_SETUP?MAC_TARSCHEDULE
FF27CEH   FF283DH   000070H   BYTE   INSEG    CODE           ?PR?MAC_CCASTART?MAC_TARSCHEDULE
FF283EH   FF284DH   000010H   BYTE   INSEG    CODE           ?PR?MAC_WAITFORRXTASKREADY?MAC_TARSCHEDULE
FF284EH   FF28B7H   00006AH   BYTE   INSEG    CODE           ?PR?R2TTASK_SET?MAC_TASK_CTRL
FF28B8H   FF290BH   000054H   BYTE   INSEG    CODE           ?PR?MAC_RXSCAN_R2TTASKRESTART?MAC_RX_SCAN
FF290CH   FF296AH   00005FH   BYTE   INSEG    CODE           ?PR?MAC_RXSCAN_SWITCHTONEXTFREQUENCY?MAC_RX_SCAN
FF296BH   FF2976H   00000CH   BYTE   UNIT     CODE           ?L?COM0011
FF2977H   FF2CBDH   000347H   BYTE   INSEG    CODE           ?PR?MAC_GENENHACK?MAC_RAASCHEDULE
FF2CBEH   FF2D1CH   00005FH   BYTE   INSEG    CODE           ?PR?MAC_ENDIANCONVERT?MAC_RAASCHEDULE
FF2D1DH   FF2D2FH   000013H   BYTE   INSEG    CODE           ?PR?MAC_RSSIINFOCALC?MAC_RAASCHEDULE
FF2D30H   FF2D4AH   00001BH   BYTE   INSEG    CODE           ?PR?MAC_SRCMATCH_ENABLESTATUSGET?MAC_SRCMATCH
FF2D4BH   FF2D5EH   000014H   BYTE   INSEG    CODE           ?PR?HALMAC_TXSFDSET?HAL_MAC
FF2D5FH   FF2D83H   000025H   BYTE   INSEG    CODE           ?PR?MAC_SRCMATCH_LISTFIND?MAC_SRCMATCH
FF2D84H   FF2DAEH   00002BH   BYTE   INSEG    CODE           ?PR?PCI_PARSE15P4PENDINGBIT?MAC_CMD_HDLR
FF2DAFH   FF2DFCH   00004EH   BYTE   INSEG    CODE           ?PR?PCICNFEVENTSENDTOMSGQUEUE?MAC_EVENT_GEN
FF2DFDH   FF2E44H   000048H   BYTE   INSEG    CODE           ?PR?PCI_BLEPHY_GETHTRP_STATUS?MAC_CMD_HDLR
FF2E45H   FF2E8FH   00004BH   BYTE   INSEG    CODE           ?PR?PCI_SETFSKSFD?MAC_CMD_HDLR
FF2E90H   FF2F15H   000086H   BYTE   INSEG    CODE           ?PR?PCI_BLECMDSETBLEMAC?MAC_CMD_HDLR
FF2F16H   FF2FCDH   0000B8H   BYTE   INSEG    CODE           ?PR?HALMAC_RXSFDSET?HAL_MAC
FF2FCEH   FF2FDEH   000011H   BYTE   INSEG    CODE           ?PR?PCI_SETFSKTYPE?MAC_CMD_HDLR
FF2FDFH   FF2FE9H   00000BH   BYTE   INSEG    CODE           ?PR?HALPHY_GAUSSIANFILTSET?HAL_PHY
FF2FEAH   FF2FF5H   00000CH   BYTE   UNIT     CODE           ?L?COM0013
FF2FF6H   FF302CH   000037H   BYTE   INSEG    CODE           ?PR?GET_PAN_NUMBER?MAC_CMD_HDLR
FF302DH   FF3055H   000029H   BYTE   INSEG    CODE           ?PR?INTR_CLEAR?INTR_RF
FF3056H   FF3066H   000011H   BYTE   INSEG    CODE           ?PR?INTR_CLEARRTCGRP?INTR_RF
FF3067H   FF3075H   00000FH   BYTE   INSEG    CODE           ?PR?INTR_RF_HDLR?INTR_RF
FF3076H   FF30FCH   000087H   BYTE   INSEG    CODE           ?PR?ISR_0_HDLR?ISR_HDLR
FF30FDH   FF30FDH   000001H   BYTE   INSEG    CODE           ?PR?INTR_RF_NULLHDLR?INTR_RF
FF30FEH   FF3139H   00003CH   BYTE   INSEG    CODE           ?PR?SYS_INFOREGINIT?SYS_INIT
FF313AH   FF3168H   00002FH   BYTE   INSEG    CODE           ?PR?SYS_TASK_BLOCK?SYS_TASK
FF3169H   FF33C0H   000258H   BYTE   INSEG    CODE           ?PR?MAC_HTRP_TX_HANDLER?MAC_HTRP_TX
FF33C1H   FF33C5H   000005H   BYTE   INSEG    CODE           ?PR?MAC_HTRP_TX_SET_STATE?MAC_HTRP_TX
FF33C6H   FF34B5H   0000F0H   BYTE   INSEG    CODE           ?PR?MAC_HTRP_SET_TX_QUEUE?MAC_HTRP_CONTROL
FF34B6H   FF34BEH   000009H   BYTE   INSEG    CODE           ?PR?MAC_HTRP_REG_ISR_CB?MAC_HTRP_CONTROL
FF34BFH   FF34D4H   000016H   BYTE   INSEG    CODE           ?PR?MAC_HTRP_GET_TX_DATA?MAC_HTRP_CONTROL
FF34D5H   FF3501H   00002DH   BYTE   INSEG    CODE           ?PR?MAC_FUNEVENTQGET?_?MAC
FF3502H   FF3596H   000095H   BYTE   INSEG    CODE           ?PR?MAC_RAA_SCHWAITMHRHDLR?MAC_RAASCHEDULE
FF3597H   FF35C5H   00002FH   BYTE   INSEG    CODE           ?PR?HALMAC_PHRSET?HAL_MAC
FF35C6H   FF3612H   00004DH   BYTE   INSEG    CODE           ?PR?HALPKT_TXQDONESET?HAL_PKT
FF3613H   FF3617H   000005H   BYTE   INSEG    CODE           ?PR?MAC_HTRP_TX_GET_STATE?MAC_HTRP_TX
FF3618H   FF3654H   00003DH   BYTE   INSEG    CODE           ?PR?MAC_HTRP_IS_ALLOW_SLEEP_STATE?MAC_HTRP_CONTROL
FF3655H   FF3659H   000005H   BYTE   INSEG    CODE           ?PR?MAC_HTRP_RX_GET_STATE?MAC_HTRP_RX
FF365AH   FF36F6H   00009DH   BYTE   INSEG    CODE           ?PR?PCIHTRPFWSTATUSEVENTDONEEVENTSENDTOMSGQUEUE?MAC_EVENT_
                                                             -GEN
FF36F7H   FF3712H   00001CH   BYTE   INSEG    CODE           ?PR?Q_MEMGET?SYS_QCTRL
FF3713H   FF3731H   00001FH   BYTE   INSEG    CODE           ?PR?Q_MEMALLOC?SYS_QCTRL
FF3732H   FF375AH   000029H   BYTE   INSEG    CODE           ?PR?PCICSLACCURACYEVENTSENDTOMSGQUEUE?MAC_EVENT_GEN
FF375BH   FF3783H   000029H   BYTE   INSEG    CODE           ?PR?PCICSLUNCERTAINTYEVENTSENDTOMSGQUEUE?MAC_EVENT_GEN
L251 LINKER/LOCATER V4.66.93.0                                                        07/01/2025  14:01:01  PAGE 8


FF3784H   FF37B4H   000031H   BYTE   INSEG    CODE           ?PR?PCIHTRPGETRSSIEVENTSENDTOMSGQUEUE?MAC_EVENT_GEN
FF37B5H   FF37D1H   00001DH   BYTE   INSEG    CODE           ?PR?MAC_RAACLEARACKQANDGENRXDATA?MAC_RAASCHEDULE
FF37D2H   FF397FH   0001AEH   BYTE   INSEG    CODE           ?PR?MAC_RXDONEEVENTGEN?_?MAC_RAASCHEDULE
FF3980H   FF39CDH   00004EH   BYTE   INSEG    CODE           ?PR?BMU_RXQUEUESET?BMU_RX
FF39CEH   FF3A04H   000037H   BYTE   INSEG    CODE           ?PR?HALPKT_PHYSTATUSGET?HAL_PKT
FF3A05H   FF3B7CH   000178H   BYTE   INSEG    CODE           ?PR?MAC_RXQ_CPY?_?MAC_RAASCHEDULE
FF3B7DH   FF3BDFH   000063H   BYTE   INSEG    CODE           ?PR?BMU_RXQUEUEGET?BMU_RX
FF3BE0H   FF3C62H   000083H   BYTE   INSEG    CODE           ?PR?MAC_HTRP_RELAY_DATA_TO_SW_RXQ?MAC_HTRP_CONTROL
FF3C63H   FF3C64H   000002H   BYTE   INSEG    CODE           ?PR?MAC_HTRP_GET_RX_SW_QUEUE_WO_ADDR?MAC_HTRP_CONTROL
FF3C65H   FF3C92H   00002EH   BYTE   INSEG    CODE           ?PR?BMU_LRXSHAREQWOGET?BMU_RX
FF3C93H   FF3CADH   00001BH   BYTE   INSEG    CODE           ?PR?BMU_LRXSHAREQWOUPDATE?BMU_RX
FF3CAEH   FF3D25H   000078H   BYTE   INSEG    CODE           ?PR?MAC_HTRP_CLEAR_RX_QUEUE?MAC_HTRP_CONTROL
FF3D26H   FF3DEEH   0000C9H   BYTE   INSEG    CODE           ?PR?MAC_RFERXDATACONFIRM?MAC_RFERX
FF3DEFH   FF3E66H   000078H   BYTE   INSEG    CODE           ?PR?BMU_LOCALRXQUEUEGET?BMU_RX
FF3E67H   FF3F52H   0000ECH   BYTE   INSEG    CODE           ?PR?RUCI_ENDIANCONVERT?RUCI
FF3F53H   FF3FACH   00005AH   BYTE   INSEG    CODE           ?PR?CMN_GETVOLTAGERPTEVENTSEND?COMMON_EVENT_GEN
FF3FADH   FF3FB8H   00000CH   BYTE   INSEG    CODE           ?PR?CMN_CMDHAL_GETVOLTAGERPT?COMMON_CMD_HDLR
FF3FB9H   FF3FC6H   00000EH   BYTE   UNIT     CODE           ?L?COM0025
FF3FC7H   FF3FDDH   000017H   BYTE   INSEG    CODE           ?PR?HALRF_VOLTAGERPTGET?HAL_RF
FF3FDEH   FF3FFCH   00001FH   BYTE   INSEG    CODE           ?PR?BMU_LRXHWRXDONEBUFGET?BMU_RX
FF3FFDH   FF402AH   00002EH   BYTE   INSEG    CODE           ?PR?SYS_TASK_RUN?SYS_TASK
FF402BH   FF402BH   000001H   BYTE   INSEG    CODE           ?PR?SYS_NULL_TASK?SYS_TASK
FF402CH   FF403CH   000011H   BYTE   INSEG    CODE           ?PR?ISR_CLEAR_MAC_STATUS?ISR_HDLR
FF403DH   FF4046H   00000AH   BYTE   INSEG    CODE           ?PR?MAC_FATALCLEAR?MAC
FF4047H   FF40EBH   0000A5H   BYTE   INSEG    CODE           ?PR?MAC_TXGETBMUDATA?MAC_TARSCHEDULE
FF40ECH   FF4127H   00003CH   BYTE   INSEG    CODE           ?PR?MAC_INTEVENTQADD?_?MAC
FF4128H   FF4136H   00000FH   BYTE   INSEG    CODE           ?PR?MAC_FUNEVENTQUEUEEXIST?MAC
FF4137H   FF4204H   0000CEH   BYTE   INSEG    CODE           ?PR?SETRFIDLE?MAC_CMD_HDLR
FF4205H   FF4266H   000062H   BYTE   INSEG    CODE           ?PR?MAC_SCANVCO_GET?MAC_RAASCHEDULE
FF4267H   FF428DH   000027H   BYTE   INSEG    CODE           ?PR?RTC_UDELAY?SYS_RTC
FF428EH   FF42FEH   000071H   BYTE   INSEG    CODE           ?PR?HALRFK_LBTRXENABLE?HAL_RT569MP_RFK
FF42FFH   FF43A0H   0000A2H   BYTE   INSEG    CODE           ?PR?HALRFK_CALIBRATION?HAL_RFK
FF43A1H   FF43ADH   00000DH   BYTE   INSEG    CODE           ?PR?HALRFK_SINGLETONEDISABLE?HAL_RT569MP_RFK
FF43AEH   FF43CBH   00001EH   BYTE   INSEG    CODE           ?PR?HALRFK_LBTRXDISABLE?HAL_RT569MP_RFK
FF43CCH   FF43ECH   000021H   BYTE   INSEG    CODE           ?PR?HALRFK_SINGLETONEENABLE?HAL_RT569MP_RFK
FF43EDH   FF4462H   000076H   BYTE   INSEG    CODE           ?PR?HALRFK_RSSIGET?HAL_RT569MP_RFK
FF4463H   FF4506H   0000A4H   BYTE   INSEG    CODE           ?PR?HALRFK_RXFILTK?HAL_RT569MP_RFK
FF4507H   FF4518H   000012H   BYTE   INSEG    CODE           ?PR?MAC_CHECKISRRXRECEIVED?MAC
FF4519H   FF4529H   000011H   BYTE   INSEG    CODE           ?PR?PCIQUEUEGETANDMACINTQUEUEADD?MAC
FF452AH   FF453EH   000015H   BYTE   INSEG    CODE           ?PR?MAC_INTEVENTQUEUEHANDLER?MAC
FF453FH   FF45B9H   00007BH   BYTE   INSEG    CODE           ?PR?COMMON_ISRBMUCHECKTX?COMMON_ISR
FF45BAH   FF45D3H   00001AH   BYTE   INSEG    CODE           ?PR?PCI_SETRFERXDISABLECMD?MAC_CMD_HDLR
FF45D4H   FF45EFH   00001CH   BYTE   INSEG    CODE           ?PR?PCI_SETFSKPREAMBLE?MAC_CMD_HDLR
FF45F0H   FF45FAH   00000BH   BYTE   INSEG    CODE           ?PR?HALPHY_PREAMNUMSET?HAL_PHY
FF45FBH   FF4606H   00000CH   BYTE   UNIT     CODE           ?L?COM0023
FF4607H   FF4626H   000020H   BYTE   INSEG    CODE           ?PR?HALRFK_PLLFORLOKSET?HAL_RT569MP_RFK
FF4627H   FF4646H   000020H   BYTE   INSEG    CODE           ?PR?HALRFK_PLLFORSIDEBANDKSET?HAL_RT569MP_RFK
FF4647H   FF4690H   00004AH   BYTE   INSEG    CODE           ?PR?HALRFK_RFGAINCFG?HAL_RT569MP_RFK
FF4691H   FF46A3H   000013H   BYTE   UNIT     CODE           ?L?COM000B
FF46A4H   FF46F7H   000054H   BYTE   INSEG    CODE           ?PR?HALRFK_PLLFORFILTKSET?HAL_RT569MP_RFK
FF46F8H   FF4762H   00006BH   BYTE   INSEG    CODE           ?PR?HALRFK_RFPLLCFG?HAL_RT569MP_RFK
FF4763H   FF47EEH   00008CH   BYTE   INSEG    CODE           ?PR?HALRF_AGCSET2HW?HAL_RT569MP_RF
FF47EFH   FF47F8H   00000AH   BYTE   INSEG    CODE           ?PR?MAC_TARPARINIT?MAC_TARSCHEDULE
FF47F9H   FF481DH   000025H   BYTE   INSEG    CODE           ?PR?MAC_CHECKRXBUSY?MAC
FF481EH   FF482CH   00000FH   BYTE   INSEG    CODE           ?PR?ISR_GET_MAC_STATUS?ISR_HDLR
FF482DH   FF482DH   000001H   BYTE   INSEG    CODE           ?PR?ISR_1_HDLR?ISR_HDLR
FF482EH   FF48C8H   00009BH   BYTE   INSEG    CODE           ?PR?SYS_RAND?SYS_CTRL
FF48C9H   FF48F4H   00002CH   BYTE   INSEG    CODE           ?PR?INTERCOM_BACKOFFTIMECAL?MAC_TARSCHEDULE
FF48F5H   FF4928H   000034H   BYTE   INSEG    CODE           ?PR?MAC_BACKOFFTIMECAL?MAC_TARSCHEDULE
FF4929H   FF4939H   000011H   BYTE   INSEG    CODE           ?PR?SYS_TIMERINIT?SYS_CTRL
FF493AH   FF49ABH   000072H   BYTE   INSEG    CODE           ?PR?SYS_SLEEP?SYS_CTRL
FF49ACH   FF49DAH   00002FH   BYTE   INSEG    CODE           ?PR?SYS_ENTERSLEEPCHECK?SYS_CTRL
FF49DBH   FF4A08H   00002EH   BYTE   INSEG    CODE           ?PR?MSG_IDLE?MSG_CTRL
FF4A09H   FF4A8AH   000082H   BYTE   INSEG    CODE           ?PR?MAC_SLEEPCHECK?MAC
FF4A8BH   FF4A8FH   000005H   BYTE   INSEG    CODE           ?PR?SYS_SLEEPMINTIMEGET?SYS_CTRL
L251 LINKER/LOCATER V4.66.93.0                                                        07/01/2025  14:01:01  PAGE 9


FF4A90H   FF4A94H   000005H   BYTE   INSEG    CODE           ?PR?MAC_HTRP_READY_TO_SLEEP?MAC_HTRP_CONTROL
FF4A95H   FF4A9CH   000008H   BYTE   UNIT     CODE           ?L?COM0048
FF4A9DH   FF4B1FH   000083H   BYTE   INSEG    CODE           ?PR?PCI_SETRXRESERVEPARA?MAC_CMD_HDLR
FF4B20H   FF4BC9H   0000AAH   BYTE   INSEG    CODE           ?PR?PCI_SETWAKEONRADIO?MAC_CMD_HDLR
FF4BCAH   FF4C9CH   0000D3H   BYTE   INSEG    CODE           ?PR?PCI_PARSECOMMONCMD?MAC_CMD_HDLR
FF4C9DH   FF4CA8H   00000CH   BYTE   INSEG    CODE           ?PR?PCI_GETCRCCOUNT?MAC_CMD_HDLR
FF4CA9H   FF4D07H   00005FH   BYTE   INSEG    CODE           ?PR?PCIGETCRCEVENTSENDTOMSGQUEUE?MAC_EVENT_GEN
FF4D08H   FF4D13H   00000CH   BYTE   INSEG    CODE           ?PR?PCI_GETRSSI?MAC_CMD_HDLR
FF4D14H   FF4D70H   00005DH   BYTE   INSEG    CODE           ?PR?PCIGETRSSIEVENTSENDTOMSGQUEUE?MAC_EVENT_GEN
FF4D71H   FF4D7CH   00000CH   BYTE   INSEG    CODE           ?PR?PCI_GETPHYSTATUS?MAC_CMD_HDLR
FF4D7DH   FF4E02H   000086H   BYTE   INSEG    CODE           ?PR?PCIGETPHYSTATUSEVENTSENDTOMSGQUEUE?MAC_EVENT_GEN
FF4E03H   FF4ED7H   0000D5H   BYTE   INSEG    CODE           ?PR?Q_QPUSHBACK?SYS_QCTRL
FF4ED8H   FF4F15H   00003EH   BYTE   INSEG    CODE           ?PR?PCI_ENABLESINGLETONE?MAC_CMD_HDLR
FF4F16H   FF4F5CH   000047H   BYTE   INSEG    CODE           ?PR?PCI_SETRFESECURITYCMD?MAC_CMD_HDLR
FF4F5DH   FF4F86H   00002AH   BYTE   INSEG    CODE           ?PR?HALSEC_AESKEYSET?HAL_SEC
FF4F87H   FF4FE0H   00005AH   BYTE   INSEG    CODE           ?PR?MSG_INMSGPROC?MSG_CTRL
FF4FE1H   FF4FEAH   00000AH   BYTE   INSEG    CODE           ?PR?PCI_SETRFEMODE?MAC_CMD_HDLR
FF4FEBH   FF4FF4H   00000AH   BYTE   INSEG    CODE           ?PR?MAC_TIMEOUTHDLR?MAC
FF4FF5H   FF500AH   000016H   BYTE   INSEG    CODE           ?PR?SYS_ENTERSLEEPGUARD?SYS_CTRL
FF500BH   FF501BH   000011H   BYTE   INSEG    CODE           ?PR?SYS_IDLE_TASK?SYS_CTRL
FF501CH   FF5032H   000017H   BYTE   INSEG    CODE           ?PR?MSG_HDLR?MSG_CTRL
FF5033H   FF505CH   00002AH   BYTE   INSEG    CODE           ?PR?MSG_OUTMSGPROC?MSG_CTRL
FF505DH   FF5065H   000009H   BYTE   INSEG    CODE           ?PR?MSG_OUTSTATESET?MSG_CTRL
FF5066H   FF508FH   00002AH   BYTE   INSEG    CODE           ?PR?MSG_OUTMSGTOBMU?MSG_CTRL
FF5090H   FF50ACH   00001DH   BYTE   INSEG    CODE           ?PR?Q_QFREE?SYS_QCTRL
FF50ADH   FF5237H   00018BH   BYTE   INSEG    CODE           ?PR?MAC_CMDQUEUEPARSE?MAC_CMD_HDLR
FF5238H   FF5245H   00000EH   BYTE   INSEG    CODE           ?PR?PCI_PARSECMNSYSCMD?MAC_CMD_HDLR
FF5246H   FF5250H   00000BH   BYTE   INSEG    CODE           ?PR?CMN_CMDSYS_GETRFBFWVER?COMMON_CMD_HDLR
FF5251H   FF52C3H   000073H   BYTE   INSEG    CODE           ?PR?CMN_GETFWVEREVENTSEND?COMMON_EVENT_GEN
FF52C4H   FF52D4H   000011H   BYTE   INSEG    CODE           ?PR?Q_QNUMGET?SYS_QCTRL
FF52D5H   FF52EAH   000016H   BYTE   INSEG    CODE           ?PR?Q_QGET?SYS_QCTRL
FF52EBH   FF5306H   00001CH   BYTE   INSEG    CODE           ?PR?PCI_PARSEOQPSKCMD?MAC_CMD_HDLR
FF5307H   FF5337H   000031H   BYTE   INSEG    CODE           ?PR?PCI_PARSEFSKCMD?MAC_CMD_HDLR
FF5338H   FF5371H   00003AH   BYTE   INSEG    CODE           ?PR?PCI_INITFSK?MAC_CMD_HDLR
FF5372H   FF53ADH   00003CH   BYTE   INSEG    CODE           ?PR?PCI_OQPSKCMDINITOQPSK?MAC_CMD_HDLR
FF53AEH   FF53E0H   000033H   BYTE   INSEG    CODE           ?PR?PCI_PARARESET?MAC_CMD_HDLR
FF53E1H   FF5427H   000047H   BYTE   INSEG    CODE           ?PR?CMD_CNFEVENTSEND?COMMON_EVENT_GEN
FF5428H   FF5432H   00000BH   BYTE   INSEG    CODE           ?PR?CMN_CMDHAL_GETTEMPERATURERPT?COMMON_CMD_HDLR
FF5433H   FF5490H   00005EH   BYTE   INSEG    CODE           ?PR?CMN_GETTEMPERATURERPTEVENTSEND?COMMON_EVENT_GEN
FF5491H   FF5509H   000079H   BYTE   INSEG    CODE           ?PR?PCI_PARSECMNHALCMD?MAC_CMD_HDLR
FF550AH   FF551AH   000011H   BYTE   INSEG    CODE           ?PR?CMN_CMDHAL_SETCALIBRATIONENABLE?COMMON_CMD_HDLR
FF551BH   FF556EH   000054H   BYTE   INSEG    CODE           ?PR?CMN_SETCALIBRATIONENABLEEVENTSEND?COMMON_EVENT_GEN
FF556FH   FF5583H   000015H   BYTE   INSEG    CODE           ?PR?CMN_CMDHAL_SETTXPWRCHCOMP?COMMON_CMD_HDLR
FF5584H   FF5599H   000016H   BYTE   INSEG    CODE           ?PR?CMN_CMDHAL_SETTXPWRCHSEGMENT?COMMON_CMD_HDLR
FF559AH   FF55B6H   00001DH   BYTE   INSEG    CODE           ?PR?CMN_CMDHAL_SETTXPWRCOMP?COMMON_CMD_HDLR
FF55B7H   FF55BFH   000009H   BYTE   INSEG    CODE           ?PR?CMN_CMDHAL_SETPMUMPKSETTING?COMMON_CMD_HDLR
FF55C0H   FF55D8H   000019H   BYTE   INSEG    CODE           ?PR?CMN_CMDHAL_SETPMUOPMODE?COMMON_CMD_HDLR
FF55D9H   FF55F3H   00001BH   BYTE   INSEG    CODE           ?PR?CMN_CMDHAL_SETRSSIOFFSET?COMMON_CMD_HDLR
FF55F4H   FF5616H   000023H   BYTE   INSEG    CODE           ?PR?CMN_CMDHAL_SETAGC?COMMON_CMD_HDLR
FF5617H   FF5639H   000023H   BYTE   INSEG    CODE           ?PR?HALRF_TXPWRCOMPSET?HAL_RF
FF563AH   FF5684H   00004BH   BYTE   INSEG    CODE           ?PR?HALRF_TXPWRCOMPUPDATE?HAL_RF
FF5685H   FF56A9H   000025H   BYTE   INSEG    CODE           ?PR?CMN_CMDHAL_SETTXPOWERBY?COMMON_CMD_HDLR
FF56AAH   FF56D2H   000029H   BYTE   INSEG    CODE           ?PR?HALRF_TXPWRCHCOMPSET?HAL_RF
FF56D3H   FF5705H   000033H   BYTE   INSEG    CODE           ?PR?CMN_CMDHAL_SETCALIBRATIONSETTING?COMMON_CMD_HDLR
FF5706H   FF5739H   000034H   BYTE   INSEG    CODE           ?PR?CMN_CMDHAL_SETTXPOWER?COMMON_CMD_HDLR
FF573AH   FF576FH   000036H   BYTE   INSEG    CODE           ?PR?CMN_CMDHAL_SETTXPOWEROQPSK?COMMON_CMD_HDLR
FF5770H   FF57C1H   000052H   BYTE   INSEG    CODE           ?PR?PCI_SETFSKMAC?MAC_CMD_HDLR
FF57C2H   FF57CAH   000009H   BYTE   INSEG    CODE           ?PR?HALMAC_WHITENINITDFTGET?HAL_MAC
FF57CBH   FF57E5H   00001BH   BYTE   INSEG    CODE           ?PR?HALMAC_CRCINITDFTGET?HAL_MAC
FF57E6H   FF57F5H   000010H   BYTE   INSEG    CODE           ?PR?MSG_OUTMSGFORCEHANDLE?MSG_CTRL
FF57F6H   FF582DH   000038H   BYTE   INSEG    CODE           ?PR?Q_INIT?SYS_QCTRL
FF582EH   FF5847H   00001AH   BYTE   INSEG    CODE           ?PR?Q_MEMFREECOUNT?SYS_QCTRL
FF5848H   FF5854H   00000DH   BYTE   INSEG    CODE           ?PR?Q_MEMFREE?SYS_QCTRL
FF5855H   FF586AH   000016H   BYTE   INSEG    CODE           ?PR?Q_QLENGET?SYS_QCTRL
FF586BH   FF58A4H   00003AH   BYTE   INSEG    CODE           ?PR?Q_QCHAGETYPE?SYS_QCTRL
L251 LINKER/LOCATER V4.66.93.0                                                        07/01/2025  14:01:01  PAGE 10


FF58A5H   FF5940H   00009CH   BYTE   INSEG    CODE           ?PR?Q_QREMOVE?SYS_QCTRL
FF5941H   FF59FEH   0000BEH   BYTE   INSEG    CODE           ?PR?Q_QPUSHFRONT?SYS_QCTRL
FF59FFH   FF5A7EH   000080H   BYTE   INSEG    CODE           ?PR?Q_QMOVEBACK?SYS_QCTRL
FF5A7FH   FF5AEEH   000070H   BYTE   INSEG    CODE           ?PR?RTC_TIMERCONFIG?SYS_RTC
FF5AEFH   FF5B5CH   00006EH   BYTE   INSEG    CODE           ?PR?PCI_SET15P4CSLRECEIVERCTRL?MAC_CMD_HDLR
FF5B5DH   FF5BDBH   00007FH   BYTE   INSEG    CODE           ?PR?PCI_PARSE15P4SWMACCMD?MAC_CMD_HDLR
FF5BDCH   FF5C0DH   000032H   BYTE   INSEG    CODE           ?PR?PCI_PARSE15P4SMENABLE?MAC_CMD_HDLR
FF5C0EH   FF5C1DH   000010H   BYTE   INSEG    CODE           ?PR?MAC_SRCMATCH_ENABLE?MAC_SRCMATCH
FF5C1EH   FF5CBEH   0000A1H   BYTE   INSEG    CODE           ?PR?PCI_PARSET15P4SMENTRYCTRL?MAC_CMD_HDLR
FF5CBFH   FF5D6DH   0000AFH   BYTE   INSEG    CODE           ?PR?PCI_SETRFBAUTOSTATE?MAC_CMD_HDLR
FF5D6EH   FF5E25H   0000B8H   BYTE   INSEG    CODE           ?PR?PCI_PARSE15P4ADDRESSFILTER?MAC_CMD_HDLR
FF5E26H   FF5E48H   000023H   BYTE   INSEG    CODE           ?PR?REVERSE_UINT32CPY?MAC_CMD_HDLR
FF5E49H   FF5F04H   0000BCH   BYTE   INSEG    CODE           ?PR?PCI_SETRFERXENABLECMD?MAC_CMD_HDLR
FF5F05H   FF5F4FH   00004BH   BYTE   INSEG    CODE           ?PR?PCI_RFERXPARACHECK?MAC_CMD_HDLR
FF5F50H   FF5F5CH   00000DH   BYTE   INSEG    CODE           ?PR?PCI_GET15P4CSLACCURACY?MAC_CMD_HDLR
FF5F5DH   FF5F69H   00000DH   BYTE   INSEG    CODE           ?PR?PCI_GET15P4CSLUNCERTAINTY?MAC_CMD_HDLR
FF5F6AH   FF5F7BH   000012H   BYTE   INSEG    CODE           ?PR?PCI_PARSE15P4AUTOACK?MAC_CMD_HDLR
FF5F7CH   FF5F8EH   000013H   BYTE   INSEG    CODE           ?PR?RTC_TIMERWAKEUPDISABLE?SYS_RTC
FF5F8FH   FF5FA1H   000013H   BYTE   INSEG    CODE           ?PR?HAL_ISBLEHW?HAL
FF5FA2H   FF5FBFH   00001EH   BYTE   INSEG    CODE           ?PR?MAC_SRCMATCH_LISTMODIFY?MAC_SRCMATCH
FF5FC0H   FF5FE0H   000021H   BYTE   INSEG    CODE           ?PR?MAC_SRCMATCH_LISTFINDIDX?MAC_SRCMATCH
FF5FE1H   FF5FEAH   00000AH   BYTE   INSEG    CODE           ?PR?RTC_WAITFORTRIGGERED?SYS_RTC
FF5FEBH   FF6010H   000026H   BYTE   INSEG    CODE           ?PR?RTC_TRIGGERWITHINUS?SYS_RTC
FF6011H   FF605AH   00004AH   BYTE   INSEG    CODE           ?PR?RTC_INIT?SYS_RTC
FF605BH   FF6066H   00000CH   BYTE   UNIT     CODE           ?L?COM002D
FF6067H   FF60ECH   000086H   BYTE   INSEG    CODE           ?PR?MAC_RXSCAN_HWREGRESTORE?MAC_RX_SCAN
FF60EDH   FF6104H   000018H   BYTE   UNIT     CODE           ?L?COM000F
FF6105H   FF6153H   00004FH   BYTE   INSEG    CODE           ?PR?HALRF_TXPWRCOMPSET2HW?HAL_RT569MP_RF
FF6154H   FF6182H   00002FH   BYTE   INSEG    CODE           ?PR?HAL_ISSUBGRF?HAL
FF6183H   FF6354H   0001D2H   BYTE   INSEG    CODE           ?PR?HALPHY_TXENABLE?HAL_PHY
FF6355H   FF6356H   000002H   BYTE   INSEG    CODE           ?PR?MAC_RXSCAN_HWDEINIT?MAC_RX_SCAN
FF6357H   FF6362H   00000CH   BYTE   UNIT     CODE           ?L?COM002C
FF6363H   FF636EH   00000CH   BYTE   UNIT     CODE           ?L?COM003F
FF636FH   FF637AH   00000CH   BYTE   UNIT     CODE           ?L?COM0041
FF637BH   FF6404H   00008AH   BYTE   INSEG    CODE           ?PR?HALRFK_PARARECOVER?HAL_RT569MP_RFK
FF6405H   FF64C7H   0000C3H   BYTE   INSEG    CODE           ?PR?HALRFK_RFTXCFG?HAL_RT569MP_RFK
FF64C8H   FF64DFH   000018H   BYTE   UNIT     CODE           ?L?COM001C
FF64E0H   FF6596H   0000B7H   BYTE   INSEG    CODE           ?PR?HALRFK_LBPATHENABLE?HAL_RT569MP_RFK
FF6597H   FF65C4H   00002EH   BYTE   UNIT     CODE           ?L?COM0007
FF65C5H   FF6641H   00007DH   BYTE   INSEG    CODE           ?PR?HALRFK_RXENABLE?HAL_RT569MP_RFK
FF6642H   FF6673H   000032H   BYTE   INSEG    CODE           ?PR?HALRF_ALLPATHDISABLE?HAL_RF
FF6674H   FF66ADH   00003AH   BYTE   INSEG    CODE           ?PR?HALPHY_FSKRXPARASET?HAL_PHY
FF66AEH   FF671CH   00006FH   BYTE   INSEG    CODE           ?PR?HALRF_PLLCFG?HAL_RT569MP_RF
FF671DH   FF675AH   00003EH   BYTE   INSEG    CODE           ?PR?HALPHY_RXENABLE?HAL_PHY
FF675BH   FF675BH   000001H   BYTE   INSEG    CODE           ?PR?RTC_NULLHDLR?SYS_RTC
FF675CH   FF6768H   00000DH   BYTE   INSEG    CODE           ?PR?RTC_ISRHDLR?SYS_RTC
FF6769H   FF6828H   0000C0H   BYTE   INSEG    CODE           ?PR?COMMON_ISRBMUTXQADD?_?COMMON_ISR
FF6829H   FF68D4H   0000ACH   BYTE   INSEG    CODE           ?PR?COMMON_ISRBMUTXQGETBYHANDLE?_?COMMON_ISR
FF68D5H   FF6979H   0000A5H   BYTE   INSEG    CODE           ?PR?COMMON_ISRBMUTXQPCIGET?COMMON_ISR
FF697AH   FF69ABH   000032H   BYTE   INSEG    CODE           ?PR?MAC_INTEVENTQUEUECLEARTXDATA?MAC
FF69ACH   FF69C3H   000018H   BYTE   INSEG    CODE           ?PR?MACTXFREEBMUDATA?MAC_TARSCHEDULE
FF69C4H   FF6A48H   000085H   BYTE   INSEG    CODE           ?PR?MAC_TXDONEEVENTGEN?MAC_TARSCHEDULE
FF6A49H   FF6B5BH   000113H   BYTE   INSEG    CODE           ?PR?MAC_TAR_SCHWAITNORMALRXMSGHDLR?MAC_TARSCHEDULE
FF6B5CH   FF6BE7H   00008CH   BYTE   INSEG    CODE           ?PR?INTERCOM_MAXCCATIMECAL?MAC_TARSCHEDULE
FF6BE8H   FF6D67H   000180H   BYTE   INSEG    CODE           ?PR?MAC_TAR_SCHCONFIGHDLR?MAC_TARSCHEDULE
FF6D68H   FF6DECH   000085H   BYTE   INSEG    CODE           ?PR?HALMAC_TXTYPESET?HAL_MAC
FF6DEDH   FF6F93H   0001A7H   BYTE   INSEG    CODE           ?PR?MAC_TAR_SCHWAITCCADONEHDLR?MAC_TARSCHEDULE
FF6F94H   FF6FA4H   000011H   BYTE   INSEG    CODE           ?PR?MAC_TXSTART?MAC_TARSCHEDULE
FF6FA5H   FF6FD2H   00002EH   BYTE   INSEG    CODE           ?PR?MAC_TXTASKSET?MAC_TARSCHEDULE
FF6FD3H   FF6FDDH   00000BH   BYTE   INSEG    CODE           ?PR?MAC_HTRP_SEND_TX_DONE?MAC_HTRP_CONTROL
FF6FDEH   FF6FEAH   00000DH   BYTE   INSEG    CODE           ?PR?MAC_ISR_REG_CB?MAC_ISR
FF6FEBH   FF7159H   00016FH   BYTE   INSEG    CODE           ?PR?COMMON_ISRBMUTXQDELETEALLBYCONDITION?_?COMMON_ISR
FF715AH   FF71E3H   00008AH   BYTE   INSEG    CODE           ?PR?COMMON_ISRBMUTXQDELETEBYPTR?_?COMMON_ISR
FF71E4H   FF7253H   000070H   BYTE   INSEG    CODE           ?PR?COMMON_ISRBMUTXQINIT?COMMON_ISR
FF7254H   FF725DH   00000AH   BYTE   INSEG    CODE           ?PR?COMMON_ISRBMUHANDLER?COMMON_ISR
L251 LINKER/LOCATER V4.66.93.0                                                        07/01/2025  14:01:01  PAGE 11


FF725EH   FF7329H   0000CCH   BYTE   INSEG    CODE           ?PR?BMU_MEMALLOCATE?BMU
FF732AH   FF7351H   000028H   BYTE   INSEG    CODE           ?PR?BMU_LRXHWBUFCONFIG?BMU_RX
FF7352H   FF73D4H   000083H   BYTE   INSEG    CODE           ?PR?BMU_LRXSHAREQCONFIG?BMU_RX
FF73D5H   FF7461H   00008DH   BYTE   INSEG    CODE           ?PR?BMU_HWRESET?BMU
FF7462H   FF7503H   0000A2H   BYTE   INSEG    CODE           ?PR?BMU_HWINIT?BMU
FF7504H   FF751AH   000017H   BYTE   INSEG    CODE           ?PR?BMU_TXQSTATUSUPD?BMU_TX
FF751BH   FF7564H   00004AH   BYTE   INSEG    CODE           ?PR?BMU_FREQFLOWCTRLSET?BMU
FF7565H   FF75DCH   000078H   BYTE   INSEG    CODE           ?PR?BMU_H2MCMDGET?BMU_CMD
FF75DDH   FF7660H   000084H   BYTE   INSEG    CODE           ?PR?BMU_M2HCMDSET?BMU_CMD
FF7661H   FF776EH   00010EH   BYTE   INSEG    CODE           ?PR?BMU_TRXQUEUEGET?BMU_COMMON
FF776FH   FF77C9H   00005BH   BYTE   INSEG    CODE           ?PR?BMU_TXQUEUEGET?BMU_TX
FF77CAH   FF77D7H   00000EH   BYTE   UNIT     CODE           ?L?COM0019
FF77D8H   FF78E5H   00010EH   BYTE   INSEG    CODE           ?PR?BMU_TRXQUEUESET?BMU_COMMON
FF78E6H   FF7907H   000022H   BYTE   INSEG    CODE           ?PR?BMU_LOCALRXQSTARTADDGET?BMU_RX
FF7908H   FF7929H   000022H   BYTE   INSEG    CODE           ?PR?BMU_RXQSTARTADDGET?BMU_RX
FF792AH   FF792AH   000001H   BYTE   INSEG    CODE           ?PR?BMU_LRXHWBUFSTATUSUPDATE?BMU_RX
FF792BH   FF792EH   000004H   BYTE   INSEG    CODE           ?PR?MAC_HTRP_UPDATE_LRX_BUF_STATUS?MAC_HTRP_CONTROL
FF792FH   FF793AH   00000CH   BYTE   INSEG    CODE           ?PR?BMU_LRXHWBUFSET?BMU_RX
FF793BH   FF79DBH   0000A1H   BYTE   INSEG    CODE           ?PR?MAC_HTRP_TX_SLOT_RX_DONE?MAC_HTRP_TX
FF79DCH   FF7A01H   000026H   BYTE   INSEG    CODE           ?PR?MAC_HTRP_CTRL_INCREASE_SLOT_INDEX?MAC_HTRP_CONTROL
FF7A02H   FF7AC1H   0000C0H   BYTE   INSEG    CODE           ?PR?MAC_HTRP_TX_PERIOD_BURST_RX_DONE?MAC_HTRP_TX
FF7AC2H   FF7AF0H   00002FH   BYTE   INSEG    CODE           ?PR?MAC_HTRP_CTRL_INCREASE_CHANNEL_INDEX?MAC_HTRP_CONTROL
FF7AF1H   FF7D0CH   00021CH   BYTE   INSEG    CODE           ?PR?MAC_HTRP_RX_SET_PERIOD_NEXT_TASK?MAC_HTRP_RX
FF7D0DH   FF7D94H   000088H   BYTE   INSEG    CODE           ?PR?MAC_HTRP_RX_CAL_DRIFT_TIME?MAC_HTRP_RX
FF7D95H   FF7E55H   0000C1H   BYTE   INSEG    CODE           ?PR?MAC_HTRP_RX_SET_NEXT_TASK_AND_CHANNEL?MAC_HTRP_RX
FF7E56H   FF7E7AH   000025H   BYTE   INSEG    CODE           ?PR?MAC_HTRP_RX_BURST_RX_DONE?MAC_HTRP_RX
FF7E7BH   FF7EC6H   00004CH   BYTE   INSEG    CODE           ?PR?MAC_HTRP_TX_BURST_TX_DONE?MAC_HTRP_TX
FF7EC7H   FF7F87H   0000C1H   BYTE   INSEG    CODE           ?PR?MAC_HTRP_TX_SET_RF_TASK?MAC_HTRP_TX
FF7F88H   FF7FE1H   00005AH   BYTE   INSEG    CODE           ?PR?MAC_HTRP_RX_PERIOD_RX_DONE?MAC_HTRP_RX
FF7FE2H   FF7FE9H   000008H   BYTE   UNIT     CODE           ?L?COM0052
FF7FEAH   FF7FF1H   000008H   BYTE   INSEG    CODE           ?PR?MAC_HTRP_RX_SLOT_TX_DONE?MAC_HTRP_RX
FF7FF2H   FF8041H   000050H   BYTE   INSEG    CODE           ?PR?BMU_LRXSHAREQISFULL?BMU_RX
FF8042H   FF8063H   000022H   BYTE   INSEG    CODE           ?PR?BMU_LOCALTXQSTARTADDGET?BMU_TX
FF8064H   FF8086H   000023H   BYTE   INSEG    CODE           ?PR?BMU_TXQSTARTADDGET?BMU_TX
FF8087H   FF80AAH   000024H   BYTE   INSEG    CODE           ?PR?BMU_TXQSTATUSRECOVERY?BMU_TX
FF80ABH   FF80E2H   000038H   BYTE   INSEG    CODE           ?PR?BMU_TXQPKTSEARCH?BMU_TX
FF80E3H   FF817BH   000099H   BYTE   INSEG    CODE           ?PR?BMU_TXPKTLENGTHGET?BMU_TX
FF817CH   FF8216H   00009BH   BYTE   INSEG    CODE           ?PR?BMU_TXCONFIG?BMU_TX
FF8217H   FF827EH   000068H   BYTE   INSEG    CODE           ?PR?MAC_TXHWSET?MAC_TARSCHEDULE
FF827FH   FF82DEH   000060H   BYTE   INSEG    CODE           ?PR?MAC_SECLBHWSET?MAC_TARSCHEDULE
FF82DFH   FF82F7H   000019H   BYTE   INSEG    CODE           ?PR?HALMAC_CRCLENCFGGET?HAL_MAC
FF82F8H   FF834EH   000057H   BYTE   INSEG    CODE           ?PR?HALMAC_RXPAYLOADLENGET?HAL_MAC
FF834FH   FF864DH   0002FFH   BYTE   INSEG    CODE           ?PR?MAC_RFERXSCHEDULE?MAC_RFERX
FF864EH   FF865CH   00000FH   BYTE   INSEG    CODE           ?PR?MAC_RFERXAONTASKDISABLE?MAC_RFERX
FF865DH   FF86EDH   000091H   BYTE   INSEG    CODE           ?PR?PCI_SETPHR?MAC_CMD_HDLR
FF86EEH   FF8723H   000036H   BYTE   INSEG    CODE           ?PR?RXTASK_ALWAYSON_SET?MAC_TASK_CTRL
FF8724H   FF8786H   000063H   BYTE   INSEG    CODE           ?PR?MAC_RFESECLBHWSET?MAC_RFERX
FF8787H   FF878EH   000008H   BYTE   INSEG    CODE           ?PR?HAL_HWMODEGET?HAL
FF878FH   FF87B0H   000022H   BYTE   INSEG    CODE           ?PR?HALMAC_PHRLENCFGGET?HAL_MAC
FF87B1H   FF87DAH   00002AH   BYTE   INSEG    CODE           ?PR?HALMAC_MAXPAYLOADLENGET?HAL_MAC
FF87DBH   FF8852H   000078H   BYTE   INSEG    CODE           ?PR?HALSEC_AESSET?HAL_SEC
FF8853H   FF888CH   00003AH   BYTE   INSEG    CODE           ?PR?BMU_LOCALTXQUEUEGET?BMU_TX
FF888DH   FF8917H   00008BH   BYTE   INSEG    CODE           ?PR?BMU_LOCALTXQUEUESET?BMU_TX
FF8918H   FF89B0H   000099H   BYTE   INSEG    CODE           ?PR?MAC_RFETXPARINIT?MAC_RFETX
FF89B1H   FF8A4FH   00009FH   BYTE   INSEG    CODE           ?PR?PCI_SETRFETXENABLECMD?MAC_CMD_HDLR
FF8A50H   FF8B1AH   0000CBH   BYTE   INSEG    CODE           ?PR?MAC_ACKSET?MAC_RAASCHEDULE
FF8B1BH   FF8B5FH   000045H   BYTE   INSEG    CODE           ?PR?MAC_GENACK?MAC_RAASCHEDULE
FF8B60H   FF8BD0H   000071H   BYTE   INSEG    CODE           ?PR?MAC_RFERXPARINIT?MAC_RFERX
FF8BD1H   FF8C69H   000099H   BYTE   INSEG    CODE           ?PR?MAC_RFEDATAGEN?MAC_RFETX
FF8C6AH   FF8D24H   0000BBH   BYTE   INSEG    CODE           ?PR?PCI_RFETXPARACHECK?MAC_CMD_HDLR
FF8D25H   FF8D81H   00005DH   BYTE   INSEG    CODE           ?PR?BMU_TXQUEUESET?BMU_TX
FF8D82H   FF8E06H   000085H   BYTE   INSEG    CODE           ?PR?BMU_TXQUEUECLEAR?BMU_TX
FF8E07H   FF8E77H   000071H   BYTE   INSEG    CODE           ?PR?BMU_PRIVACYIRKCLR?BMU_BLE
FF8E78H   FF8EB0H   000039H   BYTE   INSEG    CODE           ?PR?BMU_PRIVACYIRKSET?BMU_BLE
FF8EB1H   FF8F3EH   00008EH   BYTE   INSEG    CODE           ?PR?BMU_PRIVACYLOCALRPAGEN?BMU_BLE
L251 LINKER/LOCATER V4.66.93.0                                                        07/01/2025  14:01:01  PAGE 12


FF8F3FH   FF8F77H   000039H   BYTE   INSEG    CODE           ?PR?BMU_PRIVACYIRKSINGLESEARCH?BMU_BLE
FF8F78H   FF8FACH   000035H   BYTE   INSEG    CODE           ?PR?BMU_PRIVACYIRKGET?BMU_BLE
FF8FADH   FF902EH   000082H   BYTE   INSEG    CODE           ?PR?BMU_PRIVACYIRKFULLSEARCH?BMU_BLE
FF902FH   FF905BH   00002DH   BYTE   INSEG    CODE           ?PR?MAC_INTEVENTQGET?_?MAC
FF905CH   FF9091H   000036H   BYTE   INSEG    CODE           ?PR?MAC?MAC
FF9092H   FF90A5H   000014H   BYTE   INSEG    CODE           ?PR?MAC_RAASCHEDULE?MAC_RAASCHEDULE
FF90A6H   FF90B9H   000014H   BYTE   INSEG    CODE           ?PR?MAC_TARSCHEDULE?MAC_TARSCHEDULE
FF90BAH   FF90EDH   000034H   BYTE   INSEG    CODE           ?PR?MAC_CHECKBMUERR?MAC
FF90EEH   FF9168H   00007BH   BYTE   INSEG    CODE           ?PR?PCIHTRPHWSTATUSEVENTDONEEVENTSENDTOMSGQUEUE?MAC_EVENT_
                                                             -GEN
FF9169H   FF9174H   00000CH   BYTE   INSEG    CODE           ?PR?MAC_FUNEVENTQINIT?MAC
FF9175H   FF9180H   00000CH   BYTE   INSEG    CODE           ?PR?MAC_INTEVENTQINIT?MAC
FF9181H   FF93B0H   000230H   BYTE   INSEG    CODE           ?PR?MAC_TRXPAR_INIT?MAC
FF93B1H   FF93BFH   00000FH   BYTE   INSEG    CODE           ?PR?MAC_INTEVENTQUEUEEXIST?MAC
FF93C0H   FF9465H   0000A6H   BYTE   INSEG    CODE           ?PR?PANIDPRESENT?MAC_FRAME_PARSE
FF9466H   FF965FH   0001FAH   BYTE   INSEG    CODE           ?PR?MAC_PARSEHDR?MAC_FRAME_PARSE
FF9660H   FF9669H   00000AH   BYTE   INSEG    CODE           ?PR?MAC_MHRPARSE?MAC_RAASCHEDULE
FF966AH   FF969FH   000036H   BYTE   INSEG    CODE           ?PR?MAC_ORG_RX_DONE_HANDLER?MAC_RAASCHEDULE
FF96A0H   FF96B4H   000015H   BYTE   INSEG    CODE           ?PR?INTERCOM_HRPARSE?MAC_RAASCHEDULE
FF96B5H   FF9745H   000091H   BYTE   INSEG    CODE           ?PR?MAC_ISRHANDLER?MAC_ISR
FF9746H   FF9751H   00000CH   BYTE   INSEG    CODE           ?PR?MAC_BMUISRINIT?MAC_ISR
FF9752H   FF97A3H   000052H   BYTE   INSEG    CODE           ?PR?PCI_SETRFFREQ?MAC_CMD_HDLR
FF97A4H   FF97EDH   00004AH   BYTE   INSEG    CODE           ?PR?PCI_SETRXTASKPARA?MAC_CMD_HDLR
FF97EEH   FF9803H   000016H   BYTE   INSEG    CODE           ?PR?PCI_SETRFETXDISABLECMD?MAC_CMD_HDLR
FF9804H   FF9822H   00001FH   BYTE   INSEG    CODE           ?PR?PCI_SETRFSLEEP?MAC_CMD_HDLR
FF9823H   FF9838H   000016H   BYTE   INSEG    CODE           ?PR?PCI_SETRFIDLE?MAC_CMD_HDLR
FF9839H   FF9884H   00004CH   BYTE   INSEG    CODE           ?PR?PCI_SETCLOCKMODE?MAC_CMD_HDLR
FF9885H   FF9897H   000013H   BYTE   INSEG    CODE           ?PR?PCI_SETGAUSSIANFILTERTYPE?MAC_CMD_HDLR
FF9898H   FF992CH   000095H   BYTE   INSEG    CODE           ?PR?PCI_SET2CHSCANFREQ?MAC_CMD_HDLR
FF992DH   FF996EH   000042H   BYTE   INSEG    CODE           ?PR?PCI_SETFSKMODEM?MAC_CMD_HDLR
FF996FH   FF9991H   000023H   BYTE   INSEG    CODE           ?PR?PCI_BLECMDINITBLE?MAC_CMD_HDLR
FF9992H   FF99F6H   000065H   BYTE   INSEG    CODE           ?PR?PCI_PARSEBLECMD?MAC_CMD_HDLR
FF99F7H   FF9A13H   00001DH   BYTE   INSEG    CODE           ?PR?PCI_BLEPHY_SETHTRP_DISABLE?MAC_CMD_HDLR
FF9A14H   FF9A31H   00001EH   BYTE   INSEG    CODE           ?PR?PCI_BLEPHY_SETHTRP_RX_ENABLE?MAC_CMD_HDLR
FF9A32H   FF9A61H   000030H   BYTE   INSEG    CODE           ?PR?PCI_BLEPHY_SETHTRP_SEC?MAC_CMD_HDLR
FF9A62H   FF9A98H   000037H   BYTE   INSEG    CODE           ?PR?PCI_BLEPHY_SETHTRP_MAP_CHANNEL?MAC_CMD_HDLR
FF9A99H   FF9B4BH   0000B3H   BYTE   INSEG    CODE           ?PR?PCI_BLECMDSETBLEMODEM?MAC_CMD_HDLR
FF9B4CH   FF9B57H   00000CH   BYTE   UNIT     CODE           ?L?COM0040
FF9B58H   FF9B67H   000010H   BYTE   INSEG    CODE           ?PR?MAC_HTRP_RESET_RX_CONN_STATUS?MAC_HTRP_CONTROL
FF9B68H   FF9B7BH   000014H   BYTE   INSEG    CODE           ?PR?MAC_HTRP_SET_DISABLE?MAC_HTRP_CONTROL
FF9B7CH   FF9B9CH   000021H   BYTE   INSEG    CODE           ?PR?MAC_HTRP_SET_SEC_PARA?MAC_HTRP_CONTROL
FF9B9DH   FF9BC1H   000025H   BYTE   INSEG    CODE           ?PR?PCI_BLEPHY_SETHTRP_TX_ENABLE?MAC_CMD_HDLR
FF9BC2H   FF9C04H   000043H   BYTE   INSEG    CODE           ?PR?PCI_BLEPHY_SETHTRP_INITIATE?MAC_CMD_HDLR
FF9C05H   FF9C51H   00004DH   BYTE   INSEG    CODE           ?PR?MAC_HTRP_CTRL_SET_CHANNEL_MAP_FROM_BMU?MAC_HTRP_CONTRO
                                                             -L
FF9C52H   FF9CF4H   0000A3H   BYTE   INSEG    CODE           ?PR?PCI_BLEPHY_SETHTRP_PARA?MAC_CMD_HDLR
FF9CF5H   FF9D67H   000073H   BYTE   INSEG    CODE           ?PR?PCI_INITZIGBEE?MAC_CMD_HDLR
FF9D68H   FF9DB0H   000049H   BYTE   INSEG    CODE           ?PR?PCI_PARSE15P4MACPIB?MAC_CMD_HDLR
FF9DB1H   FF9DE9H   000039H   BYTE   INSEG    CODE           ?PR?PCI_PARSE15P4PHYPIB?MAC_CMD_HDLR
FF9DEAH   FF9E24H   00003BH   BYTE   INSEG    CODE           ?PR?PCI_UPDATE15P4CSLSAMPLETIME?MAC_CMD_HDLR
FF9E25H   FF9E62H   00003EH   BYTE   INSEG    CODE           ?PR?PCI_OQPSKCMDSETOQPSKMODEM?MAC_CMD_HDLR
FF9E63H   FF9EB6H   000054H   BYTE   INSEG    CODE           ?PR?PCI_OQPSKCMDSETOQPSKMAC?MAC_CMD_HDLR
FF9EB7H   FF9ED9H   000023H   BYTE   INSEG    CODE           ?PR?HALMAC_WHITENSET?HAL_MAC
FF9EDAH   FF9F18H   00003FH   BYTE   INSEG    CODE           ?PR?HALMAC_CRCSET?HAL_MAC
FF9F19H   FF9F93H   00007BH   BYTE   INSEG    CODE           ?PR?MAC_CHECKRFFREQ?MAC_CMD_HDLR
FF9F94H   FF9FCAH   000037H   BYTE   INSEG    CODE           ?PR?GET_INTERCOM_MODE_STATUS?MAC_CMD_HDLR
FF9FCBH   FF9FFDH   000033H   BYTE   INSEG    CODE           ?PR?GET_SWITCH_TX_FREQ?MAC_CMD_HDLR
FF9FFEH   FFA00BH   00000EH   BYTE   INSEG    CODE           ?PR?RXTASK_RXTIMER_SET?MAC_TASK_CTRL
FFA00CH   FFA058H   00004DH   BYTE   INSEG    CODE           ?PR?RXTASK_TIMEOUT_SET?MAC_TASK_CTRL
FFA059H   FFA07BH   000023H   BYTE   INSEG    CODE           ?PR?MAC_RXSCAN_TASKSTART?MAC_RX_SCAN
FFA07CH   FFA2BAH   00023FH   BYTE   INSEG    CODE           ?PR?MAC_RAA_SCHCONFIGHDLR?MAC_RAASCHEDULE
FFA2BBH   FFA322H   000068H   BYTE   INSEG    CODE           ?PR?MAC_RXSCAN_HWINIT?MAC_RX_SCAN
FFA323H   FFA32FH   00000DH   BYTE   INSEG    CODE           ?PR?MAC_RXSCAN_CONFIG?MAC_RX_SCAN
FFA330H   FFA35AH   00002BH   BYTE   INSEG    CODE           ?PR?MAC_RXSCAN_PLLALWAYSON?MAC_RX_SCAN
FFA35BH   FFA3E7H   00008DH   BYTE   INSEG    CODE           ?PR?MAC_RXSCAN_HWREGBACKUP?MAC_RX_SCAN
L251 LINKER/LOCATER V4.66.93.0                                                        07/01/2025  14:01:01  PAGE 13


FFA3E8H   FFA455H   00006EH   BYTE   INSEG    CODE           ?PR?TXCONTTASK_SET?MAC_TASK_CTRL
FFA456H   FFA461H   00000CH   BYTE   UNIT     CODE           ?L?COM0047
FFA462H   FFA4A7H   000046H   BYTE   INSEG    CODE           ?PR?MAC_RFETXTASKSET?MAC_RFETX
FFA4A8H   FFA4ECH   000045H   BYTE   INSEG    CODE           ?PR?TXTASK_SET?MAC_TASK_CTRL
FFA4EDH   FFA520H   000034H   BYTE   INSEG    CODE           ?PR?TXRTCTASK_SET?MAC_TASK_CTRL
FFA521H   FFA613H   0000F3H   BYTE   INSEG    CODE           ?PR?PCIDATACONTROLFIELDPARSE?RUCI_DATA_PARSE
FFA614H   FFA644H   000031H   BYTE   INSEG    CODE           ?PR?PCIBURSTTXDONEEVENTSENDTOMSGQUEUE?MAC_EVENT_GEN
FFA645H   FFA67DH   000039H   BYTE   INSEG    CODE           ?PR?PCIHTRPCONNTOEVENTDONEEVENTSENDTOMSGQUEUE?MAC_EVENT_GE
                                                             -N
FFA67EH   FFA6C2H   000045H   BYTE   INSEG    CODE           ?PR?PCIHTRPPEREVENTDONEEVENTSENDTOMSGQUEUE?MAC_EVENT_GEN
FFA6C3H   FFA6C3H   000001H   BYTE   INSEG    CODE           ?PR?MAC_RAA_SCHINITHDLR?MAC_RAASCHEDULE
FFA6C4H   FFA723H   000060H   BYTE   INSEG    CODE           ?PR?MAC_RAA_SCHWAITRXDONEHDLR?MAC_RAASCHEDULE
FFA724H   FFA75AH   000037H   BYTE   INSEG    CODE           ?PR?MAC_RXSCAN_TASKRESTART?MAC_RX_SCAN
FFA75BH   FFA78BH   000031H   BYTE   INSEG    CODE           ?PR?MAC_RAA_SCHWAITTXDONEHDLR?MAC_RAASCHEDULE
FFA78CH   FFA78CH   000001H   BYTE   INSEG    CODE           ?PR?MAC_RAA_SCHWAITRESUMEHDLR?MAC_RAASCHEDULE
FFA78DH   FFA7ECH   000060H   BYTE   INSEG    CODE           ?PR?MAC_RAA_SCHENDHDLR?MAC_RAASCHEDULE
FFA7EDH   FFA7EDH   000001H   BYTE   INSEG    CODE           ?PR?MAC_RAA_SCHRESERVEDHDLR?MAC_RAASCHEDULE
FFA7EEH   FFA80AH   00001DH   BYTE   INSEG    CODE           ?PR?MAC_ORG_MHR_DONE_HANDLER?MAC_RAASCHEDULE
FFA80BH   FFA871H   000067H   BYTE   INSEG    CODE           ?PR?MAC_GENACKFRMCTRL?MAC_RAASCHEDULE
FFA872H   FFA87CH   00000BH   BYTE   INSEG    CODE           ?PR?MOD_REPLACE?MAC_RAASCHEDULE
FFA87DH   FFA8BDH   000041H   BYTE   INSEG    CODE           ?PR?MAC_GETCSLPHASE?MAC_RAASCHEDULE
FFA8BEH   FFA92EH   000071H   BYTE   INSEG    CODE           ?PR?MAC_NONCEGEN?MAC_RAASCHEDULE
FFA92FH   FFAB71H   000243H   BYTE   INSEG    CODE           ?PR?MAC_FILTER?_?MAC_RAASCHEDULE
FFAB72H   FFAB72H   000001H   BYTE   INSEG    CODE           ?PR?MAC_TAR_SCHINITHDLR?MAC_TARSCHEDULE
FFAB73H   FFAC1AH   0000A8H   BYTE   INSEG    CODE           ?PR?MAC_TAR_SCHWAITTXDONEHDLR?MAC_TARSCHEDULE
FFAC1BH   FFAC6DH   000053H   BYTE   INSEG    CODE           ?PR?MAC_TAR_SCHWAITACKRXMHRHDLR?MAC_TARSCHEDULE
FFAC6EH   FFACAAH   00003DH   BYTE   INSEG    CODE           ?PR?MAC_TAR_SCHWAITNORMALACKDONEHDLR?MAC_TARSCHEDULE
FFACABH   FFACDAH   000030H   BYTE   INSEG    CODE           ?PR?MAC_TAR_SCHENDHDLR?MAC_TARSCHEDULE
FFACDBH   FFACDBH   000001H   BYTE   INSEG    CODE           ?PR?MAC_TAR_SCHRESERVEDHDLR?MAC_TARSCHEDULE
FFACDCH   FFACE2H   000007H   BYTE   INSEG    CODE           ?PR?MAC_ORG_TX_DONE_HANDLER?MAC_TARSCHEDULE
FFACE3H   FFACFBH   000019H   BYTE   INSEG    CODE           ?PR?MAC_ORG_CCA_DONE_HANDLER?MAC_TARSCHEDULE
FFACFCH   FFAE29H   00012EH   BYTE   INSEG    CODE           ?PR?MAC_ACKFRAMECHECK?MAC_TARSCHEDULE
FFAE2AH   FFAEE5H   0000BCH   BYTE   INSEG    CODE           ?PR?MAC_TAR_CHECK_DATA_REQUST?MAC_TARSCHEDULE
FFAEE6H   FFAF63H   00007EH   BYTE   INSEG    CODE           ?PR?MAC_CCASTATUSGET?MAC_TARSCHEDULE
FFAF64H   FFAFACH   000049H   BYTE   INSEG    CODE           ?PR?MAC_RFERXDISABLE?MAC_RFERX
FFAFADH   FFAFBFH   000013H   BYTE   INSEG    CODE           ?PR?MAC_RFERXRPTGET?MAC_RFERX
FFAFC0H   FFB032H   000073H   BYTE   INSEG    CODE           ?PR?MAC_RFETXPKTLENUPDATE?MAC_RFETX
FFB033H   FFB082H   000050H   BYTE   INSEG    CODE           ?PR?MAC_RFETXHWSECSET?MAC_RFETX
FFB083H   FFB08DH   00000BH   BYTE   INSEG    CODE           ?PR?MAC_HTRP_CTRL_GET_CHANNEL?MAC_HTRP_CONTROL
FFB08EH   FFB0BFH   000032H   BYTE   INSEG    CODE           ?PR?MAC_HTRP_CTRL_CLEAR_PKT_CNT?MAC_HTRP_CONTROL
FFB0C0H   FFB121H   000062H   BYTE   INSEG    CODE           ?PR?MAC_HTRP_CTRL_INCREASE_PKT_CNT?MAC_HTRP_CONTROL
FFB122H   FFB14BH   00002AH   BYTE   INSEG    CODE           ?PR?MAC_HTRP_CTRL_SLOT_SYNC?MAC_HTRP_CONTROL
FFB14CH   FFB16DH   000022H   BYTE   INSEG    CODE           ?PR?MAC_HTRP_CTRL_INCREASE_CUR_BLOCK?MAC_HTRP_CONTROL
FFB16EH   FFB1F0H   000083H   BYTE   INSEG    CODE           ?PR?MAC_HTRP_TX_PERIOD_BURST_TX_DONE?MAC_HTRP_TX
FFB1F1H   FFB1F9H   000009H   BYTE   INSEG    CODE           ?PR?MAC_HTRP_TX_SLOT_TX_DONE?MAC_HTRP_TX
FFB1FAH   FFB21DH   000024H   BYTE   INSEG    CODE           ?PR?MAC_HTRP_ISR_RX_DONE_HANDLER?MAC_HTRP_CONTROL
FFB21EH   FFB26EH   000051H   BYTE   INSEG    CODE           ?PR?MAC_HTRP_CHECK_RX_VALID?MAC_HTRP_CONTROL
FFB26FH   FFB28DH   00001FH   BYTE   INSEG    CODE           ?PR?MAC_HTRP_CHECK_RX_CONN_STATUS?MAC_HTRP_CONTROL
FFB28EH   FFB2A2H   000015H   BYTE   INSEG    CODE           ?PR?MAC_HTRP_CLEAR_TX_QUEUE?MAC_HTRP_CONTROL
FFB2A3H   FFB2C5H   000023H   BYTE   INSEG    CODE           ?PR?MAC_HTRP_CTRL_INIT?MAC_HTRP_CONTROL
FFB2C6H   FFB2E6H   000021H   BYTE   INSEG    CODE           ?PR?MAC_HTRP_SLEEP_INIT?MAC_HTRP_CONTROL
FFB2E7H   FFB2ECH   000006H   BYTE   INSEG    CODE           ?PR?MAC_HTRP_RTC_ISR_HANDLER?MAC_HTRP_CONTROL
FFB2EDH   FFB32EH   000042H   BYTE   INSEG    CODE           ?PR?MAC_HTRP_SLEEP_CTRL?MAC_HTRP_CONTROL
FFB32FH   FFB357H   000029H   BYTE   INSEG    CODE           ?PR?MAC_HTRP_RX_INIT?MAC_HTRP_RX
FFB358H   FFB38BH   000034H   BYTE   INSEG    CODE           ?PR?MAC_HTRP_RX_SLOT_RX_DONE?MAC_HTRP_RX
FFB38CH   FFB393H   000008H   BYTE   UNIT     CODE           ?L?COM0043
FFB394H   FFB44EH   0000BBH   BYTE   INSEG    CODE           ?PR?MAC_SRCMATCH_LISTFINDEXTENDED?_?MAC_SRCMATCH
FFB44FH   FFB49DH   00004FH   BYTE   INSEG    CODE           ?PR?MAC_HTRP_RX_PERIOD_TX_DONE?MAC_HTRP_RX
FFB49EH   FFB4A3H   000006H   BYTE   INSEG    CODE           ?PR?MAC_HTRP_TX_INIT?MAC_HTRP_TX
FFB4A4H   FFB50BH   000068H   BYTE   INSEG    CODE           ?PR?MAC_SRCMATCH_LISTINIT?MAC_SRCMATCH
FFB50CH   FFB78EH   000283H   BYTE   INSEG    CODE           ?PR?MAC_SRCMATCH_LISTCLEAR?MAC_SRCMATCH
FFB78FH   FFB7AFH   000021H   BYTE   INSEG    CODE           ?PR?MAC_SRCMATCH_LISTADD?MAC_SRCMATCH
FFB7B0H   FFB844H   000095H   BYTE   INSEG    CODE           ?PR?MAC_SRCMATCH_LISTFINDSHORT?_?MAC_SRCMATCH
FFB845H   FFB8E5H   0000A1H   BYTE   INSEG    CODE           ?PR?MAC_SRCMATCH_LISTADDSHORT?MAC_SRCMATCH
FFB8E6H   FFB956H   000071H   BYTE   INSEG    CODE           ?PR?MAC_SRCMATCH_LISTMODIFYSHORT?MAC_SRCMATCH
L251 LINKER/LOCATER V4.66.93.0                                                        07/01/2025  14:01:01  PAGE 14


FFB957H   FFB9FAH   0000A4H   BYTE   INSEG    CODE           ?PR?MAC_SRCMATCH_LISTADDEXTENDED?MAC_SRCMATCH
FFB9FBH   FFBA6BH   000071H   BYTE   INSEG    CODE           ?PR?MAC_SRCMATCH_LISTMODIFYEXTENDED?MAC_SRCMATCH
FFBA6CH   FFBAEDH   000082H   BYTE   INSEG    CODE           ?PR?MAC_RXSCAN_GETSCANRESULT?MAC_RX_SCAN
FFBAEEH   FFBB38H   00004BH   BYTE   INSEG    CODE           ?PR?MSG_ISR?_?MSG_CTRL
FFBB39H   FFBB49H   000011H   BYTE   INSEG    CODE           ?PR?MSG_EVENTCLR?MSG_CTRL
FFBB4AH   FFBB5EH   000015H   BYTE   INSEG    CODE           ?PR?HAL_ISWISUNHW?HAL
FFBB5FH   FFBB73H   000015H   BYTE   INSEG    CODE           ?PR?HAL_ISZIGBEEHW?HAL
FFBB74H   FFBDDFH   00026CH   BYTE   INSEG    CODE           ?PR?HAL_HWINIT?HAL_RT569MP_INIT
FFBDE0H   FFBE21H   000042H   BYTE   INSEG    CODE           ?PR?HALRF_TXPWRSET2HW?HAL_RT569MP_RF
FFBE22H   FFBE8BH   00006AH   BYTE   INSEG    CODE           ?PR?HALRF_TXGAINTABLECFG?HAL_RT569MP_RF
FFBE8CH   FFBE97H   00000CH   BYTE   UNIT     CODE           ?L?COM0042
FFBE98H   FFBED8H   000041H   BYTE   INSEG    CODE           ?PR?HALRF_TXPWRSET?HAL_RF
FFBED9H   FFBEE1H   000009H   BYTE   UNIT     CODE           ?L?COM004A
FFBEE2H   FFBF4CH   00006BH   BYTE   INSEG    CODE           ?PR?HALRF_TXPWRRPTGET?HAL_RF
FFBF4DH   FFBFD9H   00008DH   BYTE   INSEG    CODE           ?PR?HALRFK_KVALUESET2HW?HAL_RFK
FFBFDAH   FFBFE8H   00000FH   BYTE   INSEG    CODE           ?PR?HAL_IS2GRF?HAL
FFBFE9H   FFC030H   000048H   BYTE   INSEG    CODE           ?PR?HAL_CLKMODESET?HAL
FFC031H   FFC1E7H   0001B7H   BYTE   INSEG    CODE           ?PR?HAL_HWMODEINIT?_?HAL
FFC1E8H   FFC210H   000029H   BYTE   INSEG    CODE           ?PR?HALMAC_PKTBITENDIANSET?HAL_MAC
FFC211H   FFC218H   000008H   BYTE   UNIT     CODE           ?L?COM0050
FFC219H   FFC224H   00000CH   BYTE   INSEG    CODE           ?PR?HALMAC_RXMHRRPTLENSET?HAL_MAC
FFC225H   FFC234H   000010H   BYTE   INSEG    CODE           ?PR?HALMAC_TXPREAMBLESET?HAL_MAC
FFC235H   FFC244H   000010H   BYTE   INSEG    CODE           ?PR?HALMAC_RXPREAMBLESET?HAL_MAC
FFC245H   FFC265H   000021H   BYTE   INSEG    CODE           ?PR?HAL_DFTPARAGET?HAL_INIT
FFC266H   FFC2CAH   000065H   BYTE   INSEG    CODE           ?PR?HAL_PKTTYPESET?HAL
FFC2CBH   FFC3B3H   0000E9H   BYTE   INSEG    CODE           ?PR?HAL_PARAINIT?HAL_INIT
FFC3B4H   FFC3B4H   000001H   BYTE   INSEG    CODE           ?PR?HAL_WATCHDOG?HAL
FFC3B5H   FFC3BDH   000009H   BYTE   INSEG    CODE           ?PR?HALMAC_WHITENDFTGET?HAL_MAC
FFC3BEH   FFC3D4H   000017H   BYTE   INSEG    CODE           ?PR?HALMAC_SFDDFTGET?HAL_MAC
FFC3D5H   FFC436H   000062H   BYTE   INSEG    CODE           ?PR?HALMAC_IFST2T?HAL_MAC
FFC437H   FFC460H   00002AH   BYTE   INSEG    CODE           ?PR?HALTCON_TXTAILDELAYGET?HAL_RT569MP_TCON
FFC461H   FFC4C2H   000062H   BYTE   INSEG    CODE           ?PR?HALMAC_IFST2R?HAL_MAC
FFC4C3H   FFC4F7H   000035H   BYTE   INSEG    CODE           ?PR?HALMAC_IFSR2R?HAL_MAC
FFC4F8H   FFC544H   00004DH   BYTE   INSEG    CODE           ?PR?HALTCON_RXTAILDELAYGET?HAL_RT569MP_TCON
FFC545H   FFC579H   000035H   BYTE   INSEG    CODE           ?PR?HALMAC_IFSR2T?HAL_MAC
FFC57AH   FFC5F2H   000079H   BYTE   INSEG    CODE           ?PR?HALPHY_DFESET?HAL_PHY
FFC5F3H   FFC790H   00019EH   BYTE   INSEG    CODE           ?PR?HALPHY_PARASET?HAL_PHY
FFC791H   FFC7AAH   00001AH   BYTE   INSEG    CODE           ?PR?HALPHY_RXDISABLE?HAL_PHY
FFC7ABH   FFCA68H   0002BEH   BYTE   INSEG    CODE           ?PR?HALPHY_TXBWSET?HAL_PHY
FFCA69H   FFCE32H   0003CAH   BYTE   INSEG    CODE           ?PR?HALPHY_RXBWSET?HAL_PHY
FFCE33H   FFCE86H   000054H   BYTE   INSEG    CODE           ?PR?HALPHY_BLERXPARASET?HAL_PHY
FFCE87H   FFCE97H   000011H   BYTE   UNIT     CODE           ?L?COM0034
FFCE98H   FFCEB8H   000021H   BYTE   INSEG    CODE           ?PR?HALPHY_MODIDXSET?HAL_PHY
FFCEB9H   FFCF43H   00008BH   BYTE   INSEG    CODE           ?PR?HALPHY_INPUTPWRGET?HAL_PHY
FFCF44H   FFCF56H   000013H   BYTE   INSEG    CODE           ?PR?HALRF_AGCSET?HAL_RF
FFCF57H   FFCFA8H   000052H   BYTE   INSEG    CODE           ?PR?HALRF_TXPWRCOMPCHUPDAT?HAL_RF
FFCFA9H   FFCFC8H   000020H   BYTE   INSEG    CODE           ?PR?HALRF_TXPWRCHSEGSET?HAL_RF
FFCFC9H   FFCFDFH   000017H   BYTE   INSEG    CODE           ?PR?HALRF_TEMPERATURERPTGET?HAL_RF
FFCFE0H   FFCFF6H   000017H   BYTE   INSEG    CODE           ?PR?HALRF_RSSIOFFSETSET?HAL_RF
FFCFF7H   FFD00CH   000016H   BYTE   INSEG    CODE           ?PR?HALSEC_AESKEYONLYSET?HAL_SEC
FFD00DH   FFD026H   00001AH   BYTE   INSEG    CODE           ?PR?HALSEC_NONCEONLYSET?HAL_SEC
FFD027H   FFD050H   00002AH   BYTE   INSEG    CODE           ?PR?HALSEC_AESLEVELONLYSET?HAL_SEC
FFD051H   FFD06BH   00001BH   BYTE   INSEG    CODE           ?PR?HALSEC_AESTXSET?HAL_SEC
FFD06CH   FFD0C4H   000059H   BYTE   INSEG    CODE           ?PR?HALRFK_KVALUESET?_?HAL_RFK
FFD0C5H   FFD118H   000054H   BYTE   INSEG    CODE           ?PR?HALRFK_KVALUEGET?_?HAL_RFK
FFD119H   FFD145H   00002DH   BYTE   INSEG    CODE           ?PR?HALIO_DIOSET?HAL_IO
FFD146H   FFD166H   000021H   BYTE   INSEG    CODE           ?PR?HAL_COLDINIT?HAL_INIT
FFD167H   FFD262H   0000FCH   BYTE   INSEG    CODE           ?PR?HALRFK_PARABACKUP?HAL_RT569MP_RFK
FFD263H   FFD2D7H   000075H   BYTE   INSEG    CODE           ?PR?HALRFK_RXBWCFG?HAL_RT569MP_RFK
FFD2D8H   FFD35BH   000084H   BYTE   INSEG    CODE           ?PR?HALRFK_TXLOK?HAL_RT569MP_RFK
FFD35CH   FFD429H   0000CEH   BYTE   INSEG    CODE           ?PR?HALRFK_TXSBK?HAL_RT569MP_RFK
FFD42AH   FFD450H   000027H   BYTE   INSEG    CODE           ?PR?HALRFK_LBPATHDISABLE?HAL_RT569MP_RFK
FFD451H   FFD4C0H   000070H   BYTE   INSEG    CODE           ?PR?HALRFK_RXPATHENABLE?HAL_RT569MP_RFK
FFD4C1H   FFD4EBH   00002BH   BYTE   INSEG    CODE           ?PR?HALRFK_RXPATHDISABLE?HAL_RT569MP_RFK
FFD4ECH   FFD509H   00001EH   BYTE   INSEG    CODE           ?PR?HALRFK_RXDISABLE?HAL_RT569MP_RFK
L251 LINKER/LOCATER V4.66.93.0                                                        07/01/2025  14:01:01  PAGE 15


FFD50AH   FFD5F9H   0000F0H   BYTE   INSEG    CODE           ?PR?HALRFK_RINGPLLSET?HAL_RT569MP_RFK
FFD5FAH   FFD6BAH   0000C1H   BYTE   INSEG    CODE           ?PR?HALRF_FREQ2GCFG?HAL_RT569MP_RF
FFD6BBH   FFD724H   00006AH   BYTE   INSEG    CODE           ?PR?HALRF_FREQ2GCAL?HAL_RT569MP_RF
FFD725H   FFD7C3H   00009FH   BYTE   INSEG    CODE           ?PR?HALRF_IFCHECK?HAL_RT569MP_RF
FFD7C4H   FFD978H   0001B5H   BYTE   INSEG    CODE           ?PR?HALRF_FREQSUBGCFG?HAL_RT569MP_RF
FFD979H   FFD9E3H   00006BH   BYTE   INSEG    CODE           ?PR?HALRF_AGCINIT?HAL_RT569MP_RF
FFD9E4H   FFD9E4H   000001H   BYTE   INSEG    CODE           ?PR?HALRF_TEMPERATUREMEASURE?HAL_RT569MP_RF
FFD9E5H   FFD9E5H   000001H   BYTE   INSEG    CODE           ?PR?HALRF_VOLTAGEMEASURE?HAL_RT569MP_RF
FFD9E6H   FFDA10H   00002BH   BYTE   INSEG    CODE           ?PR?HALRF_EXTFEMINIT?HAL_RT569MP_RF
FFDA11H   FFDB3AH   00012AH   BYTE   INSEG    CODE           ?PR?HALTCON_INIT?HAL_RT569MP_TCON
FFDB3BH   FFDB8FH   000055H   BYTE   INSEG    CODE           ?PR?HALTCON_PRETXTIMESET?HAL_RT569MP_TCON
FFDB90H   FFDBBCH   00002DH   BYTE   INSEG    CODE           ?PR?HALPMU_PWRMODESET?HAL_RT569MP_PMU
FFDBBDH   FFDBD9H   00001DH   BYTE   INSEG    CODE           ?PR?HALPMU_PWRMODEGET?HAL_RT569MP_PMU
FFDBDAH   FFDBF6H   00001DH   BYTE   UNIT     CODE           ?L?COM0022
FFDBF7H   FFEEFFH   001309H   ---    ---      **GAP**
FFEF00H   FFEF10H   000011H   BYTE   INSEG    CODE           ?PR?SYS_ENTERWAITI?SYS_CTRL



PUBLIC SYMBOLS OF MODULE:  .\obj\RT569 (?C_START)


      VALUE       CLASS    TYPE      PUBLIC SYMBOL NAME
      =================================================
      000000FFH   NUMBER   ---       ?C?CODESEG
      00FF0123H   CODE     ---       ?C?INITEDATA
      00FF1011H   HCONST   WORD      ?C?INITEDATA_END
      00FF0051H   CODE     ---       ?C?LIMUL
      00FF0040H   CODE     ---       ?C?LMUL
      00FF000EH   CODE     ---       ?C?SIDIV
      00FF0000H   CODE     ---       ?C?STARTUP
      00FF005CH   CODE     NEAR LAB  ?C?ULDIV
      00FF005AH   CODE     NEAR LAB  ?C?ULIDIV
      00000001H   NUMBER   ---       ?C?XDATASEG
      00FF0000H   CODE     ---       ?C_STARTUP
      0000B661H   EDATA    BYTE      ?HALRF_IfCheck?BYTE
      0000B676H   EDATA    BYTE      ?HALRFK_RingPllSet?BYTE
      0000B650H   EDATA    BYTE      ?HALSEC_AesSet?BYTE
      0000B4A2H   EDATA    BYTE      ?RUCI_endianConvert?BYTE
      0000B423H   EDATA    BYTE      ?T2RTask_Set?BYTE
*SFR* 000000D0H.6 DATA     BIT       AC
*SFR* 000000E0H   DATA     BYTE      ACC
*SFR* 0000009DH   DATA     BYTE      ACON
      00FF0008H   CODE     ---       AllTask_Stop
      00FF00ADH   CODE     ---       ASM_MEMCPY
      00FF014FH   CODE     ---       ASM_MEMSET
*SFR* 000000F0H   DATA     BYTE      B
      00FF751BH   CODE     ---       BMU_FreqFlowCtrlSet
      00FF7565H   CODE     ---       BMU_H2MCmdGet
      00FF7462H   CODE     ---       BMU_HwInit
      00FF73D5H   CODE     ---       BMU_HwReset
      00FF78E6H   CODE     ---       BMU_LocalRxqStartAddGet
      00FF3DEFH   CODE     ---       BMU_LocalRxQueueGet
      00FF8042H   CODE     ---       BMU_LocalTxqStartAddGet
      00FF8853H   CODE     ---       BMU_LocalTxQueueGet
      00FF888DH   CODE     ---       BMU_LocalTxQueueSet
      00FF732AH   CODE     ---       BMU_LrxHwBufConfig
      00FF792FH   CODE     ---       BMU_LrxHwBufSet
      00FF792AH   CODE     ---       BMU_LrxHwBufStatusUpdate
      00FF3FDEH   CODE     ---       BMU_LrxHwRxDoneBufGet
      00FF7352H   CODE     ---       BMU_LrxShareQConfig
      00FF7FF2H   CODE     ---       BMU_LrxShareQIsFull
      00FF3C65H   CODE     ---       BMU_LrxShareQWoGet
      00FF3C93H   CODE     ---       BMU_LrxShareQWoUpdate
      00FF75DDH   CODE     ---       BMU_M2HCmdSet
L251 LINKER/LOCATER V4.66.93.0                                                        07/01/2025  14:01:01  PAGE 16


      00FF725EH   CODE     ---       BMU_MemAllocate
      00FF8E07H   CODE     ---       BMU_PrivacyIrkClr
      00FF8FADH   CODE     ---       BMU_PrivacyIrkFullSearch
      00FF8F78H   CODE     ---       BMU_PrivacyIrkGet
      00FF8E78H   CODE     ---       BMU_PrivacyIrkSet
      00FF8F3FH   CODE     ---       BMU_PrivacyIrkSingleSearch
      00FF8EB1H   CODE     ---       BMU_PrivacyLocalRpaGen
      00FF20C0H   CODE     ---       BMU_RxConfig
      00FF7908H   CODE     ---       BMU_RxqStartAddGet
      00FF3B7DH   CODE     ---       BMU_RxQueueGet
      00FF3980H   CODE     ---       BMU_RxQueueSet
      00FF7661H   CODE     ---       BMU_TrxQueueGet
      00FF77D8H   CODE     ---       BMU_TrxQueueSet
      00FF8183H   CODE     ---       BMU_TxConfig
      00FF80E3H   CODE     ---       BMU_TxPktLengthGet
      00FF80ABH   CODE     ---       BMU_TxqPktSearch
      00FF8064H   CODE     ---       BMU_TxqStartAddGet
      00FF8087H   CODE     ---       BMU_TxqStatusRecovery
      00FF7504H   CODE     ---       BMU_TxqStatusUpd
      00FF8D82H   CODE     ---       BMU_TxQueueClear
      00FF776FH   CODE     ---       BMU_TxQueueGet
      00FF8D25H   CODE     ---       BMU_TxQueueSet
      0000B5DDH   EDATA    BYTE      bmuLrxManualCfg
      0000B5D8H   EDATA    ---       bmuLrxSwqCtrl
      00FF13E3H   HCONST   ---       bmuMemSizeHwRxq
      00FF13EBH   HCONST   ---       bmuMemSizeHwSwRxq
*SFR* 000000C8H.1 DATA     BIT       C_T2
*SFR* 000000CEH   DATA     BYTE      CCEN
*SFR* 000000D8H.0 DATA     BIT       CCF0
*SFR* 000000D8H.1 DATA     BIT       CCF1
*SFR* 000000D8H.2 DATA     BIT       CCF2
*SFR* 000000D8H.3 DATA     BIT       CCF3
*SFR* 000000D8H.4 DATA     BIT       CCF4
*SFR* 000000C3H   DATA     BYTE      CCH1
*SFR* 000000C5H   DATA     BYTE      CCH2
*SFR* 000000C7H   DATA     BYTE      CCH3
*SFR* 000000C2H   DATA     BYTE      CCL1
*SFR* 000000C4H   DATA     BYTE      CCL2
*SFR* 000000C6H   DATA     BYTE      CCL3
*SFR* 00000090H.3 DATA     BIT       CEX0
*SFR* 00000090H.4 DATA     BIT       CEX1
*SFR* 00000090H.5 DATA     BIT       CEX2
*SFR* 00000090H.6 DATA     BIT       CEX3
*SFR* 00000090H.7 DATA     BIT       CEX4
*SFR* 000000D8H.7 DATA     BIT       CF
*SFR* 0000008EH   DATA     BYTE      CKCON
      00FF53E1H   CODE     ---       CMD_CnfEventSend
      00FF5428H   CODE     ---       CMN_CmdHal_GetTemperatureRpt
      00FF3FADH   CODE     ---       CMN_CmdHal_GetVoltageRpt
      00FF55F4H   CODE     ---       CMN_CmdHal_SetAgc
      00FF550AH   CODE     ---       CMN_CmdHal_SetCalibrationEnable
      00FF56D3H   CODE     ---       CMN_CmdHal_SetCalibrationSetting
      00FF55B7H   CODE     ---       CMN_CmdHal_SetPmuMpkSetting
      00FF55C0H   CODE     ---       CMN_CmdHal_SetPmuOpMode
      00FF55D9H   CODE     ---       CMN_CmdHal_SetRssiOffset
      00FF5706H   CODE     ---       CMN_CmdHal_SetTxPower
      00FF5685H   CODE     ---       CMN_CmdHal_SetTxPowerBy
      00FF573AH   CODE     ---       CMN_CmdHal_SetTxPowerOqpsk
      00FF556FH   CODE     ---       CMN_CmdHal_SetTxPwrChComp
      00FF5584H   CODE     ---       CMN_CmdHal_SetTxPwrChSegment
      00FF559AH   CODE     ---       CMN_CmdHal_SetTxPwrComp
      00FF5246H   CODE     ---       CMN_CmdSys_GetRfbFwVer
      00FF5251H   CODE     ---       CMN_GetFwVerEventSend
      00FF5433H   CODE     ---       CMN_GetTemperatureRptEventSend
      00FF3F53H   CODE     ---       CMN_GetVoltageRptEventSend
L251 LINKER/LOCATER V4.66.93.0                                                        07/01/2025  14:01:01  PAGE 17


      00FF551BH   CODE     ---       CMN_SetCalibrationEnableEventSend
      00FF14B9H   CODE     ---       common_isr_init
      00FF453FH   CODE     ---       common_isrBmuCheckTx
      00FF7254H   CODE     ---       common_isrBmuHandler
      00FF6769H   CODE     ---       Common_IsrBmuTxQAdd?_
      00FF6FEBH   CODE     ---       Common_IsrBmuTxQDeleteAllByCondition?_
      00FF715AH   CODE     ---       Common_IsrBmuTxQDeleteByPtr?_
      00FF6829H   CODE     ---       Common_IsrBmuTxQGetByHandle?_
      00FF71E4H   CODE     ---       Common_IsrBmuTxQInit
      00FF68E1H   CODE     ---       Common_IsrBmuTxQPciGet
*SFR* 000000C8H.0 DATA     BIT       CP_RL2
*SFR* 000000D8H.7 DATA     BIT       CPUSRF
*SFR* 000000D8H.6 DATA     BIT       CR
*SFR* 000000CBH   DATA     BYTE      CRCH
*SFR* 000000CAH   DATA     BYTE      CRCL
      0000B2CBH   EDATA    BYTE      csl_ack_pdbit
*SFR* 000000D0H.7 DATA     BIT       CY
*SFR* 000000CFH   DATA     BYTE      DEVICR
*SFR* 0000008FH   DATA     BYTE      DMAIR
*SFR* 00000083H   DATA     BYTE      DPH
*SFR* 00000083H   DATA     BYTE      DPH1
*SFR* 00000082H   DATA     BYTE      DPL
*SFR* 00000082H   DATA     BYTE      DPL1
*SFR* 00000086H   DATA     BYTE      DPS
*SFR* 00000084H   DATA     BYTE      DPX1
*SFR* 00000084H   DATA     BYTE      DPXL
*SFR* 000000A8H.7 DATA     BIT       EA
*SFR* 000000A8H.6 DATA     BIT       EC
*SFR* 00000090H.2 DATA     BIT       ECI
*SFR* 000000E8H   DATA     BYTE      EIE
*SFR* 00000091H   DATA     BYTE      EIF
*SFR* 000000F8H   DATA     BYTE      EIP
*SFR* 000000B6H   DATA     BYTE      EIPH
*SFR* 000000B6H   DATA     BYTE      EIPH0
*SFR* 000000F8H   DATA     BYTE      EIPL
*SFR* 000000A8H.4 DATA     BIT       ES
*SFR* 000000A8H.4 DATA     BIT       ES0
*SFR* 000000A8H.6 DATA     BIT       ES1
*SFR* 000000A8H.1 DATA     BIT       ET0
*SFR* 000000A8H.3 DATA     BIT       ET1
*SFR* 000000A8H.5 DATA     BIT       ET2
*SFR* 000000D8H.1 DATA     BIT       EWT
*SFR* 000000A8H.0 DATA     BIT       EX0
*SFR* 000000A8H.2 DATA     BIT       EX1
*SFR* 000000C8H.3 DATA     BIT       EXEN2
*SFR* 000000C8H.6 DATA     BIT       EXF2
*SFR* 000000D0H.5 DATA     BIT       F0
*SFR* 00000098H.7 DATA     BIT       FE
      0000B320H   EDATA    BYTE      first_scan_enable
      0000B3F1H   EDATA    ---       g15p4Mac
      0000B404H   EDATA    ---       g15p4Phy
      0000B0DEH   EDATA    ---       g_mac_htrp_ctrl
      0000B210H   EDATA    BYTE      g_mac_htrp_rx_commit_type
      0000B67DH   EDATA    BYTE      g_mac_htrp_rx_set_ch_time
      0000B67CH   EDATA    BYTE      g_mac_htrp_rx_state
      0000B67EH   EDATA    BYTE      g_mac_htrp_rx_sync_time
      0000B211H   EDATA    ---       g_mac_htrp_tx_local_data
      0000B699H   EDATA    BYTE      g_mac_htrp_tx_set_ch_time
      0000B698H   EDATA    BYTE      g_mac_htrp_tx_state
      0000B5E0H   EDATA    ---       g_mac_isr_cb_handle
      0000A93BH   EDATA    BYTE      gBackoffExpIdx
      0000B231H   EDATA    ---       gBmuDataList
      0000B22DH   EDATA    ---       gBmuDataListHead
      0000B22FH   EDATA    ---       gBmuDataListTail
      0000B222H   EDATA    ---       gBmuDataTxCtrlField
L251 LINKER/LOCATER V4.66.93.0                                                        07/01/2025  14:01:01  PAGE 18


      0000B21BH   EDATA    ---       gBmuDataTxQList
      00FF127EH   HCONST   ---       gCmnHalCmdLen
      00FF127CH   HCONST   ---       gCmnSysCmdLen
      0000A93AH   EDATA    BYTE      gCsmacaRetry
      00FF9F94H   CODE     ---       get_intercom_mode_status
      00FF2FF6H   CODE     ---       get_pan_number
      00FF9FCBH   CODE     ---       get_switch_tx_freq
      0000B4BAH   EDATA    ---       gIntrRegMask
      0000B4C2H   EDATA    ---       gIntrRfHdlrTable
      0000B5FFH   EDATA    DWORD     gLastWakeTick
      0000B645H   EDATA    DWORD     gMac_Frame_Pending_Rx_Time
      0000B219H   EDATA    ---       gMac_htrp_rx_done_hdl
      0000B217H   EDATA    ---       gMac_htrp_tx_done_hdl
      0000A0FCH   EDATA    ---       gMacBuf
      0000B332H   EDATA    ---       gMacFunCtrl
      0000B333H   EDATA    ---       gMacFunEventQ
      0000A0B9H   EDATA    ---       gMacHdr
      0000B34DH   EDATA    ---       gMacIntEventQ
      0000B2ABH   EDATA    ---       gMacPib
      0000B2A9H   EDATA    INT       gMacRaaState
      0000B41EH   EDATA    ---       gMacRfeRpt
      0000B40FH   EDATA    ---       gMacRfeRxCtrl
      0000B40DH   EDATA    INT       gMacRfeRxState
      0000B49AH   EDATA    ---       gMacRfeTxCtrl
      0000B498H   EDATA    INT       gMacRfeTxState
      0000A033H   EDATA    ---       gMacRxPar
      0000B38CH   EDATA    ---       gMacRxScanCtrl
      0000A950H   EDATA    ---       gMacSrcCtrl
      0000A000H   EDATA    INT       gMacTarState
      0000A002H   EDATA    ---       gMacTxPar
      00FF126BH   HCONST   ---       gPci15p4MacCmdLen
      00FF1260H   HCONST   ---       gPciBleCmdLen
      00FF123BH   HCONST   ---       gPciCommonCmdLen
      00FF125AH   HCONST   ---       gPciFskCmdLen
      00FF1278H   HCONST   ---       gPciOqpskCmdLen
      0000A934H   EDATA    ---       gPhyStatus
      0000B322H   EDATA    ---       gRaa_Sch_Handler_Entry
      0000A939H   EDATA    BYTE      gRetransmissionCount
      0000B3F0H   EDATA    BYTE      gSleepEnable
      0000B603H   EDATA    ---       gSysEntry_Sleep
      0000B611H   EDATA    ---       gSysRtcHdlrTable
      0000A93CH   EDATA    ---       gTar_ScheHandler_Entry
      0000B61DH   EDATA    BYTE      gTaskMask
      0000B61EH   EDATA    ---       gTaskTable
      00FFBFE9H   CODE     ---       HAL_ClkModeSet
      00FFD146H   CODE     ---       HAL_ColdInit
      00FFC245H   CODE     ---       HAL_DftParaGet
      00FFBB74H   CODE     ---       HAL_HwInit
      00FF8787H   CODE     ---       HAL_HwModeGet
      00FFC031H   CODE     ---       HAL_HwModeInit?_
      00FFBFDAH   CODE     ---       HAL_Is2gRf
      00FF5F8FH   CODE     ---       HAL_IsBleHw
      00FF6175H   CODE     ---       HAL_IsSubgRf
      00FFBB4AH   CODE     ---       HAL_IsWisunHw
      00FFBB5FH   CODE     ---       HAL_IsZigbeeHw
      00FFC2CBH   CODE     ---       HAL_ParaInit
      00FFC266H   CODE     ---       HAL_PktTypeSet
      00FFC3B4H   CODE     ---       HAL_Watchdog
      00FFD119H   CODE     ---       HALIO_dioSet
      00FF57CFH   CODE     ---       HALMAC_CrcInitDftGet
      00FF82DFH   CODE     ---       HALMAC_CrcLenCfgGet
      00FF9EDAH   CODE     ---       HALMAC_CrcSet
      00FFC4C3H   CODE     ---       HALMAC_IfsR2R
      00FFC545H   CODE     ---       HALMAC_IfsR2T
      00FFC461H   CODE     ---       HALMAC_IfsT2R
L251 LINKER/LOCATER V4.66.93.0                                                        07/01/2025  14:01:01  PAGE 19


      00FFC3D5H   CODE     ---       HALMAC_IfsT2T
      00FF214AH   CODE     ---       HALMAC_MaxPayloadDftGet
      00FF87B1H   CODE     ---       HALMAC_MaxPayloadLenGet
      00FF878FH   CODE     ---       HALMAC_PhrLenCfgGet
      00FF35A5H   CODE     ---       HALMAC_PhrSet
      00FFC1E8H   CODE     ---       HALMAC_PktBitEndianSet
      00FF2157H   CODE     ---       HALMAC_RxMaxPktLenSet
      00FFC219H   CODE     ---       HALMAC_RxMhrRptLenSet
      00FF82F8H   CODE     ---       HALMAC_RxPayloadLenGet
      00FFC235H   CODE     ---       HALMAC_RxPreambleSet
      00FF2F16H   CODE     ---       HALMAC_RxSfdSet
      00FFC3BEH   CODE     ---       HALMAC_SfdDftGet
      00FFC225H   CODE     ---       HALMAC_TxPreambleSet
      00FF2D4BH   CODE     ---       HALMAC_TxSfdSet
      00FF6D74H   CODE     ---       HALMAC_TxTypeSet
      00FFC3B5H   CODE     ---       HALMAC_WhitenDftGet
      00FF57C2H   CODE     ---       HALMAC_WhitenInitDftGet
      00FF9EB7H   CODE     ---       HALMAC_WhitenSet
      00FFCE33H   CODE     ---       HALPHY_BleRxParaSet
      00FFC57AH   CODE     ---       HALPHY_DfeSet
      00FF6674H   CODE     ---       HALPHY_FskRxParaSet
      00FF2FDFH   CODE     ---       HALPHY_GaussianFiltSet
      00FFCEB9H   CODE     ---       HALPHY_InputPwrGet
      00FFCE98H   CODE     ---       HALPHY_ModIdxSet
      00FFC5F3H   CODE     ---       HALPHY_ParaSet
      00FF45F0H   CODE     ---       HALPHY_PreamNumSet
      00FFCA69H   CODE     ---       HALPHY_RxBwSet
      00FFC791H   CODE     ---       HALPHY_RxDisable
      00FF671DH   CODE     ---       HALPHY_RxEnable
      00FFC7ABH   CODE     ---       HALPHY_TxBwSet
      00FF6183H   CODE     ---       HALPHY_TxEnable
      00FF39D3H   CODE     ---       HALPKT_PhyStatusGet
      00FF2269H   CODE     ---       HALPKT_RxqDoneSet
      00FF35CFH   CODE     ---       HALPKT_TxqDoneSet
      00FFDBBDH   CODE     ---       HALPMU_PwrModeGet
      00FFDB90H   CODE     ---       HALPMU_PwrModeSet
      00FFD979H   CODE     ---       HALRF_AgcInit
      00FFCF44H   CODE     ---       HALRF_AgcSet
      00FF4763H   CODE     ---       HALRF_AgcSet2Hw
      00FF6642H   CODE     ---       HALRF_AllPathDisable
      00FFD9E6H   CODE     ---       HALRF_ExtFemInit
      00FFD6BBH   CODE     ---       HALRF_Freq2gCal
      00FFD5FAH   CODE     ---       HALRF_Freq2gCfg
      00FFD7C4H   CODE     ---       HALRF_FreqSubgCfg
      00FFD725H   CODE     ---       HALRF_IfCheck
      00FF66AEH   CODE     ---       HALRF_PllCfg
      00FFCFE0H   CODE     ---       HALRF_RssiOffsetSet
      00FFD9E4H   CODE     ---       HALRF_TemperatureMeasure
      00FFCFC9H   CODE     ---       HALRF_TemperatureRptGet
      00FFBE22H   CODE     ---       HALRF_TxGainTableCfg
      00FF56AAH   CODE     ---       HALRF_TxPwrChCompSet
      00FFCFA9H   CODE     ---       HALRF_TxPwrChSegSet
      00FFCF57H   CODE     ---       HALRF_TxPwrCompChUpdat
      00FF5617H   CODE     ---       HALRF_TxPwrCompSet
      00FF6105H   CODE     ---       HALRF_TxPwrCompSet2Hw
      00FF563AH   CODE     ---       HALRF_TxPwrCompUpdate
      00FFBEE2H   CODE     ---       HALRF_TxPwrRptGet
      00FFBE98H   CODE     ---       HALRF_TxPwrSet
      00FFBDE0H   CODE     ---       HALRF_TxPwrSet2Hw
      00FFD9E5H   CODE     ---       HALRF_VoltageMeasure
      00FF3FC7H   CODE     ---       HALRF_VoltageRptGet
      00FF42FFH   CODE     ---       HALRFK_Calibration
      00FFD0C5H   CODE     ---       HALRFK_kValueGet?_
      00FFBF4DH   CODE     ---       HALRFK_kValueSet2Hw
      00FFD06CH   CODE     ---       HALRFK_kValueSet?_
L251 LINKER/LOCATER V4.66.93.0                                                        07/01/2025  14:01:01  PAGE 20


      00FFD42AH   CODE     ---       HALRFK_LbPathDisable
      00FF64E0H   CODE     ---       HALRFK_LbPathEnable
      00FF43AEH   CODE     ---       HALRFK_LbTrxDisable
      00FF428EH   CODE     ---       HALRFK_LbTrxEnable
      00FFD167H   CODE     ---       HALRFK_ParaBackUp
      00FF637BH   CODE     ---       HALRFK_ParaRecover
      00FF46A4H   CODE     ---       HALRFK_PllForFiltKSet
      00FF4607H   CODE     ---       HALRFK_PllForLokSet
      00FF4627H   CODE     ---       HALRFK_PllForSideBandKSet
      00FF464EH   CODE     ---       HALRFK_RfGainCfg
      00FF46F8H   CODE     ---       HALRFK_RfPllCfg
      00FF6419H   CODE     ---       HALRFK_RfTxCfg
      00FFD50AH   CODE     ---       HALRFK_RingPllSet
      00FF43F9H   CODE     ---       HALRFK_RssiGet
      00FFD263H   CODE     ---       HALRFK_RxBwCfg
      00FFD4ECH   CODE     ---       HALRFK_RxDisable
      00FF65C5H   CODE     ---       HALRFK_RxEnable
      00FF4463H   CODE     ---       HALRFK_RxFiltK
      00FFD4C1H   CODE     ---       HALRFK_RxPathDisable
      00FFD451H   CODE     ---       HALRFK_RxPathEnable
      00FF43A1H   CODE     ---       HALRFK_SingleToneDisable
      00FF43D0H   CODE     ---       HALRFK_SingleToneEnable
      00FFD2D8H   CODE     ---       HALRFK_TxLok
      00FFD35CH   CODE     ---       HALRFK_TxSbk
      00FFCFF7H   CODE     ---       HALSEC_AesKeyOnlySet
      00FF4F5DH   CODE     ---       HALSEC_AesKeySet
      00FFD027H   CODE     ---       HALSEC_AesLevelOnlySet
      00FF87DBH   CODE     ---       HALSEC_AesSet
      00FFD051H   CODE     ---       HALSEC_AesTxSet
      00FFD01AH   CODE     ---       HALSEC_NonceOnlySet
      00FFDA11H   CODE     ---       HALTCON_Init
      00FFDB3BH   CODE     ---       HALTCON_PreTxTimeSet
      00FFC4FCH   CODE     ---       HALTCON_RxTailDelayGet
      00FFC437H   CODE     ---       HALTCON_TxTailDelayGet
      00FF01AFH   CODE     ---       hmemcpy?_
*SFR* 000000F6H   DATA     BYTE      I2CM_BUF
*SFR* 000000F5H   DATA     BYTE      I2CM_CR
*SFR* 000000F4H   DATA     BYTE      I2CM_SA
*SFR* 000000F7H   DATA     BYTE      I2CM_TP
*SFR* 000000F1H   DATA     BYTE      I2CS_ADDR
*SFR* 000000F3H   DATA     BYTE      I2CS_BUF
*SFR* 000000F2H   DATA     BYTE      I2CS_CR
*SFR* 000000C8H.5 DATA     BIT       I2FR
*SFR* 000000C8H.6 DATA     BIT       I3FR
*SFR* 000000A8H   DATA     BYTE      IE
*SFR* 00000088H.1 DATA     BIT       IE0
*SFR* 00000088H.1 DATA     BIT       IE0_
*SFR* 00000088H.3 DATA     BIT       IE1
*SFR* 00000088H.3 DATA     BIT       IE1_
*SFR* 000000B1H   DATA     BYTE      IEH
*SFR* 000000A8H   DATA     BYTE      IEL
*SFR* 000000B0H.2 DATA     BIT       INT0
*SFR* 000000B0H.3 DATA     BIT       INT1
      00FF48C9H   CODE     ---       INTERCOM_BackoffTimeCal
      00FF96A0H   CODE     ---       Intercom_HrParse
      00FF6B5CH   CODE     ---       INTERCOM_MaxCCATimeCal
      00FF302DH   CODE     ---       INTR_Clear
      00FF3056H   CODE     ---       INTR_ClearRtcGrp
      00FF17F5H   CODE     ---       INTR_Enable
      00FF3067H   CODE     ---       INTR_Rf_Hdlr
      00FF146CH   CODE     ---       INTR_Rf_Register
*SFR* 000000B8H   DATA     BYTE      IP
*SFR* 000000B7H   DATA     BYTE      IPH
*SFR* 000000B7H   DATA     BYTE      IPH0
*SFR* 000000B8H   DATA     BYTE      IPL
L251 LINKER/LOCATER V4.66.93.0                                                        07/01/2025  14:01:01  PAGE 21


*SFR* 000000B8H   DATA     BYTE      IPL0
      00FF3076H   CODE     ---       ISR_0_Hdlr
      00FF482DH   CODE     ---       ISR_1_Hdlr
      00FF402CH   CODE     ---       ISR_CLEAR_MAC_STATUS
      00FF481EH   CODE     ---       ISR_GET_MAC_STATUS
*SFR* 00000088H.0 DATA     BIT       IT0
*SFR* 00000088H.2 DATA     BIT       IT1
      00FF905CH   CODE     ---       mac
      00FFACFCH   CODE     ---       MAC_AckFrameCheck
      00FF8A50H   CODE     ---       MAC_AckSet
      00FF48F5H   CODE     ---       MAC_BackoffTimeCal
      00FF9746H   CODE     ---       mac_BmuIsrInit
      00FF27CEH   CODE     ---       MAC_CcaStart
      00FFAEE6H   CODE     ---       MAC_CcaStatusGet
      00FF90BAH   CODE     ---       mac_CheckBmuErr
      00FF4507H   CODE     ---       mac_CheckIsrRxReceived
      00FF9F19H   CODE     ---       MAC_CheckRfFreq
      00FF47F9H   CODE     ---       mac_CheckRxBusy
      00FF50ADH   CODE     ---       MAC_CmdQueueParse
      00FF2CC9H   CODE     ---       Mac_endianConvert
      00FF403DH   CODE     ---       mac_FatalClear
      00FFA92FH   CODE     ---       mac_Filter?_
      00FF2740H   CODE     ---       mac_FunEventQAdd?_
      00FF34D5H   CODE     ---       mac_FunEventQGet?_
      00FF9169H   CODE     ---       mac_FunEventQInit
      00FF4128H   CODE     ---       mac_FunEventQueueExist
      00FF8B1BH   CODE     ---       mac_genAck
      00FFA80BH   CODE     ---       mac_genAckFrmCtrl
      00FF2977H   CODE     ---       mac_genEnhAck
      00FFA87DH   CODE     ---       mac_getCslPhase
      00FFB26FH   CODE     ---       mac_htrp_check_rx_conn_status
      00FFB21EH   CODE     ---       mac_htrp_check_rx_valid
      00FF3CB2H   CODE     ---       mac_htrp_clear_rx_queue
      00FFB28EH   CODE     ---       mac_htrp_clear_tx_queue
      00FF1FB7H   CODE     ---       mac_htrp_ctrl_channel_set
      00FFB09BH   CODE     ---       mac_htrp_ctrl_clear_pkt_cnt
      00FFB083H   CODE     ---       mac_htrp_ctrl_get_channel
      00FF7ACFH   CODE     ---       mac_htrp_ctrl_increase_channel_index
      00FFB14CH   CODE     ---       mac_htrp_ctrl_increase_cur_block
      00FFB0C0H   CODE     ---       mac_htrp_ctrl_increase_pkt_cnt
      00FF79E1H   CODE     ---       mac_htrp_ctrl_increase_slot_index
      00FFB2A3H   CODE     ---       mac_htrp_ctrl_init
      00FF9C05H   CODE     ---       mac_htrp_ctrl_set_channel_map_from_bmu
      00FFB122H   CODE     ---       mac_htrp_ctrl_slot_sync
      00FF3C63H   CODE     ---       mac_htrp_get_rx_sw_queue_wo_addr
      00FF34BFH   CODE     ---       mac_htrp_get_tx_data
      00FF3618H   CODE     ---       mac_htrp_is_allow_sleep_state
      00FFB1FAH   CODE     ---       mac_htrp_isr_rx_done_handler
      00FF2778H   CODE     ---       mac_htrp_isr_tx_done_handler
      00FF4A90H   CODE     ---       mac_htrp_ready_to_sleep
      00FF34B6H   CODE     ---       mac_htrp_reg_isr_cb
      00FF3BE0H   CODE     ---       mac_htrp_relay_data_to_sw_rxq
      00FF9B58H   CODE     ---       mac_htrp_reset_rx_conn_status
      00FFB2E7H   CODE     ---       mac_htrp_rtc_isr_handler
      00FF7E56H   CODE     ---       mac_htrp_rx_burst_rx_done
      00FF7D28H   CODE     ---       mac_htrp_rx_cal_drift_time
      00FF3655H   CODE     ---       mac_htrp_rx_get_state
      00FF1BB5H   CODE     ---       mac_htrp_rx_handler
      00FFB32FH   CODE     ---       mac_htrp_rx_init
      00FF7F88H   CODE     ---       mac_htrp_rx_period_rx_done
      00FFB44FH   CODE     ---       mac_htrp_rx_period_tx_done
      00FF7D95H   CODE     ---       mac_htrp_rx_set_next_task_and_channel
      00FF7AF1H   CODE     ---       mac_htrp_rx_set_period_next_task
      00FF1AFCH   CODE     ---       mac_htrp_rx_set_rf_task
      00FF1F80H   CODE     ---       mac_htrp_rx_set_state
L251 LINKER/LOCATER V4.66.93.0                                                        07/01/2025  14:01:01  PAGE 22


      00FFB358H   CODE     ---       mac_htrp_rx_slot_rx_done
      00FF7FEAH   CODE     ---       mac_htrp_rx_slot_tx_done
      00FF6FD3H   CODE     ---       mac_htrp_send_tx_done
      00FF9B73H   CODE     ---       mac_htrp_set_disable
      00FF1FF7H   CODE     ---       mac_htrp_set_rx_hw_queue
      00FF1FECH   CODE     ---       mac_htrp_set_rx_queue
      00FF27B3H   CODE     ---       mac_htrp_set_rx_sw_queue
      00FF9B7CH   CODE     ---       mac_htrp_set_sec_para
      00FF33C8H   CODE     ---       mac_htrp_set_tx_queue
      00FFB2EDH   CODE     ---       mac_htrp_sleep_ctrl
      00FFB2C6H   CODE     ---       mac_htrp_sleep_init
      00FF7E7BH   CODE     ---       mac_htrp_tx_burst_tx_done
      00FF3613H   CODE     ---       mac_htrp_tx_get_state
      00FF3169H   CODE     ---       mac_htrp_tx_handler
      00FFB49EH   CODE     ---       mac_htrp_tx_init
      00FF7A02H   CODE     ---       mac_htrp_tx_period_burst_rx_done
      00FFB16EH   CODE     ---       mac_htrp_tx_period_burst_tx_done
      00FF7EC7H   CODE     ---       mac_htrp_tx_set_rf_task
      00FF33C1H   CODE     ---       mac_htrp_tx_set_state
      00FF793BH   CODE     ---       mac_htrp_tx_slot_rx_done
      00FFB1F1H   CODE     ---       mac_htrp_tx_slot_tx_done
      00FF792BH   CODE     ---       mac_htrp_update_lrx_buf_status
      00FF14C8H   CODE     ---       mac_Init
      00FF40F0H   CODE     ---       mac_IntEventQAdd?_
      00FF902FH   CODE     ---       mac_IntEventQGet?_
      00FF9175H   CODE     ---       mac_IntEventQInit
      00FF697AH   CODE     ---       mac_IntEventQueueClearTxData
      00FF93B1H   CODE     ---       mac_IntEventQueueExist
      00FF452AH   CODE     ---       mac_IntEventQueueHandler
      00FF6FDEH   CODE     ---       mac_isr_reg_cb
      00FF96B5H   CODE     ---       mac_IsrHandler
      00FF17B3H   CODE     ---       mac_IsrInit
      00FF9660H   CODE     ---       MAC_MhrParse
      00FFA8BEH   CODE     ---       MAC_NonceGen
      00FFACE3H   CODE     ---       mac_org_cca_done_handler
      00FFA7EEH   CODE     ---       mac_org_mhr_done_handler
      00FF966AH   CODE     ---       mac_org_rx_done_handler
      00FFACDCH   CODE     ---       mac_org_tx_done_handler
      00FF9466H   CODE     ---       mac_parseHdr
      00FFA07CH   CODE     ---       mac_Raa_SchConfigHdlr
      00FFA78DH   CODE     ---       mac_Raa_SchEndHdlr
      00FFA6C3H   CODE     ---       mac_Raa_SchInitHdlr
      00FFA7EDH   CODE     ---       mac_Raa_SchReservedHdlr
      00FF3502H   CODE     ---       mac_Raa_SchWaitMHRHdlr
      00FFA78CH   CODE     ---       mac_Raa_SchWaitResumeHdlr
      00FFA6C4H   CODE     ---       mac_Raa_SchWaitRxDoneHdlr
      00FFA75BH   CODE     ---       mac_Raa_SchWaitTxDoneHdlr
      00FF37B5H   CODE     ---       Mac_RaaClearAckQandGenRxData
      00FF22BAH   CODE     ---       Mac_RaaRxDoneHandle?_
      00FF9092H   CODE     ---       MAC_RaaSchedule
      00FF8BD1H   CODE     ---       MAC_RfeDataGen
      00FF864EH   CODE     ---       MAC_RfeRxAonTaskDisable
      00FF3D26H   CODE     ---       MAC_RfeRxDataConfirm
      00FFAF64H   CODE     ---       MAC_RfeRxDisable
      00FF8B60H   CODE     ---       MAC_RfeRxParInit
      00FFAFADH   CODE     ---       MAC_RfeRxRptGet
      00FF834FH   CODE     ---       MAC_RfeRxSchedule
      00FF8724H   CODE     ---       MAC_RfeSecLbHwSet
      00FFB033H   CODE     ---       MAC_RfeTxHwSecSet
      00FF8918H   CODE     ---       MAC_RfeTxParInit
      00FFAFC0H   CODE     ---       MAC_RfeTxPktLenUpdate
      00FF1544H   CODE     ---       MAC_RfeTxSchedule
      00FFA462H   CODE     ---       MAC_RfeTxTaskSet
      00FF2D1DH   CODE     ---       mac_RssiInfoCalc
      00FF37D2H   CODE     ---       MAC_RxDoneEventGen?_
L251 LINKER/LOCATER V4.66.93.0                                                        07/01/2025  14:01:01  PAGE 23


      00FF2047H   CODE     ---       MAC_RxHwSet
      00FF3A05H   CODE     ---       MAC_RXQ_CPY?_
      00FFA323H   CODE     ---       MAC_RxScan_Config
      00FFBA6CH   CODE     ---       MAC_RxScan_GetScanResult
      00FF6355H   CODE     ---       MAC_RxScan_HwDeInit
      00FFA2BBH   CODE     ---       MAC_RxScan_HwInit
      00FFA35BH   CODE     ---       MAC_RxScan_HwRegBackup
      00FF6067H   CODE     ---       MAC_RxScan_HwRegRestore
      00FFA330H   CODE     ---       MAC_RxScan_PllAlwaysOn
      00FF28B8H   CODE     ---       MAC_RxScan_R2tTaskRestart
      00FF290CH   CODE     ---       MAC_RxScan_SwitchToNextFrequency
      00FFA724H   CODE     ---       MAC_RxScan_TaskRestart
      00FFA059H   CODE     ---       MAC_RxScan_TaskStart
      00FF4205H   CODE     ---       MAC_ScanVco_Get
      00FF827FH   CODE     ---       MAC_SecLbHwSet
      00FF4A09H   CODE     ---       MAC_SleepCheck
      00FF5C0EH   CODE     ---       MAC_SrcMatch_Enable
      00FF2D30H   CODE     ---       MAC_SrcMatch_EnableStatusGet
      00FFB78FH   CODE     ---       MAC_SrcMatch_ListAdd
      00FFB957H   CODE     ---       MAC_SrcMatch_ListAddExtended
      00FFB845H   CODE     ---       MAC_SrcMatch_ListAddShort
      00FFB50CH   CODE     ---       MAC_SrcMatch_ListClear
      00FF2D5FH   CODE     ---       MAC_SrcMatch_ListFind
      00FFB394H   CODE     ---       MAC_SrcMatch_ListFindExtended?_
      00FF5FC0H   CODE     ---       MAC_SrcMatch_ListFindIdx
      00FFB7B0H   CODE     ---       MAC_SrcMatch_ListFindShort?_
      00FFB4A4H   CODE     ---       MAC_SrcMatch_ListInit
      00FF5FA2H   CODE     ---       MAC_SrcMatch_ListModify
      00FFB9FBH   CODE     ---       MAC_SrcMatch_ListModifyExtended
      00FFB8E6H   CODE     ---       MAC_SrcMatch_ListModifyShort
      00FF27CAH   CODE     ---       mac_tar_cca_setup
      00FFAE2AH   CODE     ---       mac_tar_check_data_requst
      00FF6BE8H   CODE     ---       mac_Tar_SchConfigHdlr
      00FFACABH   CODE     ---       mac_Tar_SchEndHdlr
      00FFAB72H   CODE     ---       mac_Tar_SchInitHdlr
      00FFACDBH   CODE     ---       mac_Tar_SchReservedHdlr
      00FF2176H   CODE     ---       mac_Tar_SchWaitAckRxDoneHdlr
      00FFAC1BH   CODE     ---       mac_Tar_SchWaitAckRxMHRHdlr
      00FF6DEDH   CODE     ---       mac_Tar_SchWaitCCADoneHdlr
      00FFAC6EH   CODE     ---       mac_Tar_SchWaitNormalAckDoneHdlr
      00FF6A49H   CODE     ---       mac_Tar_SchWaitNormalRxMsgHdlr
      00FFAB73H   CODE     ---       mac_Tar_SchWaitTxDoneHdlr
      00FF47EFH   CODE     ---       MAC_TarParInit
      00FF90A6H   CODE     ---       MAC_TarSchedule
      00FF4FEBH   CODE     ---       Mac_TimeoutHdlr
      00FF9181H   CODE     ---       mac_TrxPar_Init
      00FF69CFH   CODE     ---       MAC_TxDoneEventGen
      00FF4047H   CODE     ---       Mac_TxGetBmuData
      00FF8224H   CODE     ---       MAC_TxHwSet
      00FF6F94H   CODE     ---       MAC_TxStart
      00FF6FA5H   CODE     ---       MAC_TxTaskSet
      00FF283EH   CODE     ---       MAC_WaitforRxTaskReady
      00FF1013H   HCONST   ---       MACRfeDataType
      00FF1019H   HCONST   ---       MACRfePrbs9
      0000AC69H   EDATA    ---       MacSrcAddEntry
      0000AC65H   EDATA    ---       MacSrcFindEntry
      0000AC6DH   EDATA    ---       MacSrcModifyEntry
      00FF69ACH   CODE     ---       MacTxFreeBmuData
      00FF1401H   CODE     ---       MAIN
      00FF0190H   CODE     ---       memcpy?_
      00FF01CEH   CODE     ---       memset?_
      00FFA872H   CODE     ---       mod_replace
      00FFBB39H   CODE     ---       MSG_EventClr
      00FF501CH   CODE     ---       MSG_Hdlr
      00FF144DH   CODE     ---       MSG_HdlrInit
L251 LINKER/LOCATER V4.66.93.0                                                        07/01/2025  14:01:01  PAGE 24


      00FF49DBH   CODE     ---       MSG_Idle
      00FF4F87H   CODE     ---       MSG_InMsgProc
      00FFBAEEH   CODE     ---       MSG_Isr?_
      00FF57E6H   CODE     ---       MSG_OutMsgForceHandle
      00FF5033H   CODE     ---       MSG_OutMsgProc
      00FF5066H   CODE     ---       MSG_OutMsgToBmu
      00FF505DH   CODE     ---       MSG_OutStateSet
*SFR* 000000EAH   DATA     BYTE      MXAX
*SFR* 000000D1H.5 DATA     BIT       N_B
*SFR* 000000D0H.2 DATA     BIT       OV
*SFR* 000000D0H.0 DATA     BIT       P
*SFR* 00000080H   DATA     BYTE      P0
*SFR* 00000090H   DATA     BYTE      P1
*SFR* 000000A0H   DATA     BYTE      P2
*SFR* 000000B0H   DATA     BYTE      P3
      00FF93C0H   CODE     ---       panIdPresent
      0000B5DEH   EDATA    ---       pBmuLrxShareQCtrl
      00FF0006H   HCONST   ---       pBmuMacIntrSts
      00FF996FH   CODE     ---       Pci_BleCmdInitBle
      00FF2E90H   CODE     ---       Pci_BleCmdSetBleMac
      00FF9A99H   CODE     ---       Pci_BleCmdSetBleModem
      00FF2DFDH   CODE     ---       Pci_BlePhy_GetHtrp_Status
      00FF99F7H   CODE     ---       Pci_BlePhy_SetHtrp_Disable
      00FF9BC2H   CODE     ---       Pci_BlePhy_SetHtrp_Initiate
      00FF9A62H   CODE     ---       Pci_BlePhy_SetHtrp_Map_Channel
      00FF9C52H   CODE     ---       Pci_BlePhy_SetHtrp_Para
      00FF9A14H   CODE     ---       Pci_BlePhy_SetHtrp_Rx_Enable
      00FF9A32H   CODE     ---       Pci_BlePhy_SetHtrp_Sec
      00FF9B9DH   CODE     ---       Pci_BlePhy_SetHtrp_Tx_Enable
      00FF4ED8H   CODE     ---       Pci_EnableSingleTone
      00FF5F50H   CODE     ---       Pci_Get15p4CslAccuracy
      00FF5F5DH   CODE     ---       Pci_Get15p4CslUncertainty
      00FF4C9DH   CODE     ---       Pci_GetCrcCount
      00FF4D71H   CODE     ---       Pci_GetPhyStatus
      00FF4D08H   CODE     ---       Pci_GetRssi
      00FF5338H   CODE     ---       Pci_InitFsk
      00FF9CF5H   CODE     ---       Pci_InitZigbee
      00FF5372H   CODE     ---       Pci_OqpskCmdInitOqpsk
      00FF9E63H   CODE     ---       Pci_OqpskCmdSetOqpskMac
      00FF9E25H   CODE     ---       Pci_OqpskCmdSetOqpskModem
      00FF53B3H   CODE     ---       Pci_ParaReset
      00FF5D6EH   CODE     ---       Pci_Parse15p4AddressFilter
      00FF5F6AH   CODE     ---       Pci_Parse15p4AutoAck
      00FF9D68H   CODE     ---       Pci_Parse15p4MacPib
      00FF2D84H   CODE     ---       Pci_Parse15p4PendingBit
      00FF9DB1H   CODE     ---       Pci_Parse15p4PhyPib
      00FF5BDCH   CODE     ---       Pci_Parse15p4SmEnable
      00FF5B5DH   CODE     ---       Pci_Parse15p4SwMacCmd
      00FF9992H   CODE     ---       Pci_ParseBleCmd
      00FF5491H   CODE     ---       Pci_ParseCmnHalCmd
      00FF5238H   CODE     ---       Pci_ParseCmnSysCmd
      00FF4BCAH   CODE     ---       Pci_ParseCommonCmd
      00FF5307H   CODE     ---       Pci_ParseFskCmd
      00FF52EBH   CODE     ---       Pci_ParseOqpskCmd
      00FF5C1EH   CODE     ---       Pci_Parset15p4SmEntryCtrl
      00FF5F05H   CODE     ---       Pci_RfeRxParaCheck
      00FF8C6AH   CODE     ---       Pci_RfeTxParaCheck
      00FF5AEFH   CODE     ---       Pci_Set15p4CslReceiverCtrl
      00FF9898H   CODE     ---       Pci_Set2ChScanFreq
      00FF9839H   CODE     ---       Pci_SetClockMode
      00FF5770H   CODE     ---       Pci_SetFskMac
      00FF992DH   CODE     ---       Pci_SetFskModem
      00FF45D4H   CODE     ---       Pci_SetFskPreamble
      00FF2E45H   CODE     ---       Pci_SetFskSfd
      00FF2FCEH   CODE     ---       Pci_SetFskType
L251 LINKER/LOCATER V4.66.93.0                                                        07/01/2025  14:01:01  PAGE 25


      00FF9885H   CODE     ---       Pci_SetGaussianFilterType
      00FF8662H   CODE     ---       Pci_SetPhr
      00FF5CBFH   CODE     ---       Pci_SetRfbAutoState
      00FF4FE1H   CODE     ---       Pci_SetRfeMode
      00FF45BAH   CODE     ---       Pci_SetRfeRxDisableCmd
      00FF5E49H   CODE     ---       Pci_SetRfeRxEnableCmd
      00FF4F16H   CODE     ---       Pci_SetRfeSecurityCmd
      00FF97EEH   CODE     ---       Pci_SetRfeTxDisableCmd
      00FF89B1H   CODE     ---       Pci_SetRfeTxEnableCmd
      00FF9752H   CODE     ---       Pci_SetRfFreq
      00FF9823H   CODE     ---       Pci_SetRfIdle
      00FF9804H   CODE     ---       Pci_SetRfSleep
      00FF4A9DH   CODE     ---       Pci_SetRxReservePara
      00FF97A4H   CODE     ---       Pci_SetRxTaskPara
      00FF4B20H   CODE     ---       Pci_SetWakeOnRadio
      00FF9DEAH   CODE     ---       Pci_Update15p4CslSampleTime
      00FFA614H   CODE     ---       PciBurstTxdoneEventSendtoMsgQueue
      00FF2DB4H   CODE     ---       PciCnfEventSendtoMsgQueue
      00FF3732H   CODE     ---       PciCslAccuracyEventSendtoMsgQueue
      00FF375BH   CODE     ---       PciCslUncertaintyEventSendtoMsgQueue
      00FFA521H   CODE     ---       PciDataControlFieldParse
      00FF4CA9H   CODE     ---       PciGetCrcEventSendtoMsgQueue
      00FF4D7DH   CODE     ---       PciGetPhyStatusEventSendtoMsgQueue
      00FF4D14H   CODE     ---       PciGetRssiEventSendtoMsgQueue
      00FFA645H   CODE     ---       PciHtrpConnToEventdoneEventSendtoMsgQueue
      00FF365AH   CODE     ---       PciHtrpFwStatusEventdoneEventSendtoMsgQueue
      00FF3784H   CODE     ---       PciHtrpGetRssiEventSendtoMsgQueue
      00FF90EEH   CODE     ---       PciHtrpHwStatusEventdoneEventSendtoMsgQueue
      00FFA67EH   CODE     ---       PciHtrpPerEventdoneEventSendtoMsgQueue
      00FF4519H   CODE     ---       pciQueueGetandMacIntQueueAdd
*SFR* 00000087H   DATA     BYTE      PCON
      0000AF27H   EDATA    ---       pHalBmuMemSizeHwRxq
      0000AF2BH   EDATA    ---       pHalBmuMemSizeHwSwRxq
      0000AF07H   EDATA    ---       pHalFwCfg
      0000AF0FH   EDATA    ---       pHalHwCfg
      0000AF2FH   EDATA    ---       pHalHwPara
      0000AF33H   EDATA    ---       pHalHwTab
      0000AF13H   EDATA    ---       pHalMdmDefaultCfg
      0000B094H   EDATA    ---       pHalPktCfg
      0000AF1FH   EDATA    ---       pHalPmuDefaultCfg2G
      0000AF23H   EDATA    ---       pHalPmuDefaultCfgSubG
      0000B0DAH   EDATA    ---       pHalPrtclCfg
      0000AF0BH   EDATA    ---       pHalRegPatch
      0000AF17H   EDATA    ---       pHalRfDefaultCfg2G
      0000AF1BH   EDATA    ---       pHalRfDefaultCfgSubG
      00FF074BH   HCONST   ---       phyConfig
      00FF082BH   HCONST   ---       phyTabBpFir15Tap
      00FF0833H   HCONST   ---       phyTabBpFir31Tap
      00FF0843H   HCONST   ---       phyTabIfMap
      00FF084BH   HCONST   ---       phyTabIfMapDclk
      0000B2D0H   EDATA    ---       pll_choice
      00FF13A3H   HCONST   ---       pllFreqBandTab
      00FF13FFH   HCONST   ---       pMemMapBmuLinkTable
      00FF13FDH   HCONST   ---       pMemMapExtData
      00FF13FBH   HCONST   ---       pMemMapSharedBuffer
      00FF02B2H   HCONST   ---       pmuConfig
*SFR* 000000D8H.6 DATA     BIT       PORF
*SFR* 000000B8H.6 DATA     BIT       PPC
*SFR* 000000B8H.4 DATA     BIT       PS
*SFR* 000000B8H.4 DATA     BIT       PS0
*SFR* 000000B8H.6 DATA     BIT       PS1
*SFR* 000000D0H   DATA     BYTE      PSW
*SFR* 000000D1H   DATA     BYTE      PSW1
*SFR* 000000B8H.1 DATA     BIT       PT0
*SFR* 000000B8H.3 DATA     BIT       PT1
L251 LINKER/LOCATER V4.66.93.0                                                        07/01/2025  14:01:01  PAGE 26


*SFR* 000000B8H.5 DATA     BIT       PT2
*SFR* 000000B8H.0 DATA     BIT       PX0
*SFR* 000000B8H.2 DATA     BIT       PX1
      00FF57F6H   CODE     ---       Q_Init
      00FF3713H   CODE     ---       Q_MemAlloc
      00FF5848H   CODE     ---       Q_MemFree
      00FF582EH   CODE     ---       Q_MemFreeCount
      00FF36FBH   CODE     ---       Q_MemGet
      00FF586BH   CODE     ---       Q_QChageType
      00FF5090H   CODE     ---       Q_QFree
      00FF52D5H   CODE     ---       Q_QGet
      00FF5855H   CODE     ---       Q_QLenGet
      00FF59FFH   CODE     ---       Q_QMoveBack
      00FF52C8H   CODE     ---       Q_QNumGet
      00FF4E11H   CODE     ---       Q_QPushBack
      00FF5941H   CODE     ---       Q_QPushFront
      00FF58A5H   CODE     ---       Q_QRemove
      0000B3ADH   EDATA    BYTE      r2t_need_set
      00FF284EH   CODE     ---       R2tTask_Set
*SFR* 00000098H.2 DATA     BIT       RB8
*SFR* 000000C0H.2 DATA     BIT       RB81
*SFR* 000000CBH   DATA     BYTE      RCAP2H
*SFR* 000000CAH   DATA     BYTE      RCAP2L
*SFR* 000000C8H.5 DATA     BIT       RCLK
*SFR* 000000B0H.7 DATA     BIT       RD
*SFR* 00000098H.4 DATA     BIT       REN
*SFR* 000000C0H.4 DATA     BIT       REN1
      00FF5E26H   CODE     ---       Reverse_Uint32cpy
      00FF1502H   CODE     ---       RF_Task_AllStop
      00FF1830H   CODE     ---       RF_Task_En
      00FF1915H   CODE     ---       RF_Task_Set
      00FF01E2H   HCONST   ---       rfConfig
      00FF039AH   HCONST   ---       rfTabSideBnadK
*SFR* 00000098H.0 DATA     BIT       RI
*SFR* 000000C0H.0 DATA     BIT       RI1
*SFR* 000000CBH   DATA     BYTE      RLDH
*SFR* 000000CAH   DATA     BYTE      RLDL
*SFR* 000000D0H.3 DATA     BIT       RS0
*SFR* 000000D0H.4 DATA     BIT       RS1
      00FF17BFH   CODE     ---       RTC_ClkGet?_
      00FF6011H   CODE     ---       RTC_Init
      00FF675CH   CODE     ---       RTC_IsrHdlr
      00FF17DAH   CODE     ---       RTC_IsrHdlrInit
      0000B2CAH   EDATA    BYTE      rtc_q_cnt
      00FF1FE1H   CODE     ---       RTC_TickGapCount
      00FF5A7FH   CODE     ---       RTC_TimerConfig
      00FF5F7CH   CODE     ---       RTC_TimerWakeUpDisable
      00FF5FEBH   CODE     ---       RTC_TriggerWithinUs
      00FF426FH   CODE     ---       RTC_uDelay
      00FF5FE1H   CODE     ---       RTC_WaitForTriggered
*SFR* 000000D4H   DATA     BYTE      RTCCON
*SFR* 000000D7H   DATA     BYTE      RTCICR
*SFR* 000000D6H   DATA     BYTE      RTCREG
*SFR* 000000D5H   DATA     BYTE      RTCSEC
      00FF13DEH   HCONST   ---       Ruci_ElmtNum_GetCrcReportEvent
      00FF136DH   HCONST   ---       Ruci_ElmtNum_GetFwVerEvent
      00FF13D5H   HCONST   ---       Ruci_ElmtNum_GetRegEvent
      00FF137AH   HCONST   ---       Ruci_ElmtNum_GetTemperatureRptEvent
      00FF1384H   HCONST   ---       Ruci_ElmtNum_GetVoltageRptEvent
      00FF13CBH   HCONST   ---       Ruci_ElmtNum_RxControlField
      00FF12D8H   HCONST   ---       Ruci_ElmtNum_Set15p4AddressFilter
      00FF12EAH   HCONST   ---       Ruci_ElmtNum_Set15p4MacPib
      00FF12FBH   HCONST   ---       Ruci_ElmtNum_Set15p4PhyPib
      00FF11EBH   HCONST   ---       Ruci_ElmtNum_Set2ChScanFrequency
      00FF131BH   HCONST   ---       Ruci_ElmtNum_SetBleMac
L251 LINKER/LOCATER V4.66.93.0                                                        07/01/2025  14:01:01  PAGE 27


      00FF1307H   HCONST   ---       Ruci_ElmtNum_SetCslReceiverCtrl
      00FF1200H   HCONST   ---       Ruci_ElmtNum_SetDutyCycle
      00FF13F7H   HCONST   ---       Ruci_ElmtNum_SetFskSfd
      00FF1330H   HCONST   ---       Ruci_ElmtNum_SetHtrpPara
      00FF1396H   HCONST   ---       Ruci_ElmtNum_SetPmuMpkSetting
      00FF122EH   HCONST   ---       Ruci_ElmtNum_SetRfeRxEnable
      00FF1213H   HCONST   ---       Ruci_ElmtNum_SetRfeTxEnable
      00FF11CDH   HCONST   ---       Ruci_ElmtNum_SetRfFrequency
      00FF11E1H   HCONST   ---       Ruci_ElmtNum_SetRxEnable
      00FF11F6H   HCONST   ---       Ruci_ElmtNum_SetRxReserveEnable
      00FF13C0H   HCONST   ---       Ruci_ElmtNum_SetTxControlField
      00FF11D7H   HCONST   ---       Ruci_ElmtNum_SetWakeOnRadio
      00FF1310H   HCONST   ---       Ruci_ElmtNum_UpdateCslSampleTime
      00FF13D9H   HCONST   ---       Ruci_ElmtType_GetCrcReportEvent
      00FF1365H   HCONST   ---       Ruci_ElmtType_GetFwVerEvent
      00FF13D1H   HCONST   ---       Ruci_ElmtType_GetRegEvent
      00FF1375H   HCONST   ---       Ruci_ElmtType_GetTemperatureRptEvent
      00FF137FH   HCONST   ---       Ruci_ElmtType_GetVoltageRptEvent
      00FF13C5H   HCONST   ---       Ruci_ElmtType_RxControlField
      00FF12D0H   HCONST   ---       Ruci_ElmtType_Set15p4AddressFilter
      00FF12E0H   HCONST   ---       Ruci_ElmtType_Set15p4MacPib
      00FF12F4H   HCONST   ---       Ruci_ElmtType_Set15p4PhyPib
      00FF11E5H   HCONST   ---       Ruci_ElmtType_Set2ChScanFrequency
      00FF1314H   HCONST   ---       Ruci_ElmtType_SetBleMac
      00FF1302H   HCONST   ---       Ruci_ElmtType_SetCslReceiverCtrl
      00FF11FBH   HCONST   ---       Ruci_ElmtType_SetDutyCycle
      00FF13F3H   HCONST   ---       Ruci_ElmtType_SetFskSfd
      00FF1322H   HCONST   ---       Ruci_ElmtType_SetHtrpPara
      00FF1389H   HCONST   ---       Ruci_ElmtType_SetPmuMpkSetting
      00FF1221H   HCONST   ---       Ruci_ElmtType_SetRfeRxEnable
      00FF1205H   HCONST   ---       Ruci_ElmtType_SetRfeTxEnable
      00FF11C9H   HCONST   ---       Ruci_ElmtType_SetRfFrequency
      00FF11DDH   HCONST   ---       Ruci_ElmtType_SetRxEnable
      00FF11F1H   HCONST   ---       Ruci_ElmtType_SetRxReserveEnable
      00FF13BBH   HCONST   ---       Ruci_ElmtType_SetTxControlField
      00FF11D1H   HCONST   ---       Ruci_ElmtType_SetWakeOnRadio
      00FF130CH   HCONST   ---       Ruci_ElmtType_UpdateCslSampleTime
      00FF3E71H   CODE     ---       RUCI_endianConvert
*SFR* 000000D8H.0 DATA     BIT       RWT
      0000B2CCH   EDATA    DWORD     RX_done_time
*SFR* 000000B0H.0 DATA     BIT       RXD
      0000B321H   EDATA    BYTE      rxscan_reg_status
      00FF86EEH   CODE     ---       RxTask_AlwaysOn_Set
      00FF9FFEH   CODE     ---       RxTask_RxTimer_Set
      00FFA00CH   CODE     ---       RxTask_Timeout_Set
*SFR* 000000A9H   DATA     BYTE      SADDR
*SFR* 000000B9H   DATA     BYTE      SADEN
      0000B684H   EDATA    ---       sBmuCtrlPara
*SFR* 00000099H   DATA     BYTE      SBUF
*SFR* 000000C1H   DATA     BYTE      SBUF1
*SFR* 00000098H   DATA     BYTE      SCON
*SFR* 000000C0H   DATA     BYTE      SCON1
      00FF413BH   CODE     ---       SetRfIdle
      0000AF37H   EDATA    ---       sHalCtrl
      0000B096H   EDATA    ---       sHalFuncHdlr
      00FF1119H   HCONST   ---       sHalFwCfg
      00FF1127H   HCONST   ---       sHalHwCfgBLE
      00FF115DH   HCONST   ---       sHalHwCfgWisun
      00FF1193H   HCONST   ---       sHalHwCfgZigbee
      00FF0851H   HCONST   ---       sHalHwPara
      00FF08CAH   HCONST   ---       sHalHwTab
      00FF128CH   HCONST   ---       sHalParaIndDefault
      0000B065H   EDATA    ---       sHalPktCfg
      00FF133EH   HCONST   ---       sHalPrtclCfg
      0000B661H   EDATA    ---       sHalRfkCtrl
L251 LINKER/LOCATER V4.66.93.0                                                        07/01/2025  14:01:01  PAGE 28


*SFR* 00000098H.7 DATA     BIT       SM0
*SFR* 000000C0H.7 DATA     BIT       SM01
*SFR* 00000098H.6 DATA     BIT       SM1
*SFR* 000000C0H.6 DATA     BIT       SM11
*SFR* 00000098H.5 DATA     BIT       SM2
*SFR* 000000C0H.5 DATA     BIT       SM21
      0000B62CH   EDATA    ---       sMsgCtrl
*SFR* 00000081H   DATA     BYTE      SP
*SFR* 000000ECH   DATA     BYTE      SPCR
*SFR* 000000EEH   DATA     BYTE      SPDR
*SFR* 000000BEH   DATA     BYTE      SPH
*SFR* 000000EDH   DATA     BYTE      SPSR
      0000AC71H   EDATA    ---       sQCtrl
      0000AC7DH   EDATA    ---       sQHeader
      0000ACF5H   EDATA    ---       sQPayload
*SFR* 000000EFH   DATA     BYTE      SSCR
      00FF49ACH   CODE     ---       SYS_EnterSleepCheck
      00FF4FF5H   CODE     ---       SYS_EnterSleepGuard
      00FFEF00H   CODE     ---       SYS_EnterWaitI
      00FF500BH   CODE     ---       SYS_Idle_Task
      00FF1441H   CODE     ---       SYS_IdleTaskInit
      00FF1460H   CODE     ---       SYS_IdleTaskIntInit
      00FF30FEH   CODE     ---       SYS_InfoRegInit
      00FF1408H   CODE     ---       SYS_Init
      00FF272DH   CODE     ---       SYS_isClkAPassOverClkB
      00FF4832H   CODE     ---       SYS_Rand
      00FF493AH   CODE     ---       SYS_Sleep
      00FF4A8BH   CODE     ---       SYS_SleepMinTimeGet
      00FF313EH   CODE     ---       SYS_Task_Block
      00FF17FAH   CODE     ---       SYS_Task_Register
      00FF3FFDH   CODE     ---       SYS_Task_Run
      00FF1F8FH   CODE     ---       SYS_Task_UnBlock
      00FF4929H   CODE     ---       SYS_TimerInit
      00FF1771H   CODE     ---       SYS_TRAP
*SFR* 000000B0H.4 DATA     BIT       T0
*SFR* 000000B0H.5 DATA     BIT       T1
*SFR* 00000090H.0 DATA     BIT       T2
*SFR* 000000C8H.2 DATA     BIT       T2CM
*SFR* 000000C8H   DATA     BYTE      T2CON
*SFR* 00000090H.1 DATA     BIT       T2EX
*SFR* 000000C8H.0 DATA     BIT       T2I0
*SFR* 000000C8H.1 DATA     BIT       T2I1
*SFR* 000000C9H   DATA     BYTE      T2IF
*SFR* 000000C9H   DATA     BYTE      T2MOD
*SFR* 000000C8H.7 DATA     BIT       T2PS
*SFR* 000000C8H.3 DATA     BIT       T2R0
*SFR* 000000C8H.4 DATA     BIT       T2R1
      00FF19D3H   CODE     ---       T2RTask_Set
*SFR* 000000EBH   DATA     BYTE      TA
*SFR* 00000098H.3 DATA     BIT       TB8
*SFR* 000000C0H.3 DATA     BIT       TB81
*SFR* 0000009FH   DATA     BYTE      TB_SFR_REG
*SFR* 000000C8H.4 DATA     BIT       TCLK
*SFR* 00000088H   DATA     BYTE      TCON
*SFR* 00000088H.5 DATA     BIT       TF0
*SFR* 00000088H.7 DATA     BIT       TF1
*SFR* 000000C8H.7 DATA     BIT       TF2
*SFR* 0000008CH   DATA     BYTE      TH0
*SFR* 0000008DH   DATA     BYTE      TH1
*SFR* 000000CDH   DATA     BYTE      TH2
*SFR* 00000098H.1 DATA     BIT       TI
*SFR* 000000C0H.1 DATA     BIT       TI1
*SFR* 0000008AH   DATA     BYTE      TL0
*SFR* 0000008BH   DATA     BYTE      TL1
*SFR* 000000CCH   DATA     BYTE      TL2
L251 LINKER/LOCATER V4.66.93.0                                                        07/01/2025  14:01:01  PAGE 29


*SFR* 00000089H   DATA     BYTE      TMOD
*SFR* 00000088H.4 DATA     BIT       TR0
*SFR* 00000088H.6 DATA     BIT       TR1
*SFR* 000000C8H.2 DATA     BIT       TR2
      00FF186BH   CODE     ---       TrtTask_Set
      00FFA3E8H   CODE     ---       TxContTask_Set
*SFR* 000000B0H.1 DATA     BIT       TXD
      0000B69EH   EDATA    ---       txPwrCtrlArray
      00FFA4EDH   CODE     ---       TxRtcTask_Set
      00FFA4A8H   CODE     ---       TxTask_Set
*SFR* 000000D0H.1 DATA     BIT       UD
*SFR* 00000096H   DATA     BYTE      USBADDR
*SFR* 00000097H   DATA     BYTE      USBDATA
      0000B310H   EDATA    ---       vco_choice
*SFR* 000000D8H   DATA     BYTE      WDCON
*SFR* 000000D8H.3 DATA     BIT       WDIF
*SFR* 000000A6H   DATA     BYTE      WDTRST
*SFR* 000000B0H.6 DATA     BIT       WR
*SFR* 000000D8H.2 DATA     BIT       WTRF
*SFR* 00000092H   DATA     BYTE      WTST
*SFR* 000000D1H.1 DATA     BIT       Z_B



LINKER CODE PACKING SYMBOLS OF MODULE:  .\obj\RT569 (?C_START)


      VALUE       CLASS    TYPE      SYMBOL NAME
      ==========================================
      00FF69C4H   CODE     BEGIN     ?L?COM0001
      00FF69C4H   CODE     END       ?L?COM0002
      00FF69C4H   CODE     END       ?L?COM0003
      00FF36F7H   CODE     BEGIN     ?L?COM0004
      00FF35C6H   CODE     BEGIN     ?L?COM0005
      00FF35C6H   CODE     END       ?L?COM0006
      00FF6597H   CODE     PART      ?L?COM0007
      00FF6597H   CODE     END       ?L?COM0008
      00FF1F85H   CODE     BEGIN     ?L?COM0009
      00FF1F85H   CODE     END       ?L?COM000A
      00FF4691H   CODE     PART      ?L?COM000B
      00FF4691H   CODE     END       ?L?COM000C
      00FF7D0DH   CODE     BEGIN     ?L?COM000D
      00FF271CH   CODE     BEGIN     ?L?COM000E
      00FF60EDH   CODE     PART      ?L?COM000F
      00FF60EDH   CODE     END       ?L?COM0010
      00FF296BH   CODE     PART      ?L?COM0011
      00FF296BH   CODE     END       ?L?COM0012
      00FF2FEAH   CODE     PART      ?L?COM0013
      00FF6405H   CODE     BEGIN     ?L?COM0014
      00FF2263H   CODE     BEGIN     ?L?COM0015
      00FF4E03H   CODE     BEGIN     ?L?COM0016
      00FF4E03H   CODE     END       ?L?COM0017
      00FF4E03H   CODE     END       ?L?COM0018
      00FF77CAH   CODE     PART      ?L?COM0019
      00FF77CAH   CODE     END       ?L?COM001A
      00FF6154H   CODE     BEGIN     ?L?COM001B
      00FF64C8H   CODE     PART      ?L?COM001C
      00FF64C8H   CODE     END       ?L?COM001D
      00FF313AH   CODE     BEGIN     ?L?COM001E
      00FF6D68H   CODE     BEGIN     ?L?COM001F
      00FF6D68H   CODE     END       ?L?COM0020
      00FF6D68H   CODE     END       ?L?COM0021
      00FFDBDAH   CODE     PART      ?L?COM0022
      00FF45FBH   CODE     PART      ?L?COM0023
      00FF4267H   CODE     BEGIN     ?L?COM0024
L251 LINKER/LOCATER V4.66.93.0                                                        07/01/2025  14:01:01  PAGE 30


      00FF3FB9H   CODE     PART      ?L?COM0025
      00FF3FB9H   CODE     END       ?L?COM0026
      00FF8217H   CODE     BEGIN     ?L?COM0027
      00FF8217H   CODE     END       ?L?COM0028
      00FF1FCFH   CODE     BEGIN     ?L?COM0029
      00FF43EDH   CODE     BEGIN     ?L?COM002A
      00FF43EDH   CODE     END       ?L?COM002B
      00FF6357H   CODE     PART      ?L?COM002C
      00FF605BH   CODE     PART      ?L?COM002D
      00FF2CBEH   CODE     BEGIN     ?L?COM002E
      00FF2CBEH   CODE     END       ?L?COM002F
      00FF79DCH   CODE     BEGIN     ?L?COM0030
      00FF2DAFH   CODE     BEGIN     ?L?COM0031
      00FF817CH   CODE     BEGIN     ?L?COM0032
      00FF3597H   CODE     BEGIN     ?L?COM0033
      00FFCE87H   CODE     PART      ?L?COM0034
      00FF7AC2H   CODE     BEGIN     ?L?COM0035
      00FFD00DH   CODE     BEGIN     ?L?COM0036
      00FFB08EH   CODE     BEGIN     ?L?COM0037
      00FF68D5H   CODE     BEGIN     ?L?COM0038
      00FF9B68H   CODE     BEGIN     ?L?COM0039
      00FF3E67H   CODE     BEGIN     ?L?COM003A
      00FF33C6H   CODE     BEGIN     ?L?COM003B
      00FF2044H   CODE     BEGIN     ?L?COM003C
      00FF39CEH   CODE     BEGIN     ?L?COM003D
      00FF39CEH   CODE     END       ?L?COM003E
      00FF6363H   CODE     PART      ?L?COM003F
      00FF9B4CH   CODE     PART      ?L?COM0040
      00FF636FH   CODE     PART      ?L?COM0041
      00FFBE8CH   CODE     PART      ?L?COM0042
      00FFB38CH   CODE     PART      ?L?COM0043
      00FF1FE8H   CODE     BEGIN     ?L?COM0044
      00FF1AF8H   CODE     BEGIN     ?L?COM0045
      00FF1829H   CODE     BEGIN     ?L?COM0046
      00FFA456H   CODE     PART      ?L?COM0047
      00FF4A95H   CODE     PART      ?L?COM0048
      00FF4647H   CODE     BEGIN     ?L?COM0049
      00FFBED9H   CODE     PART      ?L?COM004A
      00FF865DH   CODE     BEGIN     ?L?COM004B
      00FF176CH   CODE     BEGIN     ?L?COM004C
      00FF53AEH   CODE     BEGIN     ?L?COM004D
      00FF43CCH   CODE     BEGIN     ?L?COM004E
      00FFC4F8H   CODE     BEGIN     ?L?COM004F
      00FFC211H   CODE     PART      ?L?COM0050
      00FF3CAEH   CODE     BEGIN     ?L?COM0051
      00FF7FE2H   CODE     PART      ?L?COM0052
      00FF482EH   CODE     BEGIN     ?L?COM0053
      00FF2153H   CODE     BEGIN     ?L?COM0054
      00FF40ECH   CODE     BEGIN     ?L?COM0055
      00FF273CH   CODE     BEGIN     ?L?COM0056
      00FF52C4H   CODE     BEGIN     ?L?COM0057
      00FF57CBH   CODE     BEGIN     ?L?COM0058
      00FF4137H   CODE     BEGIN     ?L?COM0059



SYMBOL TABLE OF MODULE:  .\obj\RT569 (?C_START)

      VALUE       REP       CLASS    TYPE      SYMBOL NAME
      ====================================================
      ---         MODULE    ---      ---       ?C_START
      00FF0000H   PUBLIC    CODE     ---       ?C?STARTUP
      00FF0000H   PUBLIC    CODE     ---       ?C_STARTUP
      000000D0H.6 SFRSYM    DATA     BIT       AC
      000000E0H   SFRSYM    DATA     BYTE      ACC
L251 LINKER/LOCATER V4.66.93.0                                                        07/01/2025  14:01:01  PAGE 31


      0000009DH   SFRSYM    DATA     BYTE      ACON
      000000F0H   SFRSYM    DATA     BYTE      B
      000000CEH   SFRSYM    DATA     BYTE      CCEN
      000000C3H   SFRSYM    DATA     BYTE      CCH1
      000000C5H   SFRSYM    DATA     BYTE      CCH2
      000000C7H   SFRSYM    DATA     BYTE      CCH3
      000000C2H   SFRSYM    DATA     BYTE      CCL1
      000000C4H   SFRSYM    DATA     BYTE      CCL2
      000000C6H   SFRSYM    DATA     BYTE      CCL3
      00000090H.3 SFRSYM    DATA     BIT       CEX0
      00000090H.4 SFRSYM    DATA     BIT       CEX1
      00000090H.5 SFRSYM    DATA     BIT       CEX2
      00000090H.6 SFRSYM    DATA     BIT       CEX3
      00000090H.7 SFRSYM    DATA     BIT       CEX4
      0000008EH   SFRSYM    DATA     BYTE      CKCON
      000000D8H.7 SFRSYM    DATA     BIT       CPUSRF
      000000C8H.0 SFRSYM    DATA     BIT       CP_RL2
      000000CBH   SFRSYM    DATA     BYTE      CRCH
      000000CAH   SFRSYM    DATA     BYTE      CRCL
      000000D0H.7 SFRSYM    DATA     BIT       CY
      000000C8H.1 SFRSYM    DATA     BIT       C_T2
      000000CFH   SFRSYM    DATA     BYTE      DEVICR
      0000008FH   SFRSYM    DATA     BYTE      DMAIR
      00000083H   SFRSYM    DATA     BYTE      DPH
      00000083H   SFRSYM    DATA     BYTE      DPH1
      00000082H   SFRSYM    DATA     BYTE      DPL
      00000082H   SFRSYM    DATA     BYTE      DPL1
      00000086H   SFRSYM    DATA     BYTE      DPS
      00000084H   SFRSYM    DATA     BYTE      DPX1
      00000084H   SFRSYM    DATA     BYTE      DPXL
      000000A8H.7 SFRSYM    DATA     BIT       EA
      00000090H.2 SFRSYM    DATA     BIT       ECI
      000000E8H   SFRSYM    DATA     BYTE      EIE
      00000091H   SFRSYM    DATA     BYTE      EIF
      000000F8H   SFRSYM    DATA     BYTE      EIP
      000000B6H   SFRSYM    DATA     BYTE      EIPH
      000000B6H   SFRSYM    DATA     BYTE      EIPH0
      000000F8H   SFRSYM    DATA     BYTE      EIPL
      000000A8H.4 SFRSYM    DATA     BIT       ES
      000000A8H.4 SFRSYM    DATA     BIT       ES0
      000000A8H.6 SFRSYM    DATA     BIT       ES1
      000000A8H.1 SFRSYM    DATA     BIT       ET0
      000000A8H.3 SFRSYM    DATA     BIT       ET1
      000000A8H.5 SFRSYM    DATA     BIT       ET2
      000000D8H.1 SFRSYM    DATA     BIT       EWT
      000000A8H.0 SFRSYM    DATA     BIT       EX0
      000000A8H.2 SFRSYM    DATA     BIT       EX1
      000000C8H.3 SFRSYM    DATA     BIT       EXEN2
      000000C8H.6 SFRSYM    DATA     BIT       EXF2
      000000D0H.5 SFRSYM    DATA     BIT       F0
      00000098H.7 SFRSYM    DATA     BIT       FE
      000000F6H   SFRSYM    DATA     BYTE      I2CM_BUF
      000000F5H   SFRSYM    DATA     BYTE      I2CM_CR
      000000F4H   SFRSYM    DATA     BYTE      I2CM_SA
      000000F7H   SFRSYM    DATA     BYTE      I2CM_TP
      000000F1H   SFRSYM    DATA     BYTE      I2CS_ADDR
      000000F3H   SFRSYM    DATA     BYTE      I2CS_BUF
      000000F2H   SFRSYM    DATA     BYTE      I2CS_CR
      000000C8H.5 SFRSYM    DATA     BIT       I2FR
      000000C8H.6 SFRSYM    DATA     BIT       I3FR
      000000A8H   SFRSYM    DATA     BYTE      IE
      00000088H.1 SFRSYM    DATA     BIT       IE0
      00000088H.3 SFRSYM    DATA     BIT       IE1
      000000B1H   SFRSYM    DATA     BYTE      IEH
      000000A8H   SFRSYM    DATA     BYTE      IEL
L251 LINKER/LOCATER V4.66.93.0                                                        07/01/2025  14:01:01  PAGE 32


      000000B0H.2 SFRSYM    DATA     BIT       INT0
      000000B0H.3 SFRSYM    DATA     BIT       INT1
      000000B8H   SFRSYM    DATA     BYTE      IP
      000000B7H   SFRSYM    DATA     BYTE      IPH
      000000B7H   SFRSYM    DATA     BYTE      IPH0
      000000B8H   SFRSYM    DATA     BYTE      IPL
      000000B8H   SFRSYM    DATA     BYTE      IPL0
      00000088H.0 SFRSYM    DATA     BIT       IT0
      00000088H.2 SFRSYM    DATA     BIT       IT1
      000000EAH   SFRSYM    DATA     BYTE      MXAX
      000000D1H.5 SFRSYM    DATA     BIT       N_B
      000000D0H.2 SFRSYM    DATA     BIT       OV
      000000D0H.0 SFRSYM    DATA     BIT       P
      00000080H   SFRSYM    DATA     BYTE      P0
      00000090H   SFRSYM    DATA     BYTE      P1
      000000A0H   SFRSYM    DATA     BYTE      P2
      000000B0H   SFRSYM    DATA     BYTE      P3
      00000087H   SFRSYM    DATA     BYTE      PCON
      000000D8H.6 SFRSYM    DATA     BIT       PORF
      000000B8H.4 SFRSYM    DATA     BIT       PS
      000000B8H.4 SFRSYM    DATA     BIT       PS0
      000000B8H.6 SFRSYM    DATA     BIT       PS1
      000000D0H   SFRSYM    DATA     BYTE      PSW
      000000D1H   SFRSYM    DATA     BYTE      PSW1
      000000B8H.1 SFRSYM    DATA     BIT       PT0
      000000B8H.3 SFRSYM    DATA     BIT       PT1
      000000B8H.5 SFRSYM    DATA     BIT       PT2
      000000B8H.0 SFRSYM    DATA     BIT       PX0
      000000B8H.2 SFRSYM    DATA     BIT       PX1
      00000098H.2 SFRSYM    DATA     BIT       RB8
      000000C0H.2 SFRSYM    DATA     BIT       RB81
      000000CBH   SFRSYM    DATA     BYTE      RCAP2H
      000000CAH   SFRSYM    DATA     BYTE      RCAP2L
      000000C8H.5 SFRSYM    DATA     BIT       RCLK
      000000B0H.7 SFRSYM    DATA     BIT       RD
      00000098H.4 SFRSYM    DATA     BIT       REN
      000000C0H.4 SFRSYM    DATA     BIT       REN1
      00000098H.0 SFRSYM    DATA     BIT       RI
      000000C0H.0 SFRSYM    DATA     BIT       RI1
      000000CBH   SFRSYM    DATA     BYTE      RLDH
      000000CAH   SFRSYM    DATA     BYTE      RLDL
      000000D0H.3 SFRSYM    DATA     BIT       RS0
      000000D0H.4 SFRSYM    DATA     BIT       RS1
      000000D4H   SFRSYM    DATA     BYTE      RTCCON
      000000D7H   SFRSYM    DATA     BYTE      RTCICR
      000000D6H   SFRSYM    DATA     BYTE      RTCREG
      000000D5H   SFRSYM    DATA     BYTE      RTCSEC
      000000D8H.0 SFRSYM    DATA     BIT       RWT
      000000B0H.0 SFRSYM    DATA     BIT       RXD
      000000A9H   SFRSYM    DATA     BYTE      SADDR
      000000B9H   SFRSYM    DATA     BYTE      SADEN
      00000099H   SFRSYM    DATA     BYTE      SBUF
      000000C1H   SFRSYM    DATA     BYTE      SBUF1
      00000098H   SFRSYM    DATA     BYTE      SCON
      000000C0H   SFRSYM    DATA     BYTE      SCON1
      00000098H.7 SFRSYM    DATA     BIT       SM0
      000000C0H.7 SFRSYM    DATA     BIT       SM01
      00000098H.6 SFRSYM    DATA     BIT       SM1
      000000C0H.6 SFRSYM    DATA     BIT       SM11
      00000098H.5 SFRSYM    DATA     BIT       SM2
      000000C0H.5 SFRSYM    DATA     BIT       SM21
      00000081H   SFRSYM    DATA     BYTE      SP
      000000ECH   SFRSYM    DATA     BYTE      SPCR
      000000EEH   SFRSYM    DATA     BYTE      SPDR
      000000BEH   SFRSYM    DATA     BYTE      SPH
L251 LINKER/LOCATER V4.66.93.0                                                        07/01/2025  14:01:01  PAGE 33


      000000EDH   SFRSYM    DATA     BYTE      SPSR
      000000EFH   SFRSYM    DATA     BYTE      SSCR
      000000B0H.4 SFRSYM    DATA     BIT       T0
      000000B0H.5 SFRSYM    DATA     BIT       T1
      00000090H.0 SFRSYM    DATA     BIT       T2
      000000C8H.2 SFRSYM    DATA     BIT       T2CM
      000000C8H   SFRSYM    DATA     BYTE      T2CON
      00000090H.1 SFRSYM    DATA     BIT       T2EX
      000000C8H.0 SFRSYM    DATA     BIT       T2I0
      000000C8H.1 SFRSYM    DATA     BIT       T2I1
      000000C9H   SFRSYM    DATA     BYTE      T2IF
      000000C9H   SFRSYM    DATA     BYTE      T2MOD
      000000C8H.7 SFRSYM    DATA     BIT       T2PS
      000000C8H.3 SFRSYM    DATA     BIT       T2R0
      000000C8H.4 SFRSYM    DATA     BIT       T2R1
      000000EBH   SFRSYM    DATA     BYTE      TA
      00000098H.3 SFRSYM    DATA     BIT       TB8
      000000C0H.3 SFRSYM    DATA     BIT       TB81
      0000009FH   SFRSYM    DATA     BYTE      TB_SFR_REG
      000000C8H.4 SFRSYM    DATA     BIT       TCLK
      00000088H   SFRSYM    DATA     BYTE      TCON
      00000088H.5 SFRSYM    DATA     BIT       TF0
      00000088H.7 SFRSYM    DATA     BIT       TF1
      000000C8H.7 SFRSYM    DATA     BIT       TF2
      0000008CH   SFRSYM    DATA     BYTE      TH0
      0000008DH   SFRSYM    DATA     BYTE      TH1
      000000CDH   SFRSYM    DATA     BYTE      TH2
      00000098H.1 SFRSYM    DATA     BIT       TI
      000000C0H.1 SFRSYM    DATA     BIT       TI1
      0000008AH   SFRSYM    DATA     BYTE      TL0
      0000008BH   SFRSYM    DATA     BYTE      TL1
      000000CCH   SFRSYM    DATA     BYTE      TL2
      00000089H   SFRSYM    DATA     BYTE      TMOD
      00000088H.4 SFRSYM    DATA     BIT       TR0
      00000088H.6 SFRSYM    DATA     BIT       TR1
      000000C8H.2 SFRSYM    DATA     BIT       TR2
      000000B0H.1 SFRSYM    DATA     BIT       TXD
      00000096H   SFRSYM    DATA     BYTE      USBADDR
      00000097H   SFRSYM    DATA     BYTE      USBDATA
      000000D8H   SFRSYM    DATA     BYTE      WDCON
      000000D8H.3 SFRSYM    DATA     BIT       WDIF
      000000A6H   SFRSYM    DATA     BYTE      WDTRST
      000000B0H.6 SFRSYM    DATA     BIT       WR
      000000D8H.2 SFRSYM    DATA     BIT       WTRF
      00000092H   SFRSYM    DATA     BYTE      WTST
      000000D1H.1 SFRSYM    DATA     BIT       Z_B
      00FF1FF8H   SYMBOL    NUMBER   ---       CFGADDR
      00FF1FFFH   SYMBOL    NUMBER   ---       CODEHIGH
      00002000H   SYMBOL    NUMBER   ---       EDATALEN
      00FF0117H   SYMBOL    CODE     ---       EDATALOOP
      0000A000H   SYMBOL    NUMBER   ---       EDATASTART
      00000001H   SYMBOL    NUMBER   ---       INTR
      00000010H   SYMBOL    NUMBER   ---       RTCACAP_B
      00000040H   SYMBOL    NUMBER   ---       RTCBSY_B
      00000040H   SYMBOL    NUMBER   ---       RTCCAP_B
      00000080H   SYMBOL    NUMBER   ---       RTCEN_B
      00000008H   SYMBOL    NUMBER   ---       RTCRLD_B
      00000020H   SYMBOL    NUMBER   ---       RTCRST_B
      00000008H   SYMBOL    NUMBER   ---       RTCSET_B
      00000001H   SYMBOL    NUMBER   ---       SRCM
      00000300H   SYMBOL    NUMBER   ---       STACKSIZE
      00FF010CH   SYMBOL    CODE     ---       STARTUP1
      00000000H   SYMBOL    NUMBER   ---       XDATALEN

      00FF0000H   BLOCK     CODE     NEAR LAB  LVL=0
L251 LINKER/LOCATER V4.66.93.0                                                        07/01/2025  14:01:01  PAGE 34


      00FF0000H   LINE      CODE     ---       #86
      ---         BLOCKEND  ---      ---       LVL=0

      00FF010CH   BLOCK     CODE     NEAR LAB  LVL=0
      00FF010CH   LINE      CODE     ---       #92
      00FF010FH   LINE      CODE     ---       #95
      00FF0112H   LINE      CODE     ---       #96
      00FF0116H   LINE      CODE     ---       #97
      00FF0117H   LINE      CODE     ---       #99
      00FF0118H   LINE      CODE     ---       #100
      00FF0119H   LINE      CODE     ---       #101
      00FF011BH   LINE      CODE     ---       #102
      00FF011DH   LINE      CODE     ---       #115
      00FF011FH   LINE      CODE     ---       #116
      ---         BLOCKEND  ---      ---       LVL=0

      00FF014CH   BLOCK     CODE     NEAR LAB  LVL=0
      00FF014CH   LINE      CODE     ---       #121
      ---         BLOCKEND  ---      ---       LVL=0

      ---         MODULE    ---      ---       main
      00FF1401H   PUBLIC    CODE     ---       main

      00FF1401H   BLOCK     CODE     ---       LVL=0
      00FF1401H   LINE      ---      ---       #24
      00FF1401H   LINE      ---      ---       #26
      00FF1403H   LINE      ---      ---       #27
      00FF1403H   LINE      ---      ---       #29
      00FF1406H   LINE      ---      ---       #30
      ---         BLOCKEND  ---      ---       LVL=0

      ---         MODULE    ---      ---       rf_task_ctrl
      00FF1830H   PUBLIC    CODE     ---       RF_Task_En
      00FF1502H   PUBLIC    CODE     ---       RF_Task_AllStop
      00FF1915H   PUBLIC    CODE     ---       RF_Task_Set

      00FF1829H   BLOCK     CODE     ---       LVL=0
      00FF1830H   LINE      ---      ---       #43
      00FF1829H   SYMBOL    CODE     NEAR LAB  ?L?COM0046
      R11         REGSYM    ---      BYTE      enTask
      R10         REGSYM    ---      BYTE      mode
      00FF1832H   BLOCK     CODE     NEAR LAB  LVL=1
      00FF1832H   LINE      ---      ---       #51
      00FF1846H   LINE      ---      ---       #57
      00FF184FH   LINE      ---      ---       #58
      00FF1859H   LINE      ---      ---       #63
      00FF185EH   LINE      ---      ---       #68
      00FF186AH   LINE      ---      ---       #69
      REG=4       REGSYM    ---      ---       pRegTaskCtrlByte
      ---         BLOCKEND  CODE     ---       LVL=1
      ---         BLOCKEND  CODE     ---       LVL=0

      00FF1502H   BLOCK     CODE     ---       LVL=0
      00FF1502H   LINE      ---      ---       #80
      00FF1502H   LINE      ---      ---       #82
      00FF150EH   LINE      ---      ---       #83
      00FF1513H   LINE      ---      ---       #94
      00FF151FH   LINE      ---      ---       #95
      00FF152BH   LINE      ---      ---       #97
      00FF1537H   LINE      ---      ---       #98
      00FF1543H   LINE      ---      ---       #100
      ---         BLOCKEND  ---      ---       LVL=0

      00FF1915H   BLOCK     CODE     ---       LVL=0
      00FF1915H   LINE      ---      ---       #162
L251 LINKER/LOCATER V4.66.93.0                                                        07/01/2025  14:01:01  PAGE 35


      REG=1       REGSYM    ---      ---       pTaskCtrl
      R10         REGSYM    ---      BYTE      taskNum
      00FF1919H   BLOCK     CODE     NEAR LAB  LVL=1
      00FF1919H   LINE      ---      ---       #170
      00FF1923H   LINE      ---      ---       #171
      00FF1926H   LINE      ---      ---       #172
      00FF1926H   LINE      ---      ---       #174
      00FF1930H   LINE      ---      ---       #176
      00FF1936H   LINE      ---      ---       #177
      00FF1936H   LINE      ---      ---       #212
      00FF193FH   LINE      ---      ---       #228
      00FF194EH   LINE      ---      ---       #229
      00FF195FH   LINE      ---      ---       #230
      00FF1967H   LINE      ---      ---       #231
      00FF1971H   LINE      ---      ---       #233
      00FF197DH   LINE      ---      ---       #234
      00FF1989H   LINE      ---      ---       #235
      00FF1995H   LINE      ---      ---       #236
      00FF19A1H   LINE      ---      ---       #238
      00FF19ADH   LINE      ---      ---       #239
      00FF19B9H   LINE      ---      ---       #240
      00FF19C5H   LINE      ---      ---       #241
      00FF19D1H   LINE      ---      ---       #244
      REG=0       REGSYM    ---      ---       pRegTaskCtrlByte
      ---         BLOCKEND  CODE     ---       LVL=1
      00FF19D2H   LINE      ---      ---       #246
      00FF19D2H   LINE      CODE     ---       #246

      ---         MODULE    ---      ---       intr_rf
      00FF302DH   PUBLIC    CODE     ---       INTR_Clear
      00FF3056H   PUBLIC    CODE     ---       INTR_ClearRtcGrp
      00FF17F5H   PUBLIC    CODE     ---       INTR_Enable
      00FF3067H   PUBLIC    CODE     ---       INTR_Rf_Hdlr
      00FF146CH   PUBLIC    CODE     ---       INTR_Rf_Register
      0000B4BAH   PUBLIC    EDATA    ---       gIntrRegMask
      0000B4C2H   PUBLIC    EDATA    ---       gIntrRfHdlrTable
      000000A8H.0 SFRSYM    DATA     BIT       EX0
      000000A8H.7 SFRSYM    DATA     BIT       EA
      00FF30FDH   SYMBOL    CODE     ---       INTR_Rf_NullHdlr

      00FF30FDH   BLOCK     CODE     ---       LVL=0
      00FF30FDH   LINE      ---      ---       #40
      00FF30FDH   LINE      ---      ---       #41
      00FF30FDH   LINE      ---      ---       #42
      00FF30FDH   LINE      ---      ---       #43
      ---         BLOCKEND  ---      ---       LVL=0

      00FF302DH   BLOCK     CODE     ---       LVL=0
      00FF302DH   LINE      ---      ---       #49
      00FF302DH   LINE      ---      ---       #51
      00FF302FH   LINE      ---      ---       #52
      00FF3038H   LINE      ---      ---       #54
      00FF3047H   LINE      ---      ---       #55
      00FF3055H   LINE      ---      ---       #56
      ---         BLOCKEND  ---      ---       LVL=0

      00FF3056H   BLOCK     CODE     ---       LVL=0
      00FF3056H   LINE      ---      ---       #59
      00FF3056H   LINE      ---      ---       #62
      00FF3066H   LINE      ---      ---       #63
      ---         BLOCKEND  ---      ---       LVL=0

      00FF17F5H   BLOCK     CODE     ---       LVL=0
      00FF17F5H   LINE      ---      ---       #66
      00FF17F5H   LINE      ---      ---       #68
L251 LINKER/LOCATER V4.66.93.0                                                        07/01/2025  14:01:01  PAGE 36


      00FF17F7H   LINE      ---      ---       #70
      00FF17F9H   LINE      ---      ---       #71
      ---         BLOCKEND  ---      ---       LVL=0

      00FF3067H   BLOCK     CODE     ---       LVL=0
      00FF3067H   LINE      ---      ---       #82
      00FF3069H   LINE      ---      ---       #83
      R6          REGSYM    ---      BYTE      intId
      R10         REGSYM    ---      BYTE      intSts
      ---         BLOCKEND  ---      ---       LVL=0

      00FF146CH   BLOCK     CODE     ---       LVL=0
      00FF146CH   LINE      ---      ---       #98
      00FF1470H   LINE      ---      ---       #101
      00FF1479H   LINE      ---      ---       #106
      00FF147CH   LINE      ---      ---       #107
      00FF147CH   LINE      ---      ---       #109
      00FF1484H   LINE      ---      ---       #110
      00FF14B7H   LINE      ---      ---       #112
      00FF14B8H   LINE      ---      ---       #113
      R1          REGSYM    ---      BYTE      intId
      WR30        REGSYM    ---      WORD      enMask
      REG=2       REGSYM    ---      ---       intHdlr
      ---         BLOCKEND  ---      ---       LVL=0

      ---         MODULE    ---      ---       sys_init
      00FF1408H   PUBLIC    CODE     ---       SYS_Init
      00FF30FEH   PUBLIC    CODE     ---       SYS_InfoRegInit

      00FF30FEH   BLOCK     CODE     ---       LVL=0
      00FF30FEH   LINE      ---      ---       #101
      00FF30FEH   LINE      ---      ---       #104
      00FF310AH   LINE      ---      ---       #107
      00FF3115H   LINE      ---      ---       #108
      00FF311EH   LINE      ---      ---       #111
      00FF3127H   LINE      ---      ---       #114
      00FF3130H   LINE      ---      ---       #118
      00FF3139H   LINE      ---      ---       #122
      ---         BLOCKEND  ---      ---       LVL=0

      00FF1408H   BLOCK     CODE     ---       LVL=0
      00FF1408H   LINE      ---      ---       #132
      00FF1408H   LINE      ---      ---       #135
      00FF140BH   LINE      ---      ---       #154
      00FF140EH   LINE      ---      ---       #158
      00FF1411H   LINE      ---      ---       #165
      00FF1427H   LINE      ---      ---       #169
      00FF142CH   LINE      ---      ---       #173
      00FF142EH   LINE      ---      ---       #174
      00FF1431H   LINE      ---      ---       #193
      00FF1433H   LINE      ---      ---       #197
      00FF1435H   LINE      ---      ---       #200
      00FF1437H   LINE      ---      ---       #204
      00FF1440H   LINE      ---      ---       #211
      ---         BLOCKEND  ---      ---       LVL=0

      ---         MODULE    ---      ---       sys_task
      00FF313EH   PUBLIC    CODE     ---       SYS_Task_Block
      00FF1F8FH   PUBLIC    CODE     ---       SYS_Task_UnBlock
      00FF17FAH   PUBLIC    CODE     ---       SYS_Task_Register
      00FF3FFDH   PUBLIC    CODE     ---       SYS_Task_Run
      0000B61DH   PUBLIC    EDATA    BYTE      gTaskMask
      0000B61EH   PUBLIC    EDATA    ---       gTaskTable
      00FF402BH   SYMBOL    CODE     ---       SYS_Null_Task

L251 LINKER/LOCATER V4.66.93.0                                                        07/01/2025  14:01:01  PAGE 37


      00FF402BH   BLOCK     CODE     ---       LVL=0
      00FF402BH   LINE      ---      ---       #36
      00FF402BH   LINE      ---      ---       #37
      00FF402BH   LINE      ---      ---       #38
      ---         BLOCKEND  ---      ---       LVL=0

      00FF313AH   BLOCK     CODE     ---       LVL=0
      00FF313EH   LINE      ---      ---       #52
      00FF3142H   LINE      ---      ---       #55
      00FF314BH   LINE      ---      ---       #56
      00FF314EH   LINE      ---      ---       #57
      00FF314EH   LINE      ---      ---       #59
      00FF3166H   LINE      ---      ---       #61
      00FF313AH   SYMBOL    CODE     NEAR LAB  ?L?COM001E
      R11         REGSYM    ---      BYTE      hdlTask
      R15         REGSYM    ---      BYTE      blkTask
      ---         BLOCKEND  ---      ---       LVL=0

      00FF1F85H   BLOCK     CODE     ---       LVL=0
      00FF1F8FH   LINE      ---      ---       #71
      00FF1F93H   LINE      ---      ---       #74
      00FF1F9CH   LINE      ---      ---       #75
      00FF1F9FH   LINE      ---      ---       #76
      00FF1F9FH   LINE      ---      ---       #78
      00FF1FB4H   LINE      ---      ---       #80
      00FF1F85H   SYMBOL    CODE     NEAR LAB  ?L?COM0009
      R11         REGSYM    ---      BYTE      hdlTask
      R15         REGSYM    ---      BYTE      blkTask
      ---         BLOCKEND  ---      ---       LVL=0

      00FF17FAH   BLOCK     CODE     ---       LVL=0
      00FF17FAH   LINE      ---      ---       #91
      00FF17FEH   LINE      ---      ---       #92
      00FF1807H   LINE      ---      ---       #93
      00FF180AH   LINE      ---      ---       #94
      00FF180AH   LINE      ---      ---       #95
      00FF1812H   LINE      ---      ---       #96
      00FF1827H   LINE      ---      ---       #97
      00FF1828H   LINE      ---      ---       #98
      R5          REGSYM    ---      BYTE      taskId
      REG=4       REGSYM    ---      ---       taskFunc
      ---         BLOCKEND  ---      ---       LVL=0

      00FF3FFDH   BLOCK     CODE     ---       LVL=0
      00FF3FFDH   LINE      ---      ---       #107
      00FF3FFDH   BLOCK     CODE     NEAR LAB  LVL=1
      00FF3FFDH   LINE      ---      ---       #112
      00FF3FFDH   LINE      ---      ---       #113
      00FF3FFFH   LINE      ---      ---       #114
      00FF3FFFH   LINE      ---      ---       #115
      00FF4018H   LINE      ---      ---       #116
      00FF4022H   LINE      ---      ---       #117
      00FF4022H   LINE      ---      ---       #118
      00FF4024H   LINE      ---      ---       #119
      00FF4029H   LINE      ---      ---       #120
      R15         REGSYM    ---      BYTE      taskId
      ---         BLOCKEND  CODE     ---       LVL=1
      ---         BLOCKEND  CODE     ---       LVL=0

      ---         MODULE    ---      ---       isr_hdlr
      00FF3076H   PUBLIC    CODE     ---       ISR_0_Hdlr
      00FF402CH   PUBLIC    CODE     ---       ISR_CLEAR_MAC_STATUS
      00FF481EH   PUBLIC    CODE     ---       ISR_GET_MAC_STATUS
      00FF482DH   PUBLIC    CODE     ---       ISR_1_Hdlr
      000000A8H.7 SFRSYM    DATA     BIT       EA
L251 LINKER/LOCATER V4.66.93.0                                                        07/01/2025  14:01:01  PAGE 38



      00FF3076H   BLOCK     CODE     ---       LVL=0
      00FF3076H   LINE      ---      ---       #18
      00FF308BH   BLOCK     CODE     NEAR LAB  LVL=1
      00FF308BH   LINE      ---      ---       #27
      00FF308DH   LINE      ---      ---       #30
      00FF309AH   LINE      ---      ---       #31
      00FF30A1H   LINE      ---      ---       #34
      00FF30A7H   LINE      ---      ---       #35
      00FF30ADH   LINE      ---      ---       #36
      00FF30ADH   LINE      ---      ---       #39
      00FF30B2H   LINE      ---      ---       #41
      00FF30B8H   LINE      ---      ---       #42
      00FF30B8H   LINE      ---      ---       #46
      00FF30BFH   LINE      ---      ---       #47
      00FF30C2H   LINE      ---      ---       #48
      00FF30C2H   LINE      ---      ---       #51
      00FF30C9H   LINE      ---      ---       #52
      00FF30CDH   LINE      ---      ---       #53
      00FF30CDH   LINE      ---      ---       #61
      00FF30DAH   LINE      ---      ---       #62
      00FF30E8H   LINE      ---      ---       #65
      R14         REGSYM    ---      BYTE      bmuStatus
      R15         REGSYM    ---      BYTE      macStatus
      ---         BLOCKEND  CODE     ---       LVL=1
      00FF30EAH   LINE      ---      ---       #67
      00FF30EAH   LINE      CODE     ---       #67

      00FF402CH   BLOCK     CODE     ---       LVL=0
      00FF402CH   LINE      ---      ---       #69
      00FF402EH   LINE      ---      ---       #71
      00FF403CH   LINE      ---      ---       #72
      R0          REGSYM    ---      BYTE      status
      ---         BLOCKEND  ---      ---       LVL=0

      00FF481EH   BLOCK     CODE     ---       LVL=0
      00FF481EH   LINE      ---      ---       #74
      00FF481EH   LINE      ---      ---       #76
      00FF482CH   LINE      ---      ---       #77
      ---         BLOCKEND  ---      ---       LVL=0

      00FF482DH   BLOCK     CODE     ---       LVL=0
      00FF482DH   LINE      ---      ---       #81
      00FF482DH   LINE      ---      ---       #96
      ---         BLOCKEND  ---      ---       LVL=0

      ---         MODULE    ---      ---       sys_ctrl
      00FF1771H   PUBLIC    CODE     ---       SYS_TRAP
      00FF272DH   PUBLIC    CODE     ---       SYS_isClkAPassOverClkB
      00FF4832H   PUBLIC    CODE     ---       SYS_Rand
      00FF1441H   PUBLIC    CODE     ---       SYS_IdleTaskInit
      00FF4929H   PUBLIC    CODE     ---       SYS_TimerInit
      00FF493AH   PUBLIC    CODE     ---       SYS_Sleep
      00FF4FF5H   PUBLIC    CODE     ---       SYS_EnterSleepGuard
      00FF49ACH   PUBLIC    CODE     ---       SYS_EnterSleepCheck
      00FF4A8BH   PUBLIC    CODE     ---       SYS_SleepMinTimeGet
      00FFEF00H   PUBLIC    CODE     ---       SYS_EnterWaitI
      00FF500BH   PUBLIC    CODE     ---       SYS_Idle_Task
      00FF1460H   PUBLIC    CODE     ---       SYS_IdleTaskIntInit
      0000B5FFH   PUBLIC    EDATA    DWORD     gLastWakeTick
      0000B603H   PUBLIC    EDATA    ---       gSysEntry_Sleep
      000000A8H.1 SFRSYM    DATA     BIT       ET0
      000000A8H.7 SFRSYM    DATA     BIT       EA
      00000088H.4 SFRSYM    DATA     BIT       TR0
      0000008EH   SFRSYM    DATA     BYTE      CKCON
L251 LINKER/LOCATER V4.66.93.0                                                        07/01/2025  14:01:01  PAGE 39


      0000008CH   SFRSYM    DATA     BYTE      TH0
      0000008AH   SFRSYM    DATA     BYTE      TL0
      00000089H   SFRSYM    DATA     BYTE      TMOD
      00000087H   SFRSYM    DATA     BYTE      PCON
      000000BEH   SFRSYM    DATA     BYTE      SPH
      00000081H   SFRSYM    DATA     BYTE      SP
      00000080H   SFRSYM    DATA     BYTE      P0

      00FF4FF5H   BLOCK     CODE     ---       LVL=0
      00FF4FF5H   LINE      ---      ---       #66
      00FF4FF5H   LINE      ---      ---       #67
      ---         BLOCKEND  ---      ---       LVL=0

      00FF49ACH   BLOCK     CODE     ---       LVL=0
      00FF49ACH   LINE      ---      ---       #70
      00FF49AEH   BLOCK     CODE     NEAR LAB  LVL=1
      00FF49AEH   LINE      ---      ---       #72
      00FF49B0H   LINE      ---      ---       #75
      00FF49BEH   LINE      ---      ---       #76
      00FF49C1H   LINE      ---      ---       #77
      00FF49C1H   LINE      ---      ---       #85
      00FF49C5H   LINE      ---      ---       #86
      00FF49C8H   LINE      ---      ---       #87
      00FF49C8H   LINE      ---      ---       #90
      00FF49CCH   LINE      ---      ---       #91
      00FF49CFH   LINE      ---      ---       #92
      00FF49CFH   LINE      ---      ---       #94
      R15         REGSYM    ---      BYTE      check
      ---         BLOCKEND  CODE     ---       LVL=1
      00FF49D8H   LINE      ---      ---       #95
      00FF49D8H   LINE      CODE     ---       #95

      00FF4A8BH   BLOCK     CODE     ---       LVL=0
      00FF4A8BH   LINE      ---      ---       #105
      00FF4A8BH   LINE      ---      ---       #117
      00FF4A8FH   LINE      ---      ---       #119
      ---         BLOCKEND  ---      ---       LVL=0

      00FFEF00H   BLOCK     CODE     ---       LVL=0
      00FFEF00H   LINE      ---      ---       #134
      00FFEF00H   LINE      ---      ---       #136
      00FFEF01H   LINE      ---      ---       #137
      00FFEF10H   LINE      ---      ---       #138
      ---         BLOCKEND  ---      ---       LVL=0

      00FF493AH   BLOCK     CODE     ---       LVL=0
      00FF493AH   LINE      ---      ---       #148
      00FF493CH   LINE      ---      ---       #150
      00FF4949H   LINE      ---      ---       #155
      00FF494BH   LINE      ---      ---       #156
      00FF494FH   LINE      ---      ---       #158
      00FF4952H   LINE      ---      ---       #160
      00FF495DH   LINE      ---      ---       #161
      00FF495DH   LINE      ---      ---       #162
      00FF495FH   LINE      ---      ---       #163
      00FF4966H   LINE      ---      ---       #165
      00FF496DH   LINE      ---      ---       #167
      00FF4970H   LINE      ---      ---       #168
      00FF4973H   LINE      ---      ---       #169
      00FF4975H   LINE      ---      ---       #173
      00FF499EH   LINE      ---      ---       #174
      00FF499EH   LINE      ---      ---       #175
      00FF499EH   LINE      ---      ---       #177
      00FF49A5H   LINE      ---      ---       #178
      00FF49A7H   LINE      ---      ---       #180
L251 LINKER/LOCATER V4.66.93.0                                                        07/01/2025  14:01:01  PAGE 40


      00FF49A9H   LINE      ---      ---       #181
      ---         BLOCKEND  ---      ---       LVL=0

      00FF500BH   BLOCK     CODE     ---       LVL=0
      00FF500BH   LINE      ---      ---       #192
      00FF500BH   LINE      ---      ---       #195
      00FF500DH   LINE      ---      ---       #207
      00FF5010H   LINE      ---      ---       #211
      00FF5016H   LINE      ---      ---       #214
      ---         BLOCKEND  ---      ---       LVL=0

      00FF1460H   BLOCK     CODE     ---       LVL=0
      00FF1460H   LINE      ---      ---       #232
      00FF1460H   LINE      ---      ---       #236
      ---         BLOCKEND  ---      ---       LVL=0

      00FF1441H   BLOCK     CODE     ---       LVL=0
      00FF1441H   LINE      ---      ---       #248
      00FF1441H   LINE      ---      ---       #250
      00FF1449H   LINE      ---      ---       #251
      00FF144BH   LINE      ---      ---       #255
      ---         BLOCKEND  ---      ---       LVL=0

      00FF4929H   BLOCK     CODE     ---       LVL=0
      00FF4929H   LINE      ---      ---       #269
      00FF4929H   LINE      ---      ---       #284
      00FF492CH   LINE      ---      ---       #285
      00FF492FH   LINE      ---      ---       #286
      00FF4932H   LINE      ---      ---       #287
      00FF4935H   LINE      ---      ---       #288
      00FF4937H   LINE      ---      ---       #289
      00FF4939H   LINE      ---      ---       #294
      ---         BLOCKEND  ---      ---       LVL=0

      00FF271CH   BLOCK     CODE     ---       LVL=0
      00FF272DH   LINE      ---      ---       #304
      00FF272FH   LINE      ---      ---       #306
      00FF273BH   LINE      ---      ---       #307
      00FF271CH   SYMBOL    CODE     NEAR LAB  ?L?COM000E
      DR4         REGSYM    ---      DWORD     clkA
      DR8         REGSYM    ---      DWORD     clkB
      ---         BLOCKEND  ---      ---       LVL=0

      00FF176CH   BLOCK     CODE     ---       LVL=0
      00FF1771H   LINE      ---      ---       #342
      00FF1771H   LINE      ---      ---       #343
      00FF176CH   SYMBOL    CODE     NEAR LAB  ?L?COM004C
      00FF1771H   BLOCK     CODE     NEAR LAB  LVL=1
      00FF1771H   LINE      ---      ---       #347
      00FF177FH   LINE      ---      ---       #348
      00FF1783H   LINE      ---      ---       #350
      00FF1791H   LINE      ---      ---       #352
      00FF179AH   LINE      ---      ---       #354
      00FF179AH   LINE      ---      ---       #356
      00FF179DH   LINE      ---      ---       #357
      00FF17A0H   LINE      ---      ---       #358
      00FF17A5H   LINE      ---      ---       #359
      00FF17A8H   LINE      ---      ---       #360
      00FF17AEH   LINE      ---      ---       #361
      00FF17B1H   LINE      ---      ---       #362
      REG=3       REGSYM    ---      ---       stackPtr
      REG=1       REGSYM    ---      ---       assertReportPtr
      ---         BLOCKEND  CODE     ---       LVL=1
      ---         BLOCKEND  CODE     ---       LVL=0

L251 LINKER/LOCATER V4.66.93.0                                                        07/01/2025  14:01:01  PAGE 41


      00FF482EH   BLOCK     CODE     ---       LVL=0
      00FF4832H   LINE      ---      ---       #367
      00FF483AH   LINE      ---      ---       #368
      00FF482EH   SYMBOL    CODE     NEAR LAB  ?L?COM0053
      REG=1       REGSYM    ---      ---       seed
      REG=7       REGSYM    ---      ---       output
      R13         REGSYM    ---      BYTE      outputLen
      00FF483AH   BLOCK     CODE     NEAR LAB  LVL=1
      00FF483AH   LINE      ---      ---       #373
      00FF483FH   LINE      ---      ---       #374
      00FF4842H   LINE      ---      ---       #380
      00FF4855H   LINE      ---      ---       #381
      00FF4864H   LINE      ---      ---       #384
      00FF486CH   LINE      ---      ---       #386
      00FF4870H   LINE      ---      ---       #397
      00FF488BH   LINE      ---      ---       #400
      00FF4895H   LINE      ---      ---       #401
      00FF48A9H   LINE      ---      ---       #402
      00FF48ABH   LINE      ---      ---       #404
      00FF48C0H   LINE      ---      ---       #405
      00FF48C0H   LINE      ---      ---       #406
      0000B605H   SYMBOL    EDATA    DWORD     seed2
      R12         REGSYM    ---      BYTE      i
      0000B609H   SYMBOL    EDATA    ---       pSeed
      ---         BLOCKEND  CODE     ---       LVL=1
      00FF48C6H   LINE      ---      ---       #407
      00FF48C6H   LINE      CODE     ---       #407

      ---         MODULE    ---      ---       SYS_MEM
      00FF014FH   PUBLIC    CODE     ---       ASM_MEMSET
      000000D0H.6 SFRSYM    DATA     BIT       AC
      000000D8H.0 SFRSYM    DATA     BIT       CCF0
      000000D8H.1 SFRSYM    DATA     BIT       CCF1
      000000D8H.2 SFRSYM    DATA     BIT       CCF2
      000000D8H.3 SFRSYM    DATA     BIT       CCF3
      000000D8H.4 SFRSYM    DATA     BIT       CCF4
      00000090H.3 SFRSYM    DATA     BIT       CEX0
      00000090H.4 SFRSYM    DATA     BIT       CEX1
      00000090H.5 SFRSYM    DATA     BIT       CEX2
      00000090H.6 SFRSYM    DATA     BIT       CEX3
      00000090H.7 SFRSYM    DATA     BIT       CEX4
      000000D8H.7 SFRSYM    DATA     BIT       CF
      000000C8H.0 SFRSYM    DATA     BIT       CP_RL2
      000000D8H.6 SFRSYM    DATA     BIT       CR
      000000D0H.7 SFRSYM    DATA     BIT       CY
      000000C8H.1 SFRSYM    DATA     BIT       C_T2
      000000A8H.7 SFRSYM    DATA     BIT       EA
      000000A8H.6 SFRSYM    DATA     BIT       EC
      00000090H.2 SFRSYM    DATA     BIT       ECI
      000000A8H.4 SFRSYM    DATA     BIT       ES
      000000A8H.1 SFRSYM    DATA     BIT       ET0
      000000A8H.3 SFRSYM    DATA     BIT       ET1
      000000A8H.5 SFRSYM    DATA     BIT       ET2
      000000A8H.0 SFRSYM    DATA     BIT       EX0
      000000A8H.2 SFRSYM    DATA     BIT       EX1
      000000C8H.3 SFRSYM    DATA     BIT       EXEN2
      000000C8H.6 SFRSYM    DATA     BIT       EXF2
      000000D0H.5 SFRSYM    DATA     BIT       F0
      00000098H.7 SFRSYM    DATA     BIT       FE
      00000088H.1 SFRSYM    DATA     BIT       IE0_
      00000088H.3 SFRSYM    DATA     BIT       IE1_
      000000B0H.2 SFRSYM    DATA     BIT       INT0
      000000B0H.3 SFRSYM    DATA     BIT       INT1
      00000088H.0 SFRSYM    DATA     BIT       IT0
      00000088H.2 SFRSYM    DATA     BIT       IT1
L251 LINKER/LOCATER V4.66.93.0                                                        07/01/2025  14:01:01  PAGE 42


      000000D0H.2 SFRSYM    DATA     BIT       OV
      000000D0H.0 SFRSYM    DATA     BIT       P
      000000B8H.6 SFRSYM    DATA     BIT       PPC
      000000B8H.4 SFRSYM    DATA     BIT       PS
      000000B8H.1 SFRSYM    DATA     BIT       PT0
      000000B8H.3 SFRSYM    DATA     BIT       PT1
      000000B8H.5 SFRSYM    DATA     BIT       PT2
      000000B8H.0 SFRSYM    DATA     BIT       PX0
      000000B8H.2 SFRSYM    DATA     BIT       PX1
      00000098H.2 SFRSYM    DATA     BIT       RB8
      000000C8H.5 SFRSYM    DATA     BIT       RCLK
      000000B0H.7 SFRSYM    DATA     BIT       RD
      00000098H.4 SFRSYM    DATA     BIT       REN
      00000098H.0 SFRSYM    DATA     BIT       RI
      000000D0H.3 SFRSYM    DATA     BIT       RS0
      000000D0H.4 SFRSYM    DATA     BIT       RS1
      000000B0H.0 SFRSYM    DATA     BIT       RXD
      00000098H.7 SFRSYM    DATA     BIT       SM0
      00000098H.6 SFRSYM    DATA     BIT       SM1
      00000098H.5 SFRSYM    DATA     BIT       SM2
      000000B0H.4 SFRSYM    DATA     BIT       T0
      000000B0H.5 SFRSYM    DATA     BIT       T1
      00000090H.0 SFRSYM    DATA     BIT       T2
      00000090H.1 SFRSYM    DATA     BIT       T2EX
      00000098H.3 SFRSYM    DATA     BIT       TB8
      000000C8H.4 SFRSYM    DATA     BIT       TCLK
      00000088H.5 SFRSYM    DATA     BIT       TF0
      00000088H.7 SFRSYM    DATA     BIT       TF1
      000000C8H.7 SFRSYM    DATA     BIT       TF2
      00000098H.1 SFRSYM    DATA     BIT       TI
      00000088H.4 SFRSYM    DATA     BIT       TR0
      00000088H.6 SFRSYM    DATA     BIT       TR1
      000000C8H.2 SFRSYM    DATA     BIT       TR2
      000000B0H.1 SFRSYM    DATA     BIT       TXD
      000000D0H.1 SFRSYM    DATA     BIT       UD
      000000B0H.6 SFRSYM    DATA     BIT       WR
      000000E0H   SYMBOL    NUMBER   ---       ACC
      00FF0163H   SYMBOL    CODE     ---       ASM_MEMSET?0
      00FF016CH   SYMBOL    CODE     ---       ASM_MEMSET?1
      00FF0172H   SYMBOL    CODE     ---       ASM_MEMSET?2
      00FF018CH   SYMBOL    CODE     ---       ASM_MEMSET?DEAD?0
      00FF018BH   SYMBOL    CODE     ---       ASM_MEMSET?DONE?
      000000F0H   SYMBOL    NUMBER   ---       B
      000000FAH   SYMBOL    NUMBER   ---       CCAP0H
      000000EAH   SYMBOL    NUMBER   ---       CCAP0L
      000000FBH   SYMBOL    NUMBER   ---       CCAP1H
      000000EBH   SYMBOL    NUMBER   ---       CCAP1L
      000000FCH   SYMBOL    NUMBER   ---       CCAP2H
      000000ECH   SYMBOL    NUMBER   ---       CCAP2L
      000000FDH   SYMBOL    NUMBER   ---       CCAP3H
      000000EDH   SYMBOL    NUMBER   ---       CCAP3L
      000000FEH   SYMBOL    NUMBER   ---       CCAP4H
      000000EEH   SYMBOL    NUMBER   ---       CCAP4L
      000000DAH   SYMBOL    NUMBER   ---       CCAPM0
      000000DBH   SYMBOL    NUMBER   ---       CCAPM1
      000000DCH   SYMBOL    NUMBER   ---       CCAPM2
      000000DDH   SYMBOL    NUMBER   ---       CCAPM3
      000000DEH   SYMBOL    NUMBER   ---       CCAPM4
      000000D8H   SYMBOL    NUMBER   ---       CCON
      000000F9H   SYMBOL    NUMBER   ---       CH
      000000E9H   SYMBOL    NUMBER   ---       CL
      000000D9H   SYMBOL    NUMBER   ---       CMOD
      00000083H   SYMBOL    NUMBER   ---       DPH
      00000082H   SYMBOL    NUMBER   ---       DPL
      00000084H   SYMBOL    NUMBER   ---       DPXL
L251 LINKER/LOCATER V4.66.93.0                                                        07/01/2025  14:01:01  PAGE 43


      000000A8H   SYMBOL    NUMBER   ---       IE0
      000000B7H   SYMBOL    NUMBER   ---       IPH0
      000000B8H   SYMBOL    NUMBER   ---       IPL0
      00000080H   SYMBOL    NUMBER   ---       P0
      00000090H   SYMBOL    NUMBER   ---       P1
      000000A0H   SYMBOL    NUMBER   ---       P2
      000000B0H   SYMBOL    NUMBER   ---       P3
      00000087H   SYMBOL    NUMBER   ---       PCON
      000000D0H   SYMBOL    NUMBER   ---       PSW
      000000D1H   SYMBOL    NUMBER   ---       PSW1
      000000CBH   SYMBOL    NUMBER   ---       RCAP2H
      000000CAH   SYMBOL    NUMBER   ---       RCAP2L
      000000A9H   SYMBOL    NUMBER   ---       SADDR
      000000B9H   SYMBOL    NUMBER   ---       SADEN
      00000099H   SYMBOL    NUMBER   ---       SBUF
      00000098H   SYMBOL    NUMBER   ---       SCON
      00000081H   SYMBOL    NUMBER   ---       SP
      000000BEH   SYMBOL    NUMBER   ---       SPH
      000000C8H   SYMBOL    NUMBER   ---       T2CON
      000000C9H   SYMBOL    NUMBER   ---       T2MOD
      00000088H   SYMBOL    NUMBER   ---       TCON
      0000008CH   SYMBOL    NUMBER   ---       TH0
      0000008DH   SYMBOL    NUMBER   ---       TH1
      000000CDH   SYMBOL    NUMBER   ---       TH2
      0000008AH   SYMBOL    NUMBER   ---       TL0
      0000008BH   SYMBOL    NUMBER   ---       TL1
      000000CCH   SYMBOL    NUMBER   ---       TL2
      00000089H   SYMBOL    NUMBER   ---       TMOD
      000000A7H   SYMBOL    NUMBER   ---       WCON
      000000A6H   SYMBOL    NUMBER   ---       WDTRST

      00FF014FH   BLOCK     CODE     NEAR LAB  LVL=0
      00FF014FH   LINE      CODE     ---       #22
      00FF0151H   LINE      CODE     ---       #23
      00FF0153H   LINE      CODE     ---       #24
      00FF0155H   LINE      CODE     ---       #25
      00FF0157H   LINE      CODE     ---       #26
      00FF015BH   LINE      CODE     ---       #27
      00FF015DH   LINE      CODE     ---       #28
      00FF015FH   LINE      CODE     ---       #29
      00FF0161H   LINE      CODE     ---       #30
      00FF0163H   LINE      CODE     ---       #32
      00FF0166H   LINE      CODE     ---       #33
      00FF0168H   LINE      CODE     ---       #34
      00FF016AH   LINE      CODE     ---       #35
      00FF016CH   LINE      CODE     ---       #37
      00FF016EH   LINE      CODE     ---       #38
      00FF0170H   LINE      CODE     ---       #39
      00FF0172H   LINE      CODE     ---       #41
      00FF0175H   LINE      CODE     ---       #42
      00FF0179H   LINE      CODE     ---       #43
      00FF017DH   LINE      CODE     ---       #44
      00FF0181H   LINE      CODE     ---       #45
      00FF0185H   LINE      CODE     ---       #46
      00FF0189H   LINE      CODE     ---       #47
      00FF018BH   LINE      CODE     ---       #49
      00FF018CH   LINE      CODE     ---       #52
      00FF018EH   LINE      CODE     ---       #53
      ---         BLOCKEND  ---      ---       LVL=0

      ---         MODULE    ---      ---       SYS_MEM2
      00FF00ADH   PUBLIC    CODE     ---       ASM_MEMCPY
      000000D0H.6 SFRSYM    DATA     BIT       AC
      000000D8H.0 SFRSYM    DATA     BIT       CCF0
      000000D8H.1 SFRSYM    DATA     BIT       CCF1
L251 LINKER/LOCATER V4.66.93.0                                                        07/01/2025  14:01:01  PAGE 44


      000000D8H.2 SFRSYM    DATA     BIT       CCF2
      000000D8H.3 SFRSYM    DATA     BIT       CCF3
      000000D8H.4 SFRSYM    DATA     BIT       CCF4
      00000090H.3 SFRSYM    DATA     BIT       CEX0
      00000090H.4 SFRSYM    DATA     BIT       CEX1
      00000090H.5 SFRSYM    DATA     BIT       CEX2
      00000090H.6 SFRSYM    DATA     BIT       CEX3
      00000090H.7 SFRSYM    DATA     BIT       CEX4
      000000D8H.7 SFRSYM    DATA     BIT       CF
      000000C8H.0 SFRSYM    DATA     BIT       CP_RL2
      000000D8H.6 SFRSYM    DATA     BIT       CR
      000000D0H.7 SFRSYM    DATA     BIT       CY
      000000C8H.1 SFRSYM    DATA     BIT       C_T2
      000000A8H.7 SFRSYM    DATA     BIT       EA
      000000A8H.6 SFRSYM    DATA     BIT       EC
      00000090H.2 SFRSYM    DATA     BIT       ECI
      000000A8H.4 SFRSYM    DATA     BIT       ES
      000000A8H.1 SFRSYM    DATA     BIT       ET0
      000000A8H.3 SFRSYM    DATA     BIT       ET1
      000000A8H.5 SFRSYM    DATA     BIT       ET2
      000000A8H.0 SFRSYM    DATA     BIT       EX0
      000000A8H.2 SFRSYM    DATA     BIT       EX1
      000000C8H.3 SFRSYM    DATA     BIT       EXEN2
      000000C8H.6 SFRSYM    DATA     BIT       EXF2
      000000D0H.5 SFRSYM    DATA     BIT       F0
      00000098H.7 SFRSYM    DATA     BIT       FE
      00000088H.1 SFRSYM    DATA     BIT       IE0_
      00000088H.3 SFRSYM    DATA     BIT       IE1_
      000000B0H.2 SFRSYM    DATA     BIT       INT0
      000000B0H.3 SFRSYM    DATA     BIT       INT1
      00000088H.0 SFRSYM    DATA     BIT       IT0
      00000088H.2 SFRSYM    DATA     BIT       IT1
      000000D0H.2 SFRSYM    DATA     BIT       OV
      000000D0H.0 SFRSYM    DATA     BIT       P
      000000B8H.6 SFRSYM    DATA     BIT       PPC
      000000B8H.4 SFRSYM    DATA     BIT       PS
      000000B8H.1 SFRSYM    DATA     BIT       PT0
      000000B8H.3 SFRSYM    DATA     BIT       PT1
      000000B8H.5 SFRSYM    DATA     BIT       PT2
      000000B8H.0 SFRSYM    DATA     BIT       PX0
      000000B8H.2 SFRSYM    DATA     BIT       PX1
      00000098H.2 SFRSYM    DATA     BIT       RB8
      000000C8H.5 SFRSYM    DATA     BIT       RCLK
      000000B0H.7 SFRSYM    DATA     BIT       RD
      00000098H.4 SFRSYM    DATA     BIT       REN
      00000098H.0 SFRSYM    DATA     BIT       RI
      000000D0H.3 SFRSYM    DATA     BIT       RS0
      000000D0H.4 SFRSYM    DATA     BIT       RS1
      000000B0H.0 SFRSYM    DATA     BIT       RXD
      00000098H.7 SFRSYM    DATA     BIT       SM0
      00000098H.6 SFRSYM    DATA     BIT       SM1
      00000098H.5 SFRSYM    DATA     BIT       SM2
      000000B0H.4 SFRSYM    DATA     BIT       T0
      000000B0H.5 SFRSYM    DATA     BIT       T1
      00000090H.0 SFRSYM    DATA     BIT       T2
      00000090H.1 SFRSYM    DATA     BIT       T2EX
      00000098H.3 SFRSYM    DATA     BIT       TB8
      000000C8H.4 SFRSYM    DATA     BIT       TCLK
      00000088H.5 SFRSYM    DATA     BIT       TF0
      00000088H.7 SFRSYM    DATA     BIT       TF1
      000000C8H.7 SFRSYM    DATA     BIT       TF2
      00000098H.1 SFRSYM    DATA     BIT       TI
      00000088H.4 SFRSYM    DATA     BIT       TR0
      00000088H.6 SFRSYM    DATA     BIT       TR1
      000000C8H.2 SFRSYM    DATA     BIT       TR2
L251 LINKER/LOCATER V4.66.93.0                                                        07/01/2025  14:01:01  PAGE 45


      000000B0H.1 SFRSYM    DATA     BIT       TXD
      000000D0H.1 SFRSYM    DATA     BIT       UD
      000000B0H.6 SFRSYM    DATA     BIT       WR
      000000E0H   SYMBOL    NUMBER   ---       ACC
      00FF00C5H   SYMBOL    CODE     ---       ASM_MEMCPY?0
      00FF00D3H   SYMBOL    CODE     ---       ASM_MEMCPY?1
      00FF00D7H   SYMBOL    CODE     ---       ASM_MEMCPY?2
      00FF0104H   SYMBOL    CODE     ---       ASM_MEMCPY?DEAD?0
      00FF0108H   SYMBOL    CODE     ---       ASM_MEMCPY?DEAD?1
      00FF0103H   SYMBOL    CODE     ---       ASM_MEMCPY?DONE?
      000000F0H   SYMBOL    NUMBER   ---       B
      000000FAH   SYMBOL    NUMBER   ---       CCAP0H
      000000EAH   SYMBOL    NUMBER   ---       CCAP0L
      000000FBH   SYMBOL    NUMBER   ---       CCAP1H
      000000EBH   SYMBOL    NUMBER   ---       CCAP1L
      000000FCH   SYMBOL    NUMBER   ---       CCAP2H
      000000ECH   SYMBOL    NUMBER   ---       CCAP2L
      000000FDH   SYMBOL    NUMBER   ---       CCAP3H
      000000EDH   SYMBOL    NUMBER   ---       CCAP3L
      000000FEH   SYMBOL    NUMBER   ---       CCAP4H
      000000EEH   SYMBOL    NUMBER   ---       CCAP4L
      000000DAH   SYMBOL    NUMBER   ---       CCAPM0
      000000DBH   SYMBOL    NUMBER   ---       CCAPM1
      000000DCH   SYMBOL    NUMBER   ---       CCAPM2
      000000DDH   SYMBOL    NUMBER   ---       CCAPM3
      000000DEH   SYMBOL    NUMBER   ---       CCAPM4
      000000D8H   SYMBOL    NUMBER   ---       CCON
      000000F9H   SYMBOL    NUMBER   ---       CH
      000000E9H   SYMBOL    NUMBER   ---       CL
      000000D9H   SYMBOL    NUMBER   ---       CMOD
      00000083H   SYMBOL    NUMBER   ---       DPH
      00000082H   SYMBOL    NUMBER   ---       DPL
      00000084H   SYMBOL    NUMBER   ---       DPXL
      000000A8H   SYMBOL    NUMBER   ---       IE0
      000000B7H   SYMBOL    NUMBER   ---       IPH0
      000000B8H   SYMBOL    NUMBER   ---       IPL0
      00000080H   SYMBOL    NUMBER   ---       P0
      00000090H   SYMBOL    NUMBER   ---       P1
      000000A0H   SYMBOL    NUMBER   ---       P2
      000000B0H   SYMBOL    NUMBER   ---       P3
      00000087H   SYMBOL    NUMBER   ---       PCON
      000000D0H   SYMBOL    NUMBER   ---       PSW
      000000D1H   SYMBOL    NUMBER   ---       PSW1
      000000CBH   SYMBOL    NUMBER   ---       RCAP2H
      000000CAH   SYMBOL    NUMBER   ---       RCAP2L
      000000A9H   SYMBOL    NUMBER   ---       SADDR
      000000B9H   SYMBOL    NUMBER   ---       SADEN
      00000099H   SYMBOL    NUMBER   ---       SBUF
      00000098H   SYMBOL    NUMBER   ---       SCON
      00000081H   SYMBOL    NUMBER   ---       SP
      000000BEH   SYMBOL    NUMBER   ---       SPH
      000000C8H   SYMBOL    NUMBER   ---       T2CON
      000000C9H   SYMBOL    NUMBER   ---       T2MOD
      00000088H   SYMBOL    NUMBER   ---       TCON
      0000008CH   SYMBOL    NUMBER   ---       TH0
      0000008DH   SYMBOL    NUMBER   ---       TH1
      000000CDH   SYMBOL    NUMBER   ---       TH2
      0000008AH   SYMBOL    NUMBER   ---       TL0
      0000008BH   SYMBOL    NUMBER   ---       TL1
      000000CCH   SYMBOL    NUMBER   ---       TL2
      00000089H   SYMBOL    NUMBER   ---       TMOD
      000000A7H   SYMBOL    NUMBER   ---       WCON
      000000A6H   SYMBOL    NUMBER   ---       WDTRST

      00FF00ADH   BLOCK     CODE     NEAR LAB  LVL=0
L251 LINKER/LOCATER V4.66.93.0                                                        07/01/2025  14:01:01  PAGE 46


      00FF00ADH   LINE      CODE     ---       #25
      00FF00AFH   LINE      CODE     ---       #26
      00FF00B1H   LINE      CODE     ---       #28
      00FF00B3H   LINE      CODE     ---       #29
      00FF00B5H   LINE      CODE     ---       #31
      00FF00B7H   LINE      CODE     ---       #32
      00FF00B9H   LINE      CODE     ---       #33
      00FF00BDH   LINE      CODE     ---       #34
      00FF00BFH   LINE      CODE     ---       #35
      00FF00C1H   LINE      CODE     ---       #36
      00FF00C3H   LINE      CODE     ---       #45
      00FF00C5H   LINE      CODE     ---       #48
      00FF00C8H   LINE      CODE     ---       #49
      00FF00CBH   LINE      CODE     ---       #50
      00FF00CDH   LINE      CODE     ---       #51
      00FF00CFH   LINE      CODE     ---       #52
      00FF00D1H   LINE      CODE     ---       #53
      00FF00D3H   LINE      CODE     ---       #56
      00FF00D5H   LINE      CODE     ---       #57
      00FF00D7H   LINE      CODE     ---       #60
      00FF00DAH   LINE      CODE     ---       #61
      00FF00DDH   LINE      CODE     ---       #62
      00FF00E1H   LINE      CODE     ---       #63
      00FF00E5H   LINE      CODE     ---       #64
      00FF00E9H   LINE      CODE     ---       #65
      00FF00EDH   LINE      CODE     ---       #66
      00FF00F1H   LINE      CODE     ---       #67
      00FF00F5H   LINE      CODE     ---       #68
      00FF00F9H   LINE      CODE     ---       #69
      00FF00FDH   LINE      CODE     ---       #70
      00FF0101H   LINE      CODE     ---       #71
      00FF0103H   LINE      CODE     ---       #74
      00FF0104H   LINE      CODE     ---       #77
      00FF0106H   LINE      CODE     ---       #78
      00FF0108H   LINE      CODE     ---       #80
      00FF010AH   LINE      CODE     ---       #81
      ---         BLOCKEND  ---      ---       LVL=0

      ---         MODULE    ---      ---       sys_qctrl
      00FF57F6H   PUBLIC    CODE     ---       Q_Init
      00FF582EH   PUBLIC    CODE     ---       Q_MemFreeCount
      00FF3713H   PUBLIC    CODE     ---       Q_MemAlloc
      00FF5848H   PUBLIC    CODE     ---       Q_MemFree
      00FF36FBH   PUBLIC    CODE     ---       Q_MemGet
      00FF52D5H   PUBLIC    CODE     ---       Q_QGet
      00FF52C8H   PUBLIC    CODE     ---       Q_QNumGet
      00FF5855H   PUBLIC    CODE     ---       Q_QLenGet
      00FF5090H   PUBLIC    CODE     ---       Q_QFree
      00FF4E11H   PUBLIC    CODE     ---       Q_QPushBack
      00FF5941H   PUBLIC    CODE     ---       Q_QPushFront
      00FF59FFH   PUBLIC    CODE     ---       Q_QMoveBack
      00FF586BH   PUBLIC    CODE     ---       Q_QChageType
      00FF58A5H   PUBLIC    CODE     ---       Q_QRemove
      0000AC71H   PUBLIC    EDATA    ---       sQCtrl
      0000AC7DH   PUBLIC    EDATA    ---       sQHeader
      0000ACF5H   PUBLIC    EDATA    ---       sQPayload
      000000A8H.7 SFRSYM    DATA     BIT       EA

      00FF57F6H   BLOCK     CODE     ---       LVL=0
      00FF57F6H   LINE      ---      ---       #32
      00FF57F6H   LINE      ---      ---       #33
      00FF57F6H   BLOCK     CODE     NEAR LAB  LVL=1
      00FF57F6H   LINE      ---      ---       #38
      00FF57F8H   LINE      ---      ---       #40
      00FF5801H   LINE      ---      ---       #41
L251 LINKER/LOCATER V4.66.93.0                                                        07/01/2025  14:01:01  PAGE 47


      00FF5806H   LINE      ---      ---       #42
      00FF580AH   LINE      ---      ---       #43
      00FF580FH   LINE      ---      ---       #44
      00FF5816H   LINE      ---      ---       #47
      00FF5822H   LINE      ---      ---       #50
      REG=4       REGSYM    ---      ---       pQCtrl
      R7          REGSYM    ---      BYTE      qType
      ---         BLOCKEND  CODE     ---       LVL=1
      ---         BLOCKEND  CODE     ---       LVL=0

      00FF582EH   BLOCK     CODE     ---       LVL=0
      00FF582EH   LINE      ---      ---       #54
      00FF582EH   LINE      ---      ---       #55
      00FF582EH   BLOCK     CODE     NEAR LAB  LVL=1
      00FF582EH   LINE      ---      ---       #57
      00FF5830H   LINE      ---      ---       #60
      00FF5832H   LINE      ---      ---       #62
      00FF583CH   LINE      ---      ---       #64
      00FF583EH   LINE      ---      ---       #65
      00FF5845H   LINE      ---      ---       #68
      R6          REGSYM    ---      BYTE      qIdx
      R7          REGSYM    ---      BYTE      freeCnt
      ---         BLOCKEND  CODE     ---       LVL=1
      00FF5847H   LINE      ---      ---       #69
      00FF5847H   LINE      CODE     ---       #69

      00FF3713H   BLOCK     CODE     ---       LVL=0
      00FF3713H   LINE      ---      ---       #72
      00FF3713H   LINE      ---      ---       #73
      00FF3713H   BLOCK     CODE     NEAR LAB  LVL=1
      00FF3713H   LINE      ---      ---       #77
      00FF3715H   LINE      ---      ---       #79
      00FF3720H   LINE      ---      ---       #81
      00FF3726H   LINE      ---      ---       #82
      00FF3728H   LINE      ---      ---       #83
      00FF372FH   LINE      ---      ---       #89
      R7          REGSYM    ---      BYTE      qIdx
      ---         BLOCKEND  CODE     ---       LVL=1
      00FF3731H   LINE      ---      ---       #90
      00FF3731H   LINE      CODE     ---       #90

      00FF5848H   BLOCK     CODE     ---       LVL=0
      00FF5848H   LINE      ---      ---       #92
      00FF584AH   LINE      ---      ---       #97
      00FF5854H   LINE      ---      ---       #98
      R5          REGSYM    ---      BYTE      qIdx
      ---         BLOCKEND  ---      ---       LVL=0

      00FF36F7H   BLOCK     CODE     ---       LVL=0
      00FF36FBH   LINE      ---      ---       #100
      00FF36FFH   LINE      ---      ---       #104
      00FF3707H   LINE      ---      ---       #106
      00FF3710H   LINE      ---      ---       #107
      00FF36F7H   SYMBOL    CODE     NEAR LAB  ?L?COM0004
      R15         REGSYM    ---      BYTE      qIdx
      ---         BLOCKEND  ---      ---       LVL=0

      00FF52D5H   BLOCK     CODE     ---       LVL=0
      00FF52D5H   LINE      ---      ---       #109
      00FF52D7H   LINE      ---      ---       #114
      00FF52EAH   LINE      ---      ---       #115
      WR2         REGSYM    ---      INT       qType
      ---         BLOCKEND  ---      ---       LVL=0

      00FF52C4H   BLOCK     CODE     ---       LVL=0
L251 LINKER/LOCATER V4.66.93.0                                                        07/01/2025  14:01:01  PAGE 48


      00FF52C8H   LINE      ---      ---       #117
      00FF52CAH   LINE      ---      ---       #122
      00FF52D4H   LINE      ---      ---       #123
      00FF52C4H   SYMBOL    CODE     NEAR LAB  ?L?COM0057
      WR2         REGSYM    ---      INT       qType
      ---         BLOCKEND  ---      ---       LVL=0

      00FF5855H   BLOCK     CODE     ---       LVL=0
      00FF5855H   LINE      ---      ---       #125
      00FF5857H   LINE      ---      ---       #129
      00FF586AH   LINE      ---      ---       #130
      WR2         REGSYM    ---      INT       qType
      ---         BLOCKEND  ---      ---       LVL=0

      00FF58A5H   BLOCK     CODE     ---       LVL=0
      00FF58A5H   LINE      ---      ---       #132
      00FF58A9H   LINE      ---      ---       #136
      WR2         REGSYM    ---      INT       qType
      R1          REGSYM    ---      BYTE      bKeepMem
      00FF58A9H   BLOCK     CODE     NEAR LAB  LVL=1
      00FF58A9H   LINE      ---      ---       #137
      00FF58B5H   LINE      ---      ---       #138
      00FF58C1H   LINE      ---      ---       #141
      00FF58C3H   LINE      ---      ---       #145
      00FF58D1H   LINE      ---      ---       #146
      00FF58D6H   LINE      ---      ---       #147
      00FF58E4H   LINE      ---      ---       #150
      00FF58F3H   LINE      ---      ---       #152
      00FF5904H   LINE      ---      ---       #153
      00FF5912H   LINE      ---      ---       #157
      00FF5916H   LINE      ---      ---       #158
      00FF5924H   LINE      ---      ---       #161
      00FF592FH   LINE      ---      ---       #162
      00FF5932H   LINE      ---      ---       #163
      00FF5938H   LINE      ---      ---       #164
      00FF593EH   LINE      ---      ---       #165
      REG=4       REGSYM    ---      ---       pQCtrl
      REG=2       REGSYM    ---      ---       pQHeader
      R0          REGSYM    ---      BYTE      nextNode
      ---         BLOCKEND  CODE     ---       LVL=1
      00FF5940H   LINE      ---      ---       #166
      00FF5940H   LINE      CODE     ---       #166

      00FF5090H   BLOCK     CODE     ---       LVL=0
      00FF5090H   LINE      ---      ---       #168
      00FF5092H   LINE      ---      ---       #171
      WR2         REGSYM    ---      INT       qType
      00FF5092H   BLOCK     CODE     NEAR LAB  LVL=1
      00FF5092H   LINE      ---      ---       #172
      00FF509EH   LINE      ---      ---       #175
      00FF50A6H   LINE      ---      ---       #176
      00FF50A6H   LINE      ---      ---       #179
      REG=0       REGSYM    ---      ---       pQCtrl
      ---         BLOCKEND  CODE     ---       LVL=1
      00FF50ACH   LINE      ---      ---       #180
      00FF50ACH   LINE      CODE     ---       #180

      00FF4E03H   BLOCK     CODE     ---       LVL=0
      00FF4E11H   LINE      ---      ---       #182
      00FF4E1DH   LINE      ---      ---       #187
      00FF4E03H   SYMBOL    CODE     NEAR LAB  ?L?COM0016
      WR12        REGSYM    ---      INT       qType
      R15         REGSYM    ---      BYTE      qIdx
      0000B5D0H   SYMBOL    EDATA    WORD      dataLen
      00FF4E1DH   BLOCK     CODE     NEAR LAB  LVL=1
L251 LINKER/LOCATER V4.66.93.0                                                        07/01/2025  14:01:01  PAGE 49


      00FF4E1DH   LINE      ---      ---       #188
      00FF4E2BH   LINE      ---      ---       #189
      00FF4E3FH   LINE      ---      ---       #190
      00FF4E4CH   LINE      ---      ---       #193
      00FF4E54H   LINE      ---      ---       #198
      00FF4E60H   LINE      ---      ---       #200
      00FF4E62H   LINE      ---      ---       #201
      00FF4E6BH   LINE      ---      ---       #202
      00FF4E7BH   LINE      ---      ---       #203
      00FF4E85H   LINE      ---      ---       #208
      00FF4E92H   LINE      ---      ---       #209
      00FF4EA3H   LINE      ---      ---       #212
      00FF4EABH   LINE      ---      ---       #213
      00FF4EB5H   LINE      ---      ---       #214
      00FF4EB8H   LINE      ---      ---       #217
      00FF4EC4H   LINE      ---      ---       #219
      00FF4ED1H   LINE      ---      ---       #220
      0000B5D2H   SYMBOL    EDATA    ---       pQCtrl
      0000B5D4H   SYMBOL    EDATA    ---       pQHeader
      0000B5D6H   SYMBOL    EDATA    ---       pQ_PAYLOAD
      ---         BLOCKEND  CODE     ---       LVL=1
      00FF4ED3H   LINE      ---      ---       #221
      00FF4ED3H   LINE      CODE     ---       #221

      00FF5941H   BLOCK     CODE     ---       LVL=0
      00FF5941H   LINE      ---      ---       #224
      00FF594BH   LINE      ---      ---       #229
      WR8         REGSYM    ---      INT       qType
      R15         REGSYM    ---      BYTE      qIdx
      WR12        REGSYM    ---      WORD      dataLen
      00FF594BH   BLOCK     CODE     NEAR LAB  LVL=1
      00FF594BH   LINE      ---      ---       #230
      00FF595BH   LINE      ---      ---       #231
      00FF596FH   LINE      ---      ---       #232
      00FF597CH   LINE      ---      ---       #235
      00FF5984H   LINE      ---      ---       #240
      00FF5990H   LINE      ---      ---       #242
      00FF5992H   LINE      ---      ---       #243
      00FF599BH   LINE      ---      ---       #244
      00FF59A5H   LINE      ---      ---       #245
      00FF59B4H   LINE      ---      ---       #250
      00FF59C0H   LINE      ---      ---       #251
      00FF59CDH   LINE      ---      ---       #254
      00FF59DAH   LINE      ---      ---       #255
      00FF59E1H   LINE      ---      ---       #256
      00FF59ECH   LINE      ---      ---       #257
      00FF59F0H   LINE      ---      ---       #260
      00FF59F8H   LINE      ---      ---       #261
      0000B60BH   SYMBOL    EDATA    ---       pQCtrl
      0000B60DH   SYMBOL    EDATA    ---       pQHeader
      0000B60FH   SYMBOL    EDATA    ---       pQ_PAYLOAD
      ---         BLOCKEND  CODE     ---       LVL=1
      00FF59FAH   LINE      ---      ---       #262
      00FF59FAH   LINE      CODE     ---       #262

      00FF59FFH   BLOCK     CODE     ---       LVL=0
      00FF59FFH   LINE      ---      ---       #264
      00FF5A01H   LINE      ---      ---       #267
      WR2         REGSYM    ---      INT       qType
      00FF5A01H   BLOCK     CODE     NEAR LAB  LVL=1
      00FF5A01H   LINE      ---      ---       #268
      00FF5A0DH   LINE      ---      ---       #269
      00FF5A19H   LINE      ---      ---       #273
      00FF5A21H   LINE      ---      ---       #274
      00FF5A21H   LINE      ---      ---       #279
L251 LINKER/LOCATER V4.66.93.0                                                        07/01/2025  14:01:01  PAGE 50


      00FF5A2CH   LINE      ---      ---       #280
      00FF5A31H   LINE      ---      ---       #281
      00FF5A3FH   LINE      ---      ---       #286
      00FF5A51H   LINE      ---      ---       #287
      00FF5A62H   LINE      ---      ---       #292
      00FF5A74H   LINE      ---      ---       #295
      00FF5A7BH   LINE      ---      ---       #296
      REG=0       REGSYM    ---      ---       pQCtrl
      REG=1       REGSYM    ---      ---       pQHeader
      R7          REGSYM    ---      BYTE      nextNode
      ---         BLOCKEND  CODE     ---       LVL=1
      00FF5A7EH   LINE      ---      ---       #297
      00FF5A7EH   LINE      CODE     ---       #297

      00FF586BH   BLOCK     CODE     ---       LVL=0
      00FF586BH   LINE      ---      ---       #299
      00FF5871H   LINE      ---      ---       #303
      WR12        REGSYM    ---      INT       qTypeDest
      WR14        REGSYM    ---      INT       qTypeSrc
      00FF5871H   BLOCK     CODE     NEAR LAB  LVL=1
      00FF5871H   LINE      ---      ---       #304
      00FF587BH   LINE      ---      ---       #309
      00FF5883H   LINE      ---      ---       #310
      00FF5883H   LINE      ---      ---       #313
      00FF5887H   LINE      ---      ---       #314
      00FF588FH   LINE      ---      ---       #317
      00FF5895H   LINE      ---      ---       #320
      REG=3       REGSYM    ---      ---       pQSrcCtrl
      0000B66DH   SYMBOL    EDATA    BYTE      qIdx
      0000B66EH   SYMBOL    EDATA    WORD      qLen
      ---         BLOCKEND  CODE     ---       LVL=1
      00FF58A2H   LINE      ---      ---       #321
      00FF58A2H   LINE      CODE     ---       #321

      ---         MODULE    ---      ---       sys_rtc
      00FF17BFH   PUBLIC    CODE     ---       RTC_ClkGet?_
      00FF426FH   PUBLIC    CODE     ---       RTC_uDelay
      00FF1FE1H   PUBLIC    CODE     ---       RTC_TickGapCount
      00FF5A7FH   PUBLIC    CODE     ---       RTC_TimerConfig
      00FF5F7CH   PUBLIC    CODE     ---       RTC_TimerWakeUpDisable
      00FF5FE1H   PUBLIC    CODE     ---       RTC_WaitForTriggered
      00FF5FEBH   PUBLIC    CODE     ---       RTC_TriggerWithinUs
      00FF17DAH   PUBLIC    CODE     ---       RTC_IsrHdlrInit
      00FF6011H   PUBLIC    CODE     ---       RTC_Init
      00FF675CH   PUBLIC    CODE     ---       RTC_IsrHdlr
      0000B611H   PUBLIC    EDATA    ---       gSysRtcHdlrTable
      00FF675BH   SYMBOL    CODE     ---       Rtc_NullHdlr
      0000B613H   SYMBOL    EDATA    DWORD     rtcNextAnchor

      00FF675BH   BLOCK     CODE     ---       LVL=0
      00FF675BH   LINE      ---      ---       #39
      00FF675BH   LINE      ---      ---       #40
      00FF675BH   LINE      ---      ---       #41
      ---         BLOCKEND  ---      ---       LVL=0

      00FF675CH   BLOCK     CODE     ---       LVL=0
      00FF675CH   LINE      ---      ---       #44
      00FF675CH   LINE      ---      ---       #47
      00FF675CH   LINE      ---      ---       #49
      00FF6762H   LINE      ---      ---       #52
      00FF6768H   LINE      ---      ---       #55
      ---         BLOCKEND  ---      ---       LVL=0

      00FF4267H   BLOCK     CODE     ---       LVL=0
      00FF426FH   LINE      ---      ---       #62
L251 LINKER/LOCATER V4.66.93.0                                                        07/01/2025  14:01:01  PAGE 51


      00FF4267H   SYMBOL    CODE     NEAR LAB  ?L?COM0024
      DR12        REGSYM    ---      DWORD     delayUs
      00FF4273H   BLOCK     CODE     NEAR LAB  LVL=1
      00FF4273H   LINE      ---      ---       #95
      00FF4278H   LINE      ---      ---       #96
      00FF4278H   LINE      ---      ---       #97
      00FF4281H   LINE      ---      ---       #98
      0000B631H   SYMBOL    EDATA    DWORD     clkA
      DR12        REGSYM    ---      DWORD     clkB
      ---         BLOCKEND  CODE     ---       LVL=1
      00FF428BH   LINE      ---      ---       #100
      00FF428BH   LINE      CODE     ---       #100

      00FF1FCFH   BLOCK     CODE     ---       LVL=0
      00FF1FE1H   LINE      ---      ---       #104
      00FF1FE3H   LINE      ---      ---       #113
      00FF1FE7H   LINE      ---      ---       #115
      00FF1FCFH   SYMBOL    CODE     NEAR LAB  ?L?COM0029
      DR4         REGSYM    ---      DWORD     clkA
      DR8         REGSYM    ---      DWORD     clkB
      ---         BLOCKEND  ---      ---       LVL=0

      00FF5A7FH   BLOCK     CODE     ---       LVL=0
      00FF5A7FH   LINE      ---      ---       #118
      00FF5A85H   LINE      ---      ---       #121
      00FF5A9FH   LINE      ---      ---       #124
      00FF5AAAH   LINE      ---      ---       #127
      00FF5AAFH   LINE      ---      ---       #128
      00FF5ABAH   LINE      ---      ---       #129
      00FF5ABAH   LINE      ---      ---       #132
      00FF5AC6H   LINE      ---      ---       #135
      00FF5ADEH   LINE      ---      ---       #137
      00FF5AEAH   LINE      ---      ---       #138
      00FF5AEEH   LINE      ---      ---       #139
      R10         REGSYM    ---      BYTE      mode
      DR28        REGSYM    ---      DWORD     rtcValue
      DR24        REGSYM    ---      DWORD     rtcInterval
      ---         BLOCKEND  ---      ---       LVL=0

      00FF5F7CH   BLOCK     CODE     ---       LVL=0
      00FF5F7CH   LINE      ---      ---       #144
      00FF5F7CH   LINE      ---      ---       #146
      00FF5F88H   LINE      ---      ---       #149
      00FF5F8EH   LINE      ---      ---       #151
      ---         BLOCKEND  ---      ---       LVL=0

      00FF5FE1H   BLOCK     CODE     ---       LVL=0
      00FF5FE1H   LINE      ---      ---       #155
      00FF5FE1H   LINE      ---      ---       #157
      00FF5FE1H   LINE      ---      ---       #158
      00FF5FE2H   LINE      ---      ---       #159
      00FF5FEAH   LINE      ---      ---       #160
      ---         BLOCKEND  ---      ---       LVL=0

      00FF5FEBH   BLOCK     CODE     ---       LVL=0
      00FF5FEBH   LINE      ---      ---       #163
      00FF5FEFH   LINE      ---      ---       #165
      00FF600EH   LINE      ---      ---       #166
      DR12        REGSYM    ---      DWORD     Time
      ---         BLOCKEND  ---      ---       LVL=0

      00FF17DAH   BLOCK     CODE     ---       LVL=0
      00FF17DAH   LINE      ---      ---       #170
      00FF17DEH   LINE      ---      ---       #172
      00FF17E2H   LINE      ---      ---       #174
L251 LINKER/LOCATER V4.66.93.0                                                        07/01/2025  14:01:01  PAGE 52


      00FF17EEH   LINE      ---      ---       #175
      00FF17F2H   LINE      ---      ---       #176
      REG=7       REGSYM    ---      ---       intHdlr
      ---         BLOCKEND  ---      ---       LVL=0

      00FF6011H   BLOCK     CODE     ---       LVL=0
      00FF6011H   LINE      ---      ---       #181
      00FF6015H   LINE      ---      ---       #192
      00FF6020H   LINE      ---      ---       #193
      00FF6023H   LINE      ---      ---       #195
      00FF6032H   LINE      ---      ---       #199
      00FF603BH   LINE      ---      ---       #202
      00FF6047H   LINE      ---      ---       #206
      00FF6053H   LINE      ---      ---       #207
      00FF6058H   LINE      ---      ---       #213
      R15         REGSYM    ---      BYTE      rtcUnit
      ---         BLOCKEND  ---      ---       LVL=0

      00FF17BFH   BLOCK     CODE     ---       LVL=0
      00FF17BFH   LINE      ---      ---       #232
      00FF17BFH   LINE      ---      ---       #233
      00FF17BFH   BLOCK     CODE     NEAR LAB  LVL=1
      00FF17BFH   LINE      ---      ---       #236
      00FF17CBH   LINE      ---      ---       #238
      00FF17CBH   LINE      ---      ---       #240
      00FF17D2H   LINE      ---      ---       #241
      00FF17D9H   LINE      ---      ---       #243
      DR4         REGSYM    ---      DWORD     rtc1
      ---         BLOCKEND  CODE     ---       LVL=1
      00FF17D9H   LINE      ---      ---       #244
      00FF17D9H   LINE      CODE     ---       #244

      ---         MODULE    ---      ---       common_isr
      00FF453FH   PUBLIC    CODE     ---       common_isrBmuCheckTx
      00FF14B9H   PUBLIC    CODE     ---       common_isr_init
      00FF6769H   PUBLIC    CODE     ---       Common_IsrBmuTxQAdd?_
      00FF6829H   PUBLIC    CODE     ---       Common_IsrBmuTxQGetByHandle?_
      00FF68E1H   PUBLIC    CODE     ---       Common_IsrBmuTxQPciGet
      00FF6FEBH   PUBLIC    CODE     ---       Common_IsrBmuTxQDeleteAllByCondition?_
      00FF715AH   PUBLIC    CODE     ---       Common_IsrBmuTxQDeleteByPtr?_
      00FF71E4H   PUBLIC    CODE     ---       Common_IsrBmuTxQInit
      00FF7254H   PUBLIC    CODE     ---       common_isrBmuHandler
      0000B21BH   PUBLIC    EDATA    ---       gBmuDataTxQList
      0000B222H   PUBLIC    EDATA    ---       gBmuDataTxCtrlField
      0000B22DH   PUBLIC    EDATA    ---       gBmuDataListHead
      0000B22FH   PUBLIC    EDATA    ---       gBmuDataListTail
      0000B231H   PUBLIC    EDATA    ---       gBmuDataList
      000000A8H.7 SFRSYM    DATA     BIT       EA
      00000080H   SFRSYM    DATA     BYTE      P0
      0000B2A8H   SYMBOL    EDATA    BYTE      gCommon_isrGetBmu

      00FF7254H   BLOCK     CODE     ---       LVL=0
      00FF7254H   LINE      ---      ---       #122
      00FF7254H   LINE      ---      ---       #129
      00FF7257H   LINE      ---      ---       #130
      00FF725DH   LINE      ---      ---       #131
      R11         REGSYM    ---      BYTE      isrStatus
      ---         BLOCKEND  ---      ---       LVL=0

      00FF453FH   BLOCK     CODE     ---       LVL=0
      00FF453FH   LINE      ---      ---       #174
      00FF4541H   LINE      ---      ---       #175
      00FF4541H   BLOCK     CODE     NEAR LAB  LVL=1
      00FF4541H   LINE      ---      ---       #176
      00FF4546H   LINE      ---      ---       #179
L251 LINKER/LOCATER V4.66.93.0                                                        07/01/2025  14:01:01  PAGE 53


      00FF4551H   LINE      ---      ---       #181
      00FF4553H   LINE      ---      ---       #182
      00FF4559H   LINE      ---      ---       #183
      00FF4564H   LINE      ---      ---       #184
      00FF4569H   LINE      ---      ---       #185
      00FF4569H   LINE      ---      ---       #188
      00FF456DH   LINE      ---      ---       #189
      00FF4582H   LINE      ---      ---       #201
      00FF4589H   LINE      ---      ---       #203
      0000B559H   SYMBOL    EDATA    BYTE      qNum
      R15         REGSYM    ---      BYTE      count
      0000B55AH   SYMBOL    EDATA    ---       dataField
      00FF4589H   BLOCK     CODE     NEAR LAB  LVL=2
      00FF4589H   LINE      ---      ---       #204
      00FF458DH   LINE      ---      ---       #205
      00FF4595H   LINE      ---      ---       #206
      00FF4599H   LINE      ---      ---       #210
      00FF45A9H   LINE      ---      ---       #212
      R14         REGSYM    ---      BYTE      tempData
      ---         BLOCKEND  CODE     ---       LVL=2
      00FF45ABH   LINE      ---      ---       #214
      00FF45ABH   LINE      ---      ---       #217
      00FF45B5H   LINE      ---      ---       #219
      00FF45B5H   LINE      CODE     ---       #219
      ---         BLOCKEND  CODE     ---       LVL=0

      00FF14B9H   BLOCK     CODE     ---       LVL=0
      00FF14B9H   LINE      ---      ---       #222
      00FF14B9H   LINE      ---      ---       #224
      00FF14BEH   LINE      ---      ---       #228
      ---         BLOCKEND  ---      ---       LVL=0

      00FF6769H   BLOCK     CODE     ---       LVL=0
      00FF6769H   LINE      ---      ---       #238
      R14         REGSYM    ---      BYTE      qId
      REG=2       REGSYM    ---      ---       pCtrlField
      R15         REGSYM    ---      BYTE      type
      00FF6773H   BLOCK     CODE     NEAR LAB  LVL=1
      00FF6773H   LINE      ---      ---       #240
      00FF6775H   LINE      ---      ---       #257
      00FF6775H   LINE      ---      ---       #258
      00FF6786H   LINE      ---      ---       #260
      00FF678AH   LINE      ---      ---       #269
      00FF678FH   LINE      ---      ---       #270
      00FF67A1H   LINE      ---      ---       #271
      00FF67A1H   LINE      ---      ---       #277
      00FF67A9H   LINE      ---      ---       #278
      00FF67B4H   LINE      ---      ---       #281
      00FF67BCH   LINE      ---      ---       #282
      00FF67C9H   LINE      ---      ---       #283
      00FF67CDH   LINE      ---      ---       #284
      00FF67CFH   LINE      ---      ---       #287
      00FF67E0H   LINE      ---      ---       #288
      00FF67ECH   LINE      ---      ---       #291
      00FF67F9H   LINE      ---      ---       #292
      00FF67FFH   LINE      ---      ---       #295
      00FF67FFH   LINE      ---      ---       #298
      00FF6805H   LINE      ---      ---       #299
      00FF680EH   LINE      ---      ---       #302
      00FF6810H   LINE      ---      ---       #303
      00FF6810H   LINE      ---      ---       #304
      00FF6812H   LINE      ---      ---       #305
      00FF681AH   LINE      ---      ---       #310
      R13         REGSYM    ---      BYTE      i
      ---         BLOCKEND  CODE     ---       LVL=1
L251 LINKER/LOCATER V4.66.93.0                                                        07/01/2025  14:01:01  PAGE 54


      00FF6824H   LINE      ---      ---       #311
      00FF6824H   LINE      CODE     ---       #311

      00FF6829H   BLOCK     CODE     ---       LVL=0
      00FF6829H   LINE      ---      ---       #375
      WR8         REGSYM    ---      WORD      connHdl
      REG=15      REGSYM    ---      ---       qId
      REG=1       REGSYM    ---      ---       hciHdr
      REG=0       REGSYM    ---      ---       qCnt
      FFFFFFFBH   STKSYM    ---      ---       retPtr
      00FF682FH   BLOCK     CODE     NEAR LAB  LVL=1
      00FF682FH   LINE      ---      ---       #376
      00FF6833H   LINE      ---      ---       #382
      00FF6836H   LINE      ---      ---       #384
      00FF6839H   LINE      ---      ---       #386
      00FF683EH   LINE      ---      ---       #387
      00FF6842H   LINE      ---      ---       #388
      00FF6842H   LINE      ---      ---       #391
      00FF6844H   LINE      ---      ---       #393
      REG=14      REGSYM    ---      ---       pCurr
      WR6         REGSYM    ---      WORD      oldestSn
      WR4         REGSYM    ---      WORD      cmpSn
      R10         REGSYM    ---      BYTE      ret
      00FF6846H   BLOCK     CODE     NEAR LAB  LVL=2
      00FF6846H   LINE      ---      ---       #395
      00FF6860H   LINE      ---      ---       #397
      00FF6876H   LINE      ---      ---       #398
      00FF687AH   LINE      ---      ---       #399
      00FF6881H   LINE      ---      ---       #401
      00FF6892H   LINE      ---      ---       #407
      00FF6894H   LINE      ---      ---       #408
      00FF6897H   LINE      ---      ---       #409
      00FF68A0H   LINE      ---      ---       #410
      00FF68A7H   LINE      ---      ---       #411
      00FF68A7H   LINE      ---      ---       #413
      FFFFFFFFH   STKSYM    ---      WORD      cmp
      ---         BLOCKEND  CODE     ---       LVL=2
      00FF68ABH   LINE      ---      ---       #414
      00FF68AFH   LINE      ---      ---       #417
      00FF68B1H   LINE      ---      ---       #419
      00FF68B8H   LINE      ---      ---       #420
      00FF68C5H   LINE      ---      ---       #421
      00FF68C5H   LINE      ---      ---       #423
      00FF68C8H   LINE      ---      ---       #425
      00FF68C8H   LINE      CODE     ---       #425
      ---         BLOCKEND  CODE     ---       LVL=0

      00FF68D5H   BLOCK     CODE     ---       LVL=0
      00FF68E1H   LINE      ---      ---       #437
      00FF68D5H   SYMBOL    CODE     NEAR LAB  ?L?COM0038
      REG=4       REGSYM    ---      ---       qId
      REG=1       REGSYM    ---      ---       PciHdr
      REG=0       REGSYM    ---      ---       retPtr
      00FF68E7H   BLOCK     CODE     NEAR LAB  LVL=1
      00FF68E7H   LINE      ---      ---       #438
      00FF68EBH   LINE      ---      ---       #439
      00FF68F1H   LINE      ---      ---       #442
      00FF68F6H   LINE      ---      ---       #445
      00FF68F9H   LINE      ---      ---       #447
      00FF68FEH   LINE      ---      ---       #450
      00FF6900H   LINE      ---      ---       #452
      00FF6902H   LINE      ---      ---       #453
      00FF6910H   LINE      ---      ---       #455
      00FF6918H   LINE      ---      ---       #456
      00FF6932H   LINE      ---      ---       #458
L251 LINKER/LOCATER V4.66.93.0                                                        07/01/2025  14:01:01  PAGE 55


      00FF693AH   LINE      ---      ---       #459
      00FF6941H   LINE      ---      ---       #460
      00FF6948H   LINE      ---      ---       #461
      00FF694BH   LINE      ---      ---       #462
      00FF694BH   LINE      ---      ---       #471
      00FF694FH   LINE      ---      ---       #472
      00FF6953H   LINE      ---      ---       #475
      00FF695AH   LINE      ---      ---       #477
      00FF6963H   LINE      ---      ---       #478
      00FF6963H   LINE      ---      ---       #481
      00FF696AH   LINE      ---      ---       #484
      00FF696CH   LINE      ---      ---       #486
      REG=3       REGSYM    ---      ---       pCurr
      0000B670H   SYMBOL    EDATA    BYTE      ret
      0000B671H   SYMBOL    EDATA    BYTE      sn
      0000B672H   SYMBOL    EDATA    BYTE      oldest_sn
      ---         BLOCKEND  CODE     ---       LVL=1
      00FF6979H   LINE      ---      ---       #488
      00FF6979H   LINE      CODE     ---       #488

      00FF6FEBH   BLOCK     CODE     ---       LVL=0
      00FF6FEBH   LINE      ---      ---       #498
      R13         REGSYM    ---      BYTE      type
      WR14        REGSYM    ---      WORD      connHdl
      00FF6FF5H   BLOCK     CODE     NEAR LAB  LVL=1
      00FF6FF5H   LINE      ---      ---       #506
      00FF6FF7H   LINE      ---      ---       #508
      00FF6FFFH   LINE      ---      ---       #509
      00FF7005H   LINE      ---      ---       #510
      00FF7007H   LINE      ---      ---       #513
      FFFFFFFFH   STKSYM    ---      ---       pCurr
      FFFFFFFDH   STKSYM    ---      ---       pPrev
      FFFFFFFBH   STKSYM    ---      ---       pNext
      R12         REGSYM    ---      BYTE      ret
      00FF7009H   BLOCK     CODE     NEAR LAB  LVL=2
      00FF7009H   LINE      ---      ---       #514
      00FF700EH   LINE      ---      ---       #516
      FFFFFFFAH   STKSYM    ---      BYTE      condition
      00FF701FH   BLOCK     CODE     NEAR LAB  LVL=3
      00FF701FH   LINE      ---      ---       #517
      00FF702FH   LINE      ---      ---       #518
      00FF7036H   LINE      ---      ---       #519
      00FF7045H   LINE      ---      ---       #520
      00FF704BH   LINE      ---      ---       #521
      FFFFFFF8H   STKSYM    ---      WORD      cmp
      ---         BLOCKEND  CODE     ---       LVL=3
      00FF704BH   LINE      ---      ---       #524
      00FF7053H   LINE      ---      ---       #526
      00FF705BH   LINE      ---      ---       #530
      00FF706AH   LINE      ---      ---       #532
      00FF7075H   LINE      ---      ---       #535
      00FF707EH   LINE      ---      ---       #537
      00FF7088H   LINE      ---      ---       #538
      00FF7099H   LINE      ---      ---       #539
      00FF70A9H   LINE      ---      ---       #540
      00FF70B1H   LINE      ---      ---       #541
      00FF70B9H   LINE      ---      ---       #544
      00FF70C3H   LINE      ---      ---       #545
      00FF70CBH   LINE      ---      ---       #547
      00FF70CFH   LINE      ---      ---       #548
      00FF70D5H   LINE      ---      ---       #549
      00FF70D7H   LINE      ---      ---       #552
      00FF70DDH   LINE      ---      ---       #553
      00FF70E1H   LINE      ---      ---       #554
      00FF70E1H   LINE      ---      ---       #555
L251 LINKER/LOCATER V4.66.93.0                                                        07/01/2025  14:01:01  PAGE 56


      00FF70E3H   LINE      ---      ---       #556
      00FF70E9H   LINE      ---      ---       #558
      00FF70F1H   LINE      ---      ---       #559
      00FF70F5H   LINE      ---      ---       #560
      00FF70FFH   LINE      ---      ---       #561
      00FF7101H   LINE      ---      ---       #565
      00FF710DH   LINE      ---      ---       #566
      00FF7119H   LINE      ---      ---       #567
      00FF7119H   LINE      ---      ---       #569
      00FF7123H   LINE      ---      ---       #570
      00FF712BH   LINE      ---      ---       #571
      00FF712DH   LINE      ---      ---       #580
      00FF712DH   LINE      ---      ---       #583
      00FF7135H   LINE      ---      ---       #584
      00FF713DH   LINE      ---      ---       #585
      00FF7145H   LINE      ---      ---       #586
      00FF7145H   LINE      CODE     ---       #586
      ---         BLOCKEND  CODE     ---       LVL=1
      00FF714FH   LINE      ---      ---       #590
      00FF7151H   LINE      ---      ---       #592
      00FF7151H   LINE      CODE     ---       #592

      00FF715AH   BLOCK     CODE     ---       LVL=0
      00FF715AH   LINE      ---      ---       #602
      00FF715EH   LINE      ---      ---       #605
      00FF7160H   LINE      ---      ---       #607
      00FF7167H   LINE      ---      ---       #610
      00FF716DH   LINE      ---      ---       #611
      00FF7172H   LINE      ---      ---       #612
      00FF717BH   LINE      ---      ---       #613
      00FF7183H   LINE      ---      ---       #614
      00FF7187H   LINE      ---      ---       #615
      00FF718BH   LINE      ---      ---       #618
      00FF7193H   LINE      ---      ---       #620
      00FF719BH   LINE      ---      ---       #622
      00FF71A3H   LINE      ---      ---       #623
      00FF71ABH   LINE      ---      ---       #624
      00FF71ADH   LINE      ---      ---       #627
      00FF71B5H   LINE      ---      ---       #628
      00FF71B5H   LINE      ---      ---       #629
      00FF71B7H   LINE      ---      ---       #633
      00FF71BFH   LINE      ---      ---       #634
      00FF71C5H   LINE      ---      ---       #635
      00FF71C9H   LINE      ---      ---       #636
      00FF71CBH   LINE      ---      ---       #639
      00FF71D5H   LINE      ---      ---       #640
      00FF71D5H   LINE      ---      ---       #641
      00FF71D5H   LINE      ---      ---       #644
      00FF71DFH   LINE      ---      ---       #647
      00FF71E1H   LINE      ---      ---       #649
      REG=7       REGSYM    ---      ---       delPtr
      ---         BLOCKEND  ---      ---       LVL=0

      00FF71E4H   BLOCK     CODE     ---       LVL=0
      00FF71E4H   LINE      ---      ---       #658
      00FF71E6H   BLOCK     CODE     NEAR LAB  LVL=1
      00FF71E6H   LINE      ---      ---       #661
      00FF71ECH   LINE      ---      ---       #662
      00FF71F0H   LINE      ---      ---       #664
      00FF71F2H   LINE      ---      ---       #665
      00FF71FCH   LINE      ---      ---       #666
      00FF7204H   LINE      ---      ---       #667
      00FF7215H   LINE      ---      ---       #668
      00FF7220H   LINE      ---      ---       #669
      00FF722AH   LINE      ---      ---       #670
L251 LINKER/LOCATER V4.66.93.0                                                        07/01/2025  14:01:01  PAGE 57


      00FF7234H   LINE      ---      ---       #671
      00FF723CH   LINE      ---      ---       #673
      00FF7244H   LINE      ---      ---       #676
      00FF724AH   LINE      ---      ---       #677
      R15         REGSYM    ---      BYTE      i
      ---         BLOCKEND  CODE     ---       LVL=1
      00FF7251H   LINE      ---      ---       #678
      00FF7251H   LINE      CODE     ---       #678
      00FF45B7H   LINE      ---      ---       #220
      00FF68D2H   LINE      ---      ---       #427
      00FF7153H   LINE      ---      ---       #593

      ---         MODULE    ---      ---       common_cmd_hdlr
      00FF5246H   PUBLIC    CODE     ---       CMN_CmdSys_GetRfbFwVer
      00FF55F4H   PUBLIC    CODE     ---       CMN_CmdHal_SetAgc
      00FF550AH   PUBLIC    CODE     ---       CMN_CmdHal_SetCalibrationEnable
      00FF56D3H   PUBLIC    CODE     ---       CMN_CmdHal_SetCalibrationSetting
      00FF5706H   PUBLIC    CODE     ---       CMN_CmdHal_SetTxPower
      00FF5428H   PUBLIC    CODE     ---       CMN_CmdHal_GetTemperatureRpt
      00FF3FADH   PUBLIC    CODE     ---       CMN_CmdHal_GetVoltageRpt
      00FF55D9H   PUBLIC    CODE     ---       CMN_CmdHal_SetRssiOffset
      00FF559AH   PUBLIC    CODE     ---       CMN_CmdHal_SetTxPwrComp
      00FF556FH   PUBLIC    CODE     ---       CMN_CmdHal_SetTxPwrChComp
      00FF5584H   PUBLIC    CODE     ---       CMN_CmdHal_SetTxPwrChSegment
      00FF55B7H   PUBLIC    CODE     ---       CMN_CmdHal_SetPmuMpkSetting
      00FF573AH   PUBLIC    CODE     ---       CMN_CmdHal_SetTxPowerOqpsk
      00FF55C0H   PUBLIC    CODE     ---       CMN_CmdHal_SetPmuOpMode
      00FF5685H   PUBLIC    CODE     ---       CMN_CmdHal_SetTxPowerBy

      00FF5246H   BLOCK     CODE     ---       LVL=0
      00FF5246H   LINE      ---      ---       #24
      00FF5246H   LINE      ---      ---       #29
      00FF5246H   LINE      ---      ---       #32
      00FF524FH   LINE      ---      ---       #35
      ---         BLOCKEND  ---      ---       LVL=0

      00FF55F4H   BLOCK     CODE     ---       LVL=0
      00FF55F4H   LINE      ---      ---       #57
      00FF55F4H   LINE      ---      ---       #60
      REG=3       REGSYM    ---      ---       pCmdAddress
      00FF55F4H   BLOCK     CODE     NEAR LAB  LVL=1
      00FF55F4H   LINE      ---      ---       #69
      00FF55F6H   LINE      ---      ---       #72
      00FF560EH   LINE      ---      ---       #75
      REG=1       REGSYM    ---      ---       pCmdIn
      ---         BLOCKEND  CODE     ---       LVL=1
      ---         BLOCKEND  CODE     ---       LVL=0

      00FF550AH   BLOCK     CODE     ---       LVL=0
      00FF550AH   LINE      ---      ---       #78
      00FF550AH   LINE      ---      ---       #83
      00FF550AH   LINE      ---      ---       #86
      00FF5510H   LINE      ---      ---       #89
      00FF5519H   LINE      ---      ---       #92
      ---         BLOCKEND  ---      ---       LVL=0

      00FF56D3H   BLOCK     CODE     ---       LVL=0
      00FF56D3H   LINE      ---      ---       #96
      00FF56D3H   LINE      ---      ---       #99
      REG=3       REGSYM    ---      ---       pCmdAddress
      00FF56D3H   BLOCK     CODE     NEAR LAB  LVL=1
      00FF56D3H   LINE      ---      ---       #108
      00FF56D5H   LINE      ---      ---       #111
      00FF56FDH   LINE      ---      ---       #114
      REG=1       REGSYM    ---      ---       pCmdIn
L251 LINKER/LOCATER V4.66.93.0                                                        07/01/2025  14:01:01  PAGE 58


      ---         BLOCKEND  CODE     ---       LVL=1
      ---         BLOCKEND  CODE     ---       LVL=0

      00FF5706H   BLOCK     CODE     ---       LVL=0
      00FF5706H   LINE      ---      ---       #117
      00FF5706H   LINE      ---      ---       #120
      REG=3       REGSYM    ---      ---       pCmdAddress
      00FF5706H   BLOCK     CODE     NEAR LAB  LVL=1
      00FF5706H   LINE      ---      ---       #131
      00FF5708H   LINE      ---      ---       #133
      00FF5714H   LINE      ---      ---       #134
      00FF571DH   LINE      ---      ---       #137
      00FF5731H   LINE      ---      ---       #139
      REG=2       REGSYM    ---      ---       pCmdIn
      R2          REGSYM    ---      BYTE      gainTab
      ---         BLOCKEND  CODE     ---       LVL=1
      ---         BLOCKEND  CODE     ---       LVL=0

      00FF5428H   BLOCK     CODE     ---       LVL=0
      00FF5428H   LINE      ---      ---       #147
      00FF5428H   LINE      ---      ---       #151
      00FF5428H   LINE      ---      ---       #152
      00FF5431H   LINE      ---      ---       #153
      ---         BLOCKEND  ---      ---       LVL=0

      00FF3FADH   BLOCK     CODE     ---       LVL=0
      00FF3FADH   LINE      ---      ---       #156
      00FF3FADH   LINE      ---      ---       #160
      00FF3FADH   LINE      ---      ---       #161
      00FF3FB7H   LINE      ---      ---       #162
      ---         BLOCKEND  ---      ---       LVL=0

      00FF55D9H   BLOCK     CODE     ---       LVL=0
      00FF55D9H   LINE      ---      ---       #165
      00FF55D9H   LINE      ---      ---       #168
      REG=3       REGSYM    ---      ---       pCmdAddress
      00FF55D9H   BLOCK     CODE     NEAR LAB  LVL=1
      00FF55D9H   LINE      ---      ---       #177
      00FF55DBH   LINE      ---      ---       #180
      00FF55EBH   LINE      ---      ---       #182
      REG=2       REGSYM    ---      ---       pCmdIn
      ---         BLOCKEND  CODE     ---       LVL=1
      ---         BLOCKEND  CODE     ---       LVL=0

      00FF559AH   BLOCK     CODE     ---       LVL=0
      00FF559AH   LINE      ---      ---       #185
      00FF559AH   LINE      ---      ---       #188
      REG=3       REGSYM    ---      ---       pCmdAddress
      00FF559AH   BLOCK     CODE     NEAR LAB  LVL=1
      00FF559AH   LINE      ---      ---       #197
      00FF559CH   LINE      ---      ---       #200
      00FF55AEH   LINE      ---      ---       #203
      REG=2       REGSYM    ---      ---       pCmdIn
      ---         BLOCKEND  CODE     ---       LVL=1
      ---         BLOCKEND  CODE     ---       LVL=0

      00FF556FH   BLOCK     CODE     ---       LVL=0
      00FF556FH   LINE      ---      ---       #209
      00FF556FH   LINE      ---      ---       #212
      REG=3       REGSYM    ---      ---       pCmdAddress
      00FF556FH   BLOCK     CODE     NEAR LAB  LVL=1
      00FF556FH   LINE      ---      ---       #222
      00FF5571H   LINE      ---      ---       #225
      00FF557BH   LINE      ---      ---       #230
      REG=2       REGSYM    ---      ---       pCmdIn
L251 LINKER/LOCATER V4.66.93.0                                                        07/01/2025  14:01:01  PAGE 59


      ---         BLOCKEND  CODE     ---       LVL=1
      ---         BLOCKEND  CODE     ---       LVL=0

      00FF5584H   BLOCK     CODE     ---       LVL=0
      00FF5584H   LINE      ---      ---       #233
      00FF5584H   LINE      ---      ---       #236
      REG=3       REGSYM    ---      ---       pCmdAddress
      00FF5584H   BLOCK     CODE     NEAR LAB  LVL=1
      00FF5584H   LINE      ---      ---       #246
      00FF5586H   LINE      ---      ---       #249
      00FF5591H   LINE      ---      ---       #254
      REG=2       REGSYM    ---      ---       pCmdIn
      ---         BLOCKEND  CODE     ---       LVL=1
      ---         BLOCKEND  CODE     ---       LVL=0

      00FF55B7H   BLOCK     CODE     ---       LVL=0
      00FF55B7H   LINE      ---      ---       #258
      00FF55B7H   LINE      ---      ---       #274
      00FF55B7H   LINE      ---      ---       #277
      ---         BLOCKEND  ---      ---       LVL=0

      00FF573AH   BLOCK     CODE     ---       LVL=0
      00FF573AH   LINE      ---      ---       #281
      00FF573AH   LINE      ---      ---       #284
      REG=3       REGSYM    ---      ---       pCmdAddress
      00FF573AH   BLOCK     CODE     NEAR LAB  LVL=1
      00FF573AH   LINE      ---      ---       #295
      00FF573CH   LINE      ---      ---       #297
      00FF5748H   LINE      ---      ---       #298
      00FF5751H   LINE      ---      ---       #301
      00FF5767H   LINE      ---      ---       #303
      REG=2       REGSYM    ---      ---       pCmdIn
      R2          REGSYM    ---      BYTE      gainTab
      ---         BLOCKEND  CODE     ---       LVL=1
      ---         BLOCKEND  CODE     ---       LVL=0

      00FF55C0H   BLOCK     CODE     ---       LVL=0
      00FF55C0H   LINE      ---      ---       #311
      00FF55C0H   LINE      ---      ---       #314
      REG=3       REGSYM    ---      ---       pCmdAddress
      00FF55C0H   BLOCK     CODE     NEAR LAB  LVL=1
      00FF55C0H   LINE      ---      ---       #318
      00FF55C0H   LINE      ---      ---       #321
      00FF55C8H   LINE      ---      ---       #322
      00FF55D0H   LINE      ---      ---       #324
      REG=3       REGSYM    ---      ---       pCmdIn
      ---         BLOCKEND  CODE     ---       LVL=1
      ---         BLOCKEND  CODE     ---       LVL=0

      00FF5685H   BLOCK     CODE     ---       LVL=0
      00FF5685H   LINE      ---      ---       #327
      00FF5685H   LINE      ---      ---       #330
      REG=3       REGSYM    ---      ---       pCmdAddress
      00FF5685H   BLOCK     CODE     NEAR LAB  LVL=1
      00FF5685H   LINE      ---      ---       #340
      00FF5687H   LINE      ---      ---       #343
      00FF56A1H   LINE      ---      ---       #345
      REG=1       REGSYM    ---      ---       pCmdIn
      ---         BLOCKEND  CODE     ---       LVL=1
      ---         BLOCKEND  CODE     ---       LVL=0

      ---         MODULE    ---      ---       common_event_gen
      00FF53E1H   PUBLIC    CODE     ---       CMD_CnfEventSend
      00FF5251H   PUBLIC    CODE     ---       CMN_GetFwVerEventSend
      00FF551BH   PUBLIC    CODE     ---       CMN_SetCalibrationEnableEventSend
L251 LINKER/LOCATER V4.66.93.0                                                        07/01/2025  14:01:01  PAGE 60


      00FF5433H   PUBLIC    CODE     ---       CMN_GetTemperatureRptEventSend
      00FF3F53H   PUBLIC    CODE     ---       CMN_GetVoltageRptEventSend

      00FF53E1H   BLOCK     CODE     ---       LVL=0
      00FF53E1H   LINE      ---      ---       #18
      00FF53E9H   LINE      ---      ---       #23
      R13         REGSYM    ---      BYTE      cmdHeader
      R14         REGSYM    ---      BYTE      cmdSubheader
      R15         REGSYM    ---      BYTE      cmdCnfStatus
      00FF53E9H   BLOCK     CODE     NEAR LAB  LVL=1
      00FF53E9H   LINE      ---      ---       #25
      00FF53EEH   LINE      ---      ---       #26
      00FF53F1H   LINE      ---      ---       #28
      00FF53FBH   LINE      ---      ---       #29
      00FF5400H   LINE      ---      ---       #30
      00FF5406H   LINE      ---      ---       #31
      00FF540CH   LINE      ---      ---       #32
      00FF5410H   LINE      ---      ---       #33
      00FF5414H   LINE      ---      ---       #34
      00FF5418H   LINE      ---      ---       #40
      REG=3       REGSYM    ---      ---       pEventPayload
      R12         REGSYM    ---      BYTE      qIdx
      ---         BLOCKEND  CODE     ---       LVL=1
      00FF5425H   LINE      ---      ---       #41
      00FF5425H   LINE      CODE     ---       #41

      00FF5251H   BLOCK     CODE     ---       LVL=0
      00FF5251H   LINE      ---      ---       #44
      00FF5253H   LINE      ---      ---       #45
      00FF5253H   BLOCK     CODE     NEAR LAB  LVL=1
      00FF5253H   LINE      ---      ---       #47
      00FF5256H   LINE      ---      ---       #50
      00FF5260H   LINE      ---      ---       #51
      00FF5265H   LINE      ---      ---       #52
      00FF526BH   LINE      ---      ---       #53
      00FF5271H   LINE      ---      ---       #54
      00FF527DH   LINE      ---      ---       #55
      00FF5283H   LINE      ---      ---       #56
      00FF5289H   LINE      ---      ---       #58
      00FF528FH   LINE      ---      ---       #62
      00FF529BH   LINE      ---      ---       #64
      00FF52B4H   LINE      ---      ---       #66
      REG=3       REGSYM    ---      ---       pEventPayload
      R15         REGSYM    ---      BYTE      qIdx
      ---         BLOCKEND  CODE     ---       LVL=1
      00FF52C1H   LINE      ---      ---       #67
      00FF52C1H   LINE      CODE     ---       #67

      00FF551BH   BLOCK     CODE     ---       LVL=0
      00FF551BH   LINE      ---      ---       #70
      00FF551DH   LINE      ---      ---       #71
      00FF551DH   BLOCK     CODE     NEAR LAB  LVL=1
      00FF551DH   LINE      ---      ---       #73
      00FF5520H   LINE      ---      ---       #76
      00FF552AH   LINE      ---      ---       #77
      00FF552FH   LINE      ---      ---       #78
      00FF5535H   LINE      ---      ---       #79
      00FF553BH   LINE      ---      ---       #80
      00FF555FH   LINE      ---      ---       #86
      REG=3       REGSYM    ---      ---       pEventPayload
      R15         REGSYM    ---      BYTE      qIdx
      ---         BLOCKEND  CODE     ---       LVL=1
      00FF556CH   LINE      ---      ---       #87
      00FF556CH   LINE      CODE     ---       #87

L251 LINKER/LOCATER V4.66.93.0                                                        07/01/2025  14:01:01  PAGE 61


      00FF5433H   BLOCK     CODE     ---       LVL=0
      00FF5433H   LINE      ---      ---       #90
      00FF5437H   LINE      ---      ---       #91
      00FF5437H   BLOCK     CODE     NEAR LAB  LVL=1
      00FF5437H   LINE      ---      ---       #93
      00FF543CH   LINE      ---      ---       #96
      00FF5446H   LINE      ---      ---       #97
      00FF544BH   LINE      ---      ---       #98
      00FF5451H   LINE      ---      ---       #99
      00FF5457H   LINE      ---      ---       #100
      00FF5464H   LINE      ---      ---       #102
      00FF547FH   LINE      ---      ---       #104
      REG=6       REGSYM    ---      ---       pEventPayload
      R15         REGSYM    ---      BYTE      qIdx
      ---         BLOCKEND  CODE     ---       LVL=1
      00FF548CH   LINE      ---      ---       #106
      00FF548CH   LINE      CODE     ---       #106

      00FF3F53H   BLOCK     CODE     ---       LVL=0
      00FF3F53H   LINE      ---      ---       #108
      00FF3F57H   LINE      ---      ---       #109
      00FF3F57H   BLOCK     CODE     NEAR LAB  LVL=1
      00FF3F57H   LINE      ---      ---       #111
      00FF3F5CH   LINE      ---      ---       #114
      00FF3F66H   LINE      ---      ---       #115
      00FF3F6BH   LINE      ---      ---       #116
      00FF3F71H   LINE      ---      ---       #117
      00FF3F75H   LINE      ---      ---       #118
      00FF3F81H   LINE      ---      ---       #120
      00FF3F9BH   LINE      ---      ---       #122
      REG=6       REGSYM    ---      ---       pEventPayload
      R15         REGSYM    ---      BYTE      qIdx
      ---         BLOCKEND  CODE     ---       LVL=1
      00FF3FA8H   LINE      ---      ---       #124
      00FF3FA8H   LINE      CODE     ---       #124

      ---         MODULE    ---      ---       common_feature

      ---         MODULE    ---      ---       bmu
      00FF725EH   PUBLIC    CODE     ---       BMU_MemAllocate
      00FF73D5H   PUBLIC    CODE     ---       BMU_HwReset
      00FF7462H   PUBLIC    CODE     ---       BMU_HwInit
      00FF751BH   PUBLIC    CODE     ---       BMU_FreqFlowCtrlSet

      00FF725EH   BLOCK     CODE     ---       LVL=0
      00FF725EH   LINE      ---      ---       #24
      00FF7264H   LINE      ---      ---       #27
      WR14        REGSYM    ---      INT       rxqOpMode
      00FF7264H   BLOCK     CODE     NEAR LAB  LVL=1
      00FF7264H   LINE      ---      ---       #33
      00FF7266H   LINE      ---      ---       #47
      00FF726AH   LINE      ---      ---       #48
      00FF7270H   LINE      ---      ---       #51
      00FF7278H   LINE      ---      ---       #54
      00FF727CH   LINE      ---      ---       #57
      00FF7294H   LINE      ---      ---       #72
      00FF729DH   LINE      ---      ---       #73
      00FF72A5H   LINE      ---      ---       #80
      00FF72A5H   LINE      ---      ---       #87
      00FF72B0H   LINE      ---      ---       #88
      00FF72BAH   LINE      ---      ---       #94
      00FF72C1H   LINE      ---      ---       #95
      00FF72C7H   LINE      ---      ---       #98
      00FF72CEH   LINE      ---      ---       #99
      00FF72D4H   LINE      ---      ---       #102
L251 LINKER/LOCATER V4.66.93.0                                                        07/01/2025  14:01:01  PAGE 62


      00FF72DBH   LINE      ---      ---       #103
      00FF72DFH   LINE      ---      ---       #107
      00FF72EAH   LINE      ---      ---       #108
      00FF72ECH   LINE      ---      ---       #113
      00FF72ECH   LINE      ---      ---       #114
      00FF72F6H   LINE      ---      ---       #117
      00FF72FDH   LINE      ---      ---       #118
      00FF7303H   LINE      ---      ---       #121
      00FF730AH   LINE      ---      ---       #122
      00FF7310H   LINE      ---      ---       #125
      00FF7317H   LINE      ---      ---       #127
      00FF731DH   LINE      ---      ---       #131
      00FF7322H   LINE      ---      ---       #132
      00FF7325H   LINE      ---      ---       #137
      R13         REGSYM    ---      BYTE      pageIdx
      0000B635H   SYMBOL    EDATA    ---       pMemSize
      REG=3       REGSYM    ---      ---       pRegX51
      ---         BLOCKEND  CODE     ---       LVL=1
      00FF7325H   LINE      ---      ---       #138
      00FF7325H   LINE      CODE     ---       #138

      00FF751BH   BLOCK     CODE     ---       LVL=0
      00FF751BH   LINE      ---      ---       #140
      00FF751BH   LINE      ---      ---       #191
      00FF751FH   LINE      ---      ---       #193
      00FF752EH   LINE      ---      ---       #194
      00FF7539H   LINE      ---      ---       #195
      00FF753DH   LINE      ---      ---       #196
      00FF753FH   LINE      ---      ---       #200
      00FF754EH   LINE      ---      ---       #201
      00FF7559H   LINE      ---      ---       #202
      00FF7564H   LINE      ---      ---       #203
      00FF7564H   LINE      ---      ---       #205
      WR6         REGSYM    ---      INT       rxqOpMode
      ---         BLOCKEND  ---      ---       LVL=0

      00FF73D5H   BLOCK     CODE     ---       LVL=0
      00FF73D5H   LINE      ---      ---       #210
      00FF73D7H   LINE      ---      ---       #213
      R10         REGSYM    ---      BYTE      bForcedReset
      00FF73D7H   BLOCK     CODE     NEAR LAB  LVL=1
      00FF73D7H   LINE      ---      ---       #217
      00FF73E3H   LINE      ---      ---       #220
      00FF73E7H   LINE      ---      ---       #222
      00FF73E9H   LINE      ---      ---       #223
      00FF73E9H   LINE      ---      ---       #224
      00FF73FAH   LINE      ---      ---       #225
      00FF7408H   LINE      ---      ---       #226
      00FF7412H   LINE      ---      ---       #227
      00FF741AH   LINE      ---      ---       #228
      00FF741CH   LINE      ---      ---       #229
      00FF7428H   LINE      ---      ---       #231
      00FF742EH   LINE      ---      ---       #232
      00FF7430H   LINE      ---      ---       #233
      00FF7430H   LINE      ---      ---       #236
      00FF7439H   LINE      ---      ---       #239
      00FF743BH   LINE      ---      ---       #240
      00FF743BH   LINE      ---      ---       #241
      00FF7449H   LINE      ---      ---       #242
      00FF744BH   LINE      ---      ---       #243
      00FF7457H   LINE      ---      ---       #245
      00FF745DH   LINE      ---      ---       #246
      00FF745FH   LINE      ---      ---       #248
      DR28        REGSYM    ---      DWORD     temp
      DR24        REGSYM    ---      DWORD     busyCount
L251 LINKER/LOCATER V4.66.93.0                                                        07/01/2025  14:01:01  PAGE 63


      ---         BLOCKEND  CODE     ---       LVL=1
      00FF7461H   LINE      ---      ---       #249
      00FF7461H   LINE      CODE     ---       #249

      00FF7462H   BLOCK     CODE     ---       LVL=0
      00FF7462H   LINE      ---      ---       #251
      00FF7472H   LINE      ---      ---       #270
      00FF747EH   LINE      ---      ---       #273
      00FF7486H   LINE      ---      ---       #276
      00FF748CH   LINE      ---      ---       #277
      00FF748FH   LINE      ---      ---       #281
      00FF7491H   LINE      ---      ---       #285
      00FF7495H   LINE      ---      ---       #288
      00FF74B0H   LINE      ---      ---       #289
      00FF74C8H   LINE      ---      ---       #290
      00FF74CFH   LINE      ---      ---       #291
      00FF74D6H   LINE      ---      ---       #295
      00FF74E5H   LINE      ---      ---       #296
      00FF74F0H   LINE      ---      ---       #304
      00FF7501H   LINE      ---      ---       #305
      0000B682H   SYMBOL    EDATA    BYTE      bTxAutoClear
      0000B683H   SYMBOL    EDATA    BYTE      bRxAutoCommit
      R12         REGSYM    ---      BYTE      txControlInfoSize
      R13         REGSYM    ---      BYTE      rxControlInfoSize
      WR14        REGSYM    ---      INT       rxqOpMode
      ---         BLOCKEND  ---      ---       LVL=0

      ---         MODULE    ---      ---       bmu_cmd
      00FF7565H   PUBLIC    CODE     ---       BMU_H2MCmdGet
      00FF75DDH   PUBLIC    CODE     ---       BMU_M2HCmdSet

      00FF7565H   BLOCK     CODE     ---       LVL=0
      00FF7565H   LINE      ---      ---       #23
      00FF756BH   LINE      ---      ---       #27
      REG=4       REGSYM    ---      ---       pDataAddress
      REG=7       REGSYM    ---      ---       pDataLength
      00FF756BH   BLOCK     CODE     NEAR LAB  LVL=1
      00FF756BH   LINE      ---      ---       #34
      00FF7571H   LINE      ---      ---       #37
      00FF757BH   LINE      ---      ---       #38
      00FF757EH   LINE      ---      ---       #41
      00FF758EH   LINE      ---      ---       #42
      00FF7599H   LINE      ---      ---       #47
      00FF759BH   LINE      ---      ---       #48
      00FF75A2H   LINE      ---      ---       #50
      00FF75A7H   LINE      ---      ---       #51
      00FF75A9H   LINE      ---      ---       #52
      00FF75A9H   LINE      ---      ---       #55
      00FF75C3H   LINE      ---      ---       #56
      00FF75CAH   LINE      ---      ---       #57
      00FF75CDH   LINE      ---      ---       #60
      00FF75D6H   LINE      ---      ---       #62
      WR12        REGSYM    ---      WORD      bufferLength
      WR10        REGSYM    ---      WORD      tempBufferLength
      WR4         REGSYM    ---      WORD      bufferAddress
      REG=2       REGSYM    ---      ---       pBufferAddress
      0000B6A0H   SYMBOL    EDATA    BYTE      bRetValue
      ---         BLOCKEND  CODE     ---       LVL=1
      00FF75DAH   LINE      ---      ---       #63
      00FF75DAH   LINE      CODE     ---       #63

      00FF75DDH   BLOCK     CODE     ---       LVL=0
      00FF75DDH   LINE      ---      ---       #65
      00FF75E3H   LINE      ---      ---       #69
      REG=4       REGSYM    ---      ---       pDataAddress
L251 LINKER/LOCATER V4.66.93.0                                                        07/01/2025  14:01:01  PAGE 64


      WR14        REGSYM    ---      WORD      dataLength
      00FF75E3H   BLOCK     CODE     NEAR LAB  LVL=1
      00FF75E3H   LINE      ---      ---       #74
      00FF75EDH   LINE      ---      ---       #75
      00FF75F0H   LINE      ---      ---       #78
      00FF760AH   LINE      ---      ---       #79
      00FF760DH   LINE      ---      ---       #82
      00FF7616H   LINE      ---      ---       #85
      00FF762EH   LINE      ---      ---       #86
      00FF7635H   LINE      ---      ---       #89
      00FF7640H   LINE      ---      ---       #90
      00FF7649H   LINE      ---      ---       #93
      00FF7655H   LINE      ---      ---       #94
      00FF765EH   LINE      ---      ---       #96
      WR4         REGSYM    ---      WORD      bufferAddress
      REG=3       REGSYM    ---      ---       pBufferAddress
      ---         BLOCKEND  CODE     ---       LVL=1
      00FF765EH   LINE      ---      ---       #97
      00FF765EH   LINE      CODE     ---       #97

      ---         MODULE    ---      ---       bmu_common
      00FF7661H   PUBLIC    CODE     ---       BMU_TrxQueueGet
      00FF77D8H   PUBLIC    CODE     ---       BMU_TrxQueueSet
      00FF13E3H   PUBLIC    HCONST   ---       bmuMemSizeHwRxq
      00FF13EBH   PUBLIC    HCONST   ---       bmuMemSizeHwSwRxq
      0000B684H   PUBLIC    EDATA    ---       sBmuCtrlPara

      00FF7661H   BLOCK     CODE     ---       LVL=0
      00FF7661H   LINE      ---      ---       #115
      00FF7667H   LINE      ---      ---       #121
      WR10        REGSYM    ---      WORD      length
      WR4         REGSYM    ---      WORD      offset
      WR2         REGSYM    ---      WORD      address
      REG=4       REGSYM    ---      ---       pData
      00FF7667H   BLOCK     CODE     NEAR LAB  LVL=1
      00FF7667H   LINE      ---      ---       #134
      00FF7675H   LINE      ---      ---       #135
      00FF767FH   LINE      ---      ---       #136
      00FF7695H   LINE      ---      ---       #139
      00FF7699H   LINE      ---      ---       #140
      00FF76A1H   LINE      ---      ---       #141
      00FF76C8H   LINE      ---      ---       #144
      00FF76CCH   LINE      ---      ---       #145
      00FF76D0H   LINE      ---      ---       #146
      00FF76D2H   LINE      ---      ---       #149
      00FF76F6H   LINE      ---      ---       #150
      00FF7704H   LINE      ---      ---       #151
      00FF7716H   LINE      ---      ---       #153
      00FF7723H   LINE      ---      ---       #156
      00FF7735H   LINE      ---      ---       #157
      00FF7739H   LINE      ---      ---       #160
      00FF7750H   LINE      ---      ---       #163
      00FF7756H   LINE      ---      ---       #164
      0000B565H   SYMBOL    EDATA    ---       pInput
      0000B567H   SYMBOL    EDATA    ---       pOutput
      WR0         REGSYM    ---      WORD      startPage
      0000B569H   SYMBOL    EDATA    WORD      startOffset
      0000B56BH   SYMBOL    EDATA    WORD      pageNum
      DR12        REGSYM    ---      DWORD     tempLength
      0000B56DH   SYMBOL    EDATA    WORD      tempAddress
      0000B56FH   SYMBOL    EDATA    WORD      loopIdx
      ---         BLOCKEND  CODE     ---       LVL=1
      00FF776CH   LINE      ---      ---       #165
      00FF776CH   LINE      CODE     ---       #165

L251 LINKER/LOCATER V4.66.93.0                                                        07/01/2025  14:01:01  PAGE 65


      00FF77D8H   BLOCK     CODE     ---       LVL=0
      00FF77D8H   LINE      ---      ---       #167
      00FF77DEH   LINE      ---      ---       #173
      WR10        REGSYM    ---      WORD      length
      WR4         REGSYM    ---      WORD      offset
      WR2         REGSYM    ---      WORD      address
      REG=4       REGSYM    ---      ---       pData
      00FF77DEH   BLOCK     CODE     NEAR LAB  LVL=1
      00FF77DEH   LINE      ---      ---       #186
      00FF77ECH   LINE      ---      ---       #187
      00FF77F6H   LINE      ---      ---       #188
      00FF780CH   LINE      ---      ---       #191
      00FF7810H   LINE      ---      ---       #192
      00FF7818H   LINE      ---      ---       #193
      00FF783FH   LINE      ---      ---       #196
      00FF7843H   LINE      ---      ---       #197
      00FF7847H   LINE      ---      ---       #198
      00FF7849H   LINE      ---      ---       #201
      00FF786DH   LINE      ---      ---       #202
      00FF787BH   LINE      ---      ---       #203
      00FF788DH   LINE      ---      ---       #205
      00FF789AH   LINE      ---      ---       #208
      00FF78ACH   LINE      ---      ---       #209
      00FF78B0H   LINE      ---      ---       #212
      00FF78C7H   LINE      ---      ---       #215
      00FF78CDH   LINE      ---      ---       #216
      0000B571H   SYMBOL    EDATA    ---       pInput
      0000B573H   SYMBOL    EDATA    ---       pOutput
      0000B575H   SYMBOL    EDATA    WORD      tempAddress
      DR12        REGSYM    ---      DWORD     tempLength
      WR0         REGSYM    ---      WORD      startPage
      0000B577H   SYMBOL    EDATA    WORD      startOffset
      0000B579H   SYMBOL    EDATA    WORD      pageNum
      0000B57BH   SYMBOL    EDATA    WORD      loopIdx
      ---         BLOCKEND  CODE     ---       LVL=1
      00FF78E3H   LINE      ---      ---       #217
      00FF78E3H   LINE      CODE     ---       #217

      ---         MODULE    ---      ---       bmu_rx
      00FF78E6H   PUBLIC    CODE     ---       BMU_LocalRxqStartAddGet
      00FF7908H   PUBLIC    CODE     ---       BMU_RxqStartAddGet
      00FF20C0H   PUBLIC    CODE     ---       BMU_RxConfig
      00FF3DEFH   PUBLIC    CODE     ---       BMU_LocalRxQueueGet
      00FF732AH   PUBLIC    CODE     ---       BMU_LrxHwBufConfig
      00FF792AH   PUBLIC    CODE     ---       BMU_LrxHwBufStatusUpdate
      00FF792FH   PUBLIC    CODE     ---       BMU_LrxHwBufSet
      00FF3FDEH   PUBLIC    CODE     ---       BMU_LrxHwRxDoneBufGet
      00FF7352H   PUBLIC    CODE     ---       BMU_LrxShareQConfig
      00FF3C65H   PUBLIC    CODE     ---       BMU_LrxShareQWoGet
      00FF3C93H   PUBLIC    CODE     ---       BMU_LrxShareQWoUpdate
      00FF7FF2H   PUBLIC    CODE     ---       BMU_LrxShareQIsFull
      00FF3B7DH   PUBLIC    CODE     ---       BMU_RxQueueGet
      00FF3980H   PUBLIC    CODE     ---       BMU_RxQueueSet
      0000B5D8H   PUBLIC    EDATA    ---       bmuLrxSwqCtrl
      0000B5DDH   PUBLIC    EDATA    BYTE      bmuLrxManualCfg
      0000B5DEH   PUBLIC    EDATA    ---       pBmuLrxShareQCtrl

      00FF78E6H   BLOCK     CODE     ---       LVL=0
      00FF78E6H   LINE      ---      ---       #36
      00FF78E6H   LINE      ---      ---       #38
      00FF7907H   LINE      ---      ---       #39
      ---         BLOCKEND  ---      ---       LVL=0

      00FF7908H   BLOCK     CODE     ---       LVL=0
      00FF7908H   LINE      ---      ---       #41
L251 LINKER/LOCATER V4.66.93.0                                                        07/01/2025  14:01:01  PAGE 66


      00FF7908H   LINE      ---      ---       #43
      00FF7929H   LINE      ---      ---       #44
      ---         BLOCKEND  ---      ---       LVL=0

      00FF20C0H   BLOCK     CODE     ---       LVL=0
      00FF20C0H   LINE      ---      ---       #47
      00FF20C4H   LINE      ---      ---       #50
      WR6         REGSYM    ---      INT       queueType
      00FF20C4H   BLOCK     CODE     NEAR LAB  LVL=1
      00FF20C4H   LINE      ---      ---       #55
      00FF20C7H   LINE      ---      ---       #56
      00FF20CFH   LINE      ---      ---       #58
      00FF20CFH   LINE      ---      ---       #61
      00FF20DBH   LINE      ---      ---       #62
      00FF20DDH   LINE      ---      ---       #64
      00FF20DFH   LINE      ---      ---       #65
      00FF20DFH   LINE      ---      ---       #68
      00FF20FDH   LINE      ---      ---       #69
      00FF212BH   LINE      ---      ---       #72
      00FF212FH   LINE      ---      ---       #73
      00FF213BH   LINE      ---      ---       #74
      00FF213FH   LINE      ---      ---       #75
      00FF2141H   LINE      ---      ---       #76
      00FF2141H   LINE      ---      ---       #77
      00FF2143H   LINE      ---      ---       #78
      00FF2143H   LINE      ---      ---       #80
      R13         REGSYM    ---      BYTE      bRetValue
      WR14        REGSYM    ---      WORD      rxMaxLen
      ---         BLOCKEND  CODE     ---       LVL=1
      00FF2145H   LINE      ---      ---       #98
      00FF2145H   LINE      CODE     ---       #98

      00FF3DEFH   BLOCK     CODE     ---       LVL=0
      00FF3DEFH   LINE      ---      ---       #100
      00FF3DF5H   LINE      ---      ---       #105
      WR30        REGSYM    ---      WORD      length
      WR8         REGSYM    ---      WORD      offset
      REG=14      REGSYM    ---      ---       pData
      00FF3DF5H   BLOCK     CODE     NEAR LAB  LVL=1
      00FF3DF5H   LINE      ---      ---       #112
      00FF3DFFH   LINE      ---      ---       #113
      00FF3E01H   LINE      ---      ---       #116
      00FF3E0FH   LINE      ---      ---       #117
      00FF3E18H   LINE      ---      ---       #120
      00FF3E22H   LINE      ---      ---       #121
      00FF3E2AH   LINE      ---      ---       #123
      00FF3E2EH   LINE      ---      ---       #124
      00FF3E32H   LINE      ---      ---       #126
      00FF3E38H   LINE      ---      ---       #127
      00FF3E3AH   LINE      ---      ---       #129
      00FF3E3CH   LINE      ---      ---       #132
      00FF3E42H   LINE      ---      ---       #133
      00FF3E45H   LINE      ---      ---       #136
      00FF3E5FH   LINE      ---      ---       #137
      00FF3E64H   LINE      ---      ---       #139
      WR4         REGSYM    ---      WORD      bufferLength
      WR6         REGSYM    ---      WORD      bufferAddress
      DR0         REGSYM    ---      DWORD     tempLength
      REG=2       REGSYM    ---      ---       pBufferAddress
      ---         BLOCKEND  CODE     ---       LVL=1
      00FF3E66H   LINE      ---      ---       #140
      00FF3E66H   LINE      CODE     ---       #140

      00FF3B7DH   BLOCK     CODE     ---       LVL=0
      00FF3B7DH   LINE      ---      ---       #180
L251 LINKER/LOCATER V4.66.93.0                                                        07/01/2025  14:01:01  PAGE 67


      00FF3B83H   LINE      ---      ---       #185
      WR30        REGSYM    ---      WORD      length
      WR8         REGSYM    ---      WORD      offset
      REG=14      REGSYM    ---      ---       pData
      00FF3B83H   BLOCK     CODE     NEAR LAB  LVL=1
      00FF3B83H   LINE      ---      ---       #191
      00FF3B8DH   LINE      ---      ---       #192
      00FF3B8FH   LINE      ---      ---       #195
      00FF3B98H   LINE      ---      ---       #196
      00FF3BA9H   LINE      ---      ---       #199
      00FF3BB3H   LINE      ---      ---       #200
      00FF3BBBH   LINE      ---      ---       #202
      00FF3BBFH   LINE      ---      ---       #203
      00FF3BC3H   LINE      ---      ---       #205
      00FF3BC9H   LINE      ---      ---       #206
      00FF3BCBH   LINE      ---      ---       #208
      00FF3BCDH   LINE      ---      ---       #211
      00FF3BD3H   LINE      ---      ---       #212
      00FF3BD6H   LINE      ---      ---       #215
      00FF3BDDH   LINE      ---      ---       #217
      WR0         REGSYM    ---      WORD      bufferLength
      WR2         REGSYM    ---      WORD      bufferAddress
      DR4         REGSYM    ---      DWORD     tempLength
      ---         BLOCKEND  CODE     ---       LVL=1
      00FF3BDFH   LINE      ---      ---       #218
      00FF3BDFH   LINE      CODE     ---       #218

      00FF3980H   BLOCK     CODE     ---       LVL=0
      00FF3980H   LINE      ---      ---       #220
      00FF3986H   LINE      ---      ---       #225
      WR8         REGSYM    ---      WORD      length
      WR30        REGSYM    ---      WORD      offset
      REG=14      REGSYM    ---      ---       pData
      00FF3986H   BLOCK     CODE     NEAR LAB  LVL=1
      00FF3986H   LINE      ---      ---       #231
      00FF3990H   LINE      ---      ---       #232
      00FF3992H   LINE      ---      ---       #235
      00FF399BH   LINE      ---      ---       #236
      00FF39A9H   LINE      ---      ---       #239
      00FF39B3H   LINE      ---      ---       #240
      00FF39B9H   LINE      ---      ---       #241
      00FF39BBH   LINE      ---      ---       #244
      00FF39BFH   LINE      ---      ---       #245
      00FF39C2H   LINE      ---      ---       #248
      00FF39CBH   LINE      ---      ---       #250
      WR6         REGSYM    ---      WORD      bufferLength
      WR2         REGSYM    ---      WORD      bufferAddress
      DR24        REGSYM    ---      DWORD     tempLength
      ---         BLOCKEND  CODE     ---       LVL=1
      00FF39CDH   LINE      ---      ---       #251
      00FF39CDH   LINE      CODE     ---       #251

      00FF732AH   BLOCK     CODE     ---       LVL=0
      00FF732AH   LINE      ---      ---       #255
      00FF7330H   LINE      ---      ---       #262
      00FF7334H   LINE      ---      ---       #263
      00FF7338H   LINE      ---      ---       #264
      00FF733DH   LINE      ---      ---       #269
      00FF7347H   LINE      ---      ---       #270
      00FF734FH   LINE      ---      ---       #273
      00FF7351H   LINE      ---      ---       #274
      R7          REGSYM    ---      BYTE      hwPageIdx
      R10         REGSYM    ---      BYTE      hwPageSize
      R3          REGSYM    ---      BYTE      lrxTotalPageSize
      ---         BLOCKEND  ---      ---       LVL=0
L251 LINKER/LOCATER V4.66.93.0                                                        07/01/2025  14:01:01  PAGE 68



      00FF792AH   BLOCK     CODE     ---       LVL=0
      00FF792AH   LINE      ---      ---       #276
      00FF792AH   LINE      ---      ---       #283
      ---         BLOCKEND  ---      ---       LVL=0

      00FF792FH   BLOCK     CODE     ---       LVL=0
      00FF792FH   LINE      ---      ---       #285
      00FF792FH   LINE      ---      ---       #297
      00FF793AH   LINE      ---      ---       #299
      ---         BLOCKEND  ---      ---       LVL=0

      00FF3FDEH   BLOCK     CODE     ---       LVL=0
      00FF3FDEH   LINE      ---      ---       #301
      00FF3FDEH   LINE      ---      ---       #304
      00FF3FDEH   BLOCK     CODE     NEAR LAB  LVL=1
      00FF3FDEH   LINE      ---      ---       #310
      00FF3FE4H   LINE      ---      ---       #313
      WR4         REGSYM    ---      WORD      prevHwWritePageIdx
      ---         BLOCKEND  CODE     ---       LVL=1
      00FF3FFCH   LINE      ---      ---       #314
      00FF3FFCH   LINE      CODE     ---       #314

      00FF7352H   BLOCK     CODE     ---       LVL=0
      00FF7352H   LINE      ---      ---       #317
      00FF7352H   LINE      ---      ---       #321
      00FF7358H   LINE      ---      ---       #323
      00FF735BH   LINE      ---      ---       #324
      00FF735BH   LINE      ---      ---       #326
      00FF7367H   LINE      ---      ---       #328
      00FF7372H   LINE      ---      ---       #329
      00FF737BH   LINE      ---      ---       #330
      00FF7383H   LINE      ---      ---       #331
      00FF738AH   LINE      ---      ---       #333
      00FF73B7H   LINE      ---      ---       #336
      00FF73D2H   LINE      ---      ---       #338
      00FF73D4H   LINE      ---      ---       #339
      ---         BLOCKEND  ---      ---       LVL=0

      00FF3C65H   BLOCK     CODE     ---       LVL=0
      00FF3C65H   LINE      ---      ---       #342
      00FF3C65H   LINE      ---      ---       #345
      00FF3C65H   BLOCK     CODE     NEAR LAB  LVL=1
      00FF3C65H   LINE      ---      ---       #350
      00FF3C92H   LINE      ---      ---       #352
      REG=3       REGSYM    ---      ---       woAddr
      ---         BLOCKEND  CODE     ---       LVL=1
      00FF3C92H   LINE      ---      ---       #353
      00FF3C92H   LINE      CODE     ---       #353

      00FF3C93H   BLOCK     CODE     ---       LVL=0
      00FF3C93H   LINE      ---      ---       #356
      00FF3C93H   LINE      ---      ---       #360
      00FF3C98H   LINE      ---      ---       #362
      00FF3C98H   LINE      ---      ---       #363
      00FF3C98H   LINE      ---      ---       #365
      00FF3CADH   LINE      ---      ---       #366
      ---         BLOCKEND  ---      ---       LVL=0

      00FF7FF2H   BLOCK     CODE     ---       LVL=0
      00FF7FF2H   LINE      ---      ---       #370
      00FF7FF2H   LINE      ---      ---       #373
      00FF7FF2H   BLOCK     CODE     NEAR LAB  LVL=1
      00FF7FF2H   LINE      ---      ---       #374
      00FF8013H   LINE      ---      ---       #377
L251 LINKER/LOCATER V4.66.93.0                                                        07/01/2025  14:01:01  PAGE 69


      00FF8013H   LINE      ---      ---       #379
      00FF801EH   LINE      ---      ---       #381
      00FF802DH   LINE      ---      ---       #383
      00FF802DH   LINE      ---      ---       #384
      00FF802DH   LINE      ---      ---       #388
      0000B686H   SYMBOL    EDATA    BYTE      nextWo
      0000B687H   SYMBOL    EDATA    BYTE      currRo
      ---         BLOCKEND  CODE     ---       LVL=1
      00FF8041H   LINE      ---      ---       #389
      00FF8041H   LINE      CODE     ---       #389

      ---         MODULE    ---      ---       bmu_tx
      00FF8042H   PUBLIC    CODE     ---       BMU_LocalTxqStartAddGet
      00FF8064H   PUBLIC    CODE     ---       BMU_TxqStartAddGet
      00FF7504H   PUBLIC    CODE     ---       BMU_TxqStatusUpd
      00FF8087H   PUBLIC    CODE     ---       BMU_TxqStatusRecovery
      00FF80ABH   PUBLIC    CODE     ---       BMU_TxqPktSearch
      00FF80E3H   PUBLIC    CODE     ---       BMU_TxPktLengthGet
      00FF8183H   PUBLIC    CODE     ---       BMU_TxConfig
      00FF8853H   PUBLIC    CODE     ---       BMU_LocalTxQueueGet
      00FF888DH   PUBLIC    CODE     ---       BMU_LocalTxQueueSet
      00FF776FH   PUBLIC    CODE     ---       BMU_TxQueueGet
      00FF8D25H   PUBLIC    CODE     ---       BMU_TxQueueSet
      00FF8D82H   PUBLIC    CODE     ---       BMU_TxQueueClear

      00FF8042H   BLOCK     CODE     ---       LVL=0
      00FF8042H   LINE      ---      ---       #27
      00FF8042H   LINE      ---      ---       #29
      00FF8063H   LINE      ---      ---       #30
      ---         BLOCKEND  ---      ---       LVL=0

      00FF8064H   BLOCK     CODE     ---       LVL=0
      00FF8064H   LINE      ---      ---       #32
      00FF8064H   LINE      ---      ---       #36
      00FF8086H   LINE      ---      ---       #37
      R7          REGSYM    ---      BYTE      dataQueueId
      ---         BLOCKEND  ---      ---       LVL=0

      00FF7504H   BLOCK     CODE     ---       LVL=0
      00FF7504H   LINE      ---      ---       #39
      00FF7504H   LINE      ---      ---       #41
      00FF750FH   LINE      ---      ---       #42
      00FF751AH   LINE      ---      ---       #43
      ---         BLOCKEND  ---      ---       LVL=0

      00FF8087H   BLOCK     CODE     ---       LVL=0
      00FF8087H   LINE      ---      ---       #45
      00FF808BH   LINE      ---      ---       #49
      00FF8093H   LINE      ---      ---       #50
      00FF80A8H   LINE      ---      ---       #51
      R15         REGSYM    ---      BYTE      txQueueId
      ---         BLOCKEND  ---      ---       LVL=0

      00FF80ABH   BLOCK     CODE     ---       LVL=0
      00FF80ABH   LINE      ---      ---       #53
      00FF80AFH   LINE      ---      ---       #57
      REG=0       REGSYM    ---      ---       pPktNum
      REG=1       REGSYM    ---      ---       pQList
      00FF80AFH   BLOCK     CODE     NEAR LAB  LVL=1
      00FF80AFH   LINE      ---      ---       #62
      00FF80B6H   LINE      ---      ---       #63
      00FF80BCH   LINE      ---      ---       #64
      00FF80C0H   LINE      ---      ---       #65
      00FF80C2H   LINE      ---      ---       #67
      00FF80C7H   LINE      ---      ---       #69
L251 LINKER/LOCATER V4.66.93.0                                                        07/01/2025  14:01:01  PAGE 70


      00FF80CEH   LINE      ---      ---       #70
      00FF80D1H   LINE      ---      ---       #71
      00FF80D3H   LINE      ---      ---       #72
      00FF80D3H   LINE      ---      ---       #73
      00FF80D5H   LINE      ---      ---       #75
      00FF80D7H   LINE      ---      ---       #76
      00FF80D7H   LINE      ---      ---       #77
      00FF80DEH   LINE      ---      ---       #80
      R10         REGSYM    ---      BYTE      rTxqEmpty
      R7          REGSYM    ---      BYTE      rTxqDiff
      R6          REGSYM    ---      BYTE      idx
      ---         BLOCKEND  CODE     ---       LVL=1
      00FF80E2H   LINE      ---      ---       #81
      00FF80E2H   LINE      CODE     ---       #81

      00FF80E3H   BLOCK     CODE     ---       LVL=0
      00FF80E3H   LINE      ---      ---       #83
      00FF80EBH   LINE      ---      ---       #126
      00FF80FEH   LINE      ---      ---       #127
      00FF8101H   LINE      ---      ---       #130
      00FF8114H   LINE      ---      ---       #131
      00FF812AH   LINE      ---      ---       #134
      00FF8148H   LINE      ---      ---       #135
      00FF814AH   LINE      ---      ---       #136
      00FF815FH   LINE      ---      ---       #137
      00FF8166H   LINE      ---      ---       #139
      00FF8177H   LINE      ---      ---       #143
      00FF8179H   LINE      ---      ---       #144
      R10         REGSYM    ---      BYTE      queueId
      R15         REGSYM    ---      BYTE      pktId
      REG=4       REGSYM    ---      ---       pPktLength
      ---         BLOCKEND  ---      ---       LVL=0

      00FF817CH   BLOCK     CODE     ---       LVL=0
      00FF8183H   LINE      ---      ---       #147
      00FF8187H   LINE      ---      ---       #154
      00FF8191H   LINE      ---      ---       #157
      00FF8191H   LINE      ---      ---       #159
      00FF8196H   LINE      ---      ---       #160
      00FF8198H   LINE      ---      ---       #163
      00FF81ACH   LINE      ---      ---       #164
      00FF81AEH   LINE      ---      ---       #167
      00FF81C2H   LINE      ---      ---       #169
      00FF81D9H   LINE      ---      ---       #175
      00FF81E5H   LINE      ---      ---       #177
      00FF81F4H   LINE      ---      ---       #179
      00FF81FEH   LINE      ---      ---       #183
      00FF81FEH   LINE      ---      ---       #187
      00FF8202H   LINE      ---      ---       #189
      00FF8204H   LINE      ---      ---       #192
      00FF8204H   LINE      ---      ---       #195
      00FF8210H   LINE      ---      ---       #197
      00FF8212H   LINE      ---      ---       #199
      00FF8212H   LINE      ---      ---       #200
      00FF8214H   LINE      ---      ---       #201
      00FF8214H   LINE      ---      ---       #212
      00FF8216H   LINE      ---      ---       #213
      00FF817CH   SYMBOL    CODE     NEAR LAB  ?L?COM0032
      WR6         REGSYM    ---      INT       queueType
      R10         REGSYM    ---      BYTE      queueId
      R9          REGSYM    ---      BYTE      pktId
      ---         BLOCKEND  ---      ---       LVL=0

      00FF8853H   BLOCK     CODE     ---       LVL=0
      00FF8853H   LINE      ---      ---       #216
L251 LINKER/LOCATER V4.66.93.0                                                        07/01/2025  14:01:01  PAGE 71


      00FF8859H   LINE      ---      ---       #221
      WR10        REGSYM    ---      WORD      length
      WR2         REGSYM    ---      WORD      offset
      REG=4       REGSYM    ---      ---       pData
      00FF8859H   BLOCK     CODE     NEAR LAB  LVL=1
      00FF8859H   LINE      ---      ---       #226
      00FF885DH   LINE      ---      ---       #227
      00FF8860H   LINE      ---      ---       #230
      00FF8869H   LINE      ---      ---       #233
      00FF8883H   LINE      ---      ---       #234
      00FF888AH   LINE      ---      ---       #236
      WR6         REGSYM    ---      WORD      bufferAddress
      REG=2       REGSYM    ---      ---       pBufferAddress
      ---         BLOCKEND  CODE     ---       LVL=1
      00FF888CH   LINE      ---      ---       #237
      00FF888CH   LINE      CODE     ---       #237

      00FF888DH   BLOCK     CODE     ---       LVL=0
      00FF888DH   LINE      ---      ---       #240
      00FF8893H   LINE      ---      ---       #246
      WR8         REGSYM    ---      WORD      length
      WR30        REGSYM    ---      WORD      offset
      REG=14      REGSYM    ---      ---       pData
      R11         REGSYM    ---      BYTE      bTxqInit
      00FF8893H   BLOCK     CODE     NEAR LAB  LVL=1
      00FF8893H   LINE      ---      ---       #252
      00FF8897H   LINE      ---      ---       #253
      00FF889AH   LINE      ---      ---       #256
      00FF88A4H   LINE      ---      ---       #257
      00FF88A6H   LINE      ---      ---       #259
      00FF88C2H   LINE      ---      ---       #260
      00FF88C4H   LINE      ---      ---       #263
      00FF88D3H   LINE      ---      ---       #264
      00FF88D5H   LINE      ---      ---       #265
      00FF88E9H   LINE      ---      ---       #266
      00FF88EBH   LINE      ---      ---       #269
      00FF88F4H   LINE      ---      ---       #272
      00FF890EH   LINE      ---      ---       #273
      00FF8915H   LINE      ---      ---       #275
      WR4         REGSYM    ---      WORD      bufferAddress
      DR0         REGSYM    ---      DWORD     tempLength
      REG=3       REGSYM    ---      ---       pBufferAddress
      ---         BLOCKEND  CODE     ---       LVL=1
      00FF8917H   LINE      ---      ---       #276
      00FF8917H   LINE      CODE     ---       #276

      00FF776FH   BLOCK     CODE     ---       LVL=0
      00FF776FH   LINE      ---      ---       #279
      00FF7777H   LINE      ---      ---       #285
      R10         REGSYM    ---      BYTE      queueId
      WR8         REGSYM    ---      WORD      length
      WR28        REGSYM    ---      WORD      offset
      REG=15      REGSYM    ---      ---       pData
      00FF7777H   BLOCK     CODE     NEAR LAB  LVL=1
      00FF7777H   LINE      ---      ---       #289
      00FF777CH   LINE      ---      ---       #290
      00FF777EH   LINE      ---      ---       #293
      00FF7791H   LINE      ---      ---       #294
      00FF7793H   LINE      ---      ---       #297
      00FF7797H   LINE      ---      ---       #298
      00FF779AH   LINE      ---      ---       #302
      00FF77AEH   LINE      ---      ---       #303
      00FF77B6H   LINE      ---      ---       #304
      00FF77BFH   LINE      ---      ---       #310
      00FF77C7H   LINE      ---      ---       #312
L251 LINKER/LOCATER V4.66.93.0                                                        07/01/2025  14:01:01  PAGE 72


      WR2         REGSYM    ---      WORD      bufferAddress
      ---         BLOCKEND  CODE     ---       LVL=1
      00FF77C9H   LINE      ---      ---       #313
      00FF77C9H   LINE      CODE     ---       #313

      00FF8D25H   BLOCK     CODE     ---       LVL=0
      00FF8D25H   LINE      ---      ---       #316
      00FF8D2DH   LINE      ---      ---       #322
      R10         REGSYM    ---      BYTE      queueId
      WR8         REGSYM    ---      WORD      length
      WR28        REGSYM    ---      WORD      offset
      REG=15      REGSYM    ---      ---       pData
      00FF8D2DH   BLOCK     CODE     NEAR LAB  LVL=1
      00FF8D2DH   LINE      ---      ---       #326
      00FF8D32H   LINE      ---      ---       #327
      00FF8D34H   LINE      ---      ---       #330
      00FF8D48H   LINE      ---      ---       #331
      00FF8D4AH   LINE      ---      ---       #334
      00FF8D4EH   LINE      ---      ---       #335
      00FF8D51H   LINE      ---      ---       #339
      00FF8D65H   LINE      ---      ---       #340
      00FF8D6DH   LINE      ---      ---       #341
      00FF8D76H   LINE      ---      ---       #347
      00FF8D7FH   LINE      ---      ---       #349
      WR2         REGSYM    ---      WORD      bufferAddress
      ---         BLOCKEND  CODE     ---       LVL=1
      00FF8D81H   LINE      ---      ---       #350
      00FF8D81H   LINE      CODE     ---       #350

      00FF8D82H   BLOCK     CODE     ---       LVL=0
      00FF8D82H   LINE      ---      ---       #353
      00FF8D86H   LINE      ---      ---       #359
      00FF8D99H   LINE      ---      ---       #360
      00FF8D9BH   LINE      ---      ---       #362
      00FF8DD0H   LINE      ---      ---       #364
      00FF8DD3H   LINE      ---      ---       #367
      00FF8DE6H   LINE      ---      ---       #369
      00FF8DFBH   LINE      ---      ---       #373
      00FF8E04H   LINE      ---      ---       #375
      00FF8E06H   LINE      ---      ---       #376
      R9          REGSYM    ---      BYTE      queueId
      R10         REGSYM    ---      BYTE      pktId
      ---         BLOCKEND  ---      ---       LVL=0

      ---         MODULE    ---      ---       bmu_ble
      00FF8E07H   PUBLIC    CODE     ---       BMU_PrivacyIrkClr
      00FF8E78H   PUBLIC    CODE     ---       BMU_PrivacyIrkSet
      00FF8F78H   PUBLIC    CODE     ---       BMU_PrivacyIrkGet
      00FF8EB1H   PUBLIC    CODE     ---       BMU_PrivacyLocalRpaGen
      00FF8FADH   PUBLIC    CODE     ---       BMU_PrivacyIrkFullSearch
      00FF8F3FH   PUBLIC    CODE     ---       BMU_PrivacyIrkSingleSearch

      00FF8E78H   BLOCK     CODE     ---       LVL=0
      00FF8E78H   LINE      ---      ---       #25
      00FF8E7AH   LINE      ---      ---       #31
      R3          REGSYM    ---      BYTE      idx
      REG=4       REGSYM    ---      ---       pIrk
      ---         BLOCKEND  ---      ---       LVL=0

      00FF8F78H   BLOCK     CODE     ---       LVL=0
      00FF8F78H   LINE      ---      ---       #34
      00FF8F78H   LINE      ---      ---       #40
      R1          REGSYM    ---      BYTE      idx
      REG=3       REGSYM    ---      ---       pIrk
      ---         BLOCKEND  ---      ---       LVL=0
L251 LINKER/LOCATER V4.66.93.0                                                        07/01/2025  14:01:01  PAGE 73



      00FF8E07H   BLOCK     CODE     ---       LVL=0
      00FF8E07H   LINE      ---      ---       #44
      00FF8E09H   LINE      ---      ---       #49
      00FF8E0BH   LINE      ---      ---       #52
      00FF8E40H   LINE      ---      ---       #53
      00FF8E42H   LINE      ---      ---       #57
      R11         REGSYM    ---      BYTE      bClrAll
      R10         REGSYM    ---      BYTE      idx
      ---         BLOCKEND  ---      ---       LVL=0

      00FF8EB1H   BLOCK     CODE     ---       LVL=0
      00FF8EB1H   LINE      ---      ---       #61
      00FF8EBBH   LINE      ---      ---       #67
      0000B6A1H   SYMBOL    EDATA    BYTE      idx
      REG=3       REGSYM    ---      ---       pIrk
      REG=6       REGSYM    ---      ---       pPrand
      REG=7       REGSYM    ---      ---       pHash
      00FF8EBBH   BLOCK     CODE     NEAR LAB  LVL=1
      00FF8EBBH   LINE      ---      ---       #71
      00FF8EBDH   LINE      ---      ---       #74
      00FF8ED8H   LINE      ---      ---       #75
      00FF8EEEH   LINE      ---      ---       #78
      00FF8EF7H   LINE      ---      ---       #81
      00FF8F12H   LINE      ---      ---       #84
      00FF8F1AH   LINE      ---      ---       #87
      00FF8F24H   LINE      ---      ---       #90
      00FF8F2FH   LINE      ---      ---       #91
      00FF8F32H   LINE      ---      ---       #92
      00FF8F38H   LINE      ---      ---       #93
      DR4         REGSYM    ---      DWORD     regTemp
      ---         BLOCKEND  CODE     ---       LVL=1
      00FF8F3CH   LINE      ---      ---       #94
      00FF8F3CH   LINE      CODE     ---       #94

      00FF8FADH   BLOCK     CODE     ---       LVL=0
      00FF8FADH   LINE      ---      ---       #96
      00FF8FB5H   LINE      ---      ---       #101
      REG=2       REGSYM    ---      ---       pHash
      REG=7       REGSYM    ---      ---       pPrand
      REG=6       REGSYM    ---      ---       pResult
      00FF8FB5H   BLOCK     CODE     NEAR LAB  LVL=1
      00FF8FB5H   LINE      ---      ---       #105
      00FF8FC0H   LINE      ---      ---       #108
      00FF8FDBH   LINE      ---      ---       #109
      00FF8FF1H   LINE      ---      ---       #112
      00FF8FFDH   LINE      ---      ---       #115
      00FF9005H   LINE      ---      ---       #118
      00FF900DH   LINE      ---      ---       #121
      00FF9017H   LINE      ---      ---       #124
      00FF9021H   LINE      ---      ---       #126
      00FF9027H   LINE      ---      ---       #127
      00FF902BH   LINE      ---      ---       #128
      00FF902BH   LINE      ---      ---       #129
      DR4         REGSYM    ---      DWORD     regTemp
      ---         BLOCKEND  CODE     ---       LVL=1
      00FF902CH   LINE      ---      ---       #130
      00FF902CH   LINE      CODE     ---       #130

      00FF8F3FH   BLOCK     CODE     ---       LVL=0
      00FF8F3FH   LINE      ---      ---       #132
      00FF8F47H   LINE      ---      ---       #138
      R11         REGSYM    ---      BYTE      idx
      REG=0       REGSYM    ---      ---       pIrk
      REG=1       REGSYM    ---      ---       pPrand
L251 LINKER/LOCATER V4.66.93.0                                                        07/01/2025  14:01:01  PAGE 74


      REG=7       REGSYM    ---      ---       pHash
      00FF8F47H   BLOCK     CODE     NEAR LAB  LVL=1
      00FF8F47H   LINE      ---      ---       #139
      00FF8F4DH   LINE      ---      ---       #142
      00FF8F57H   LINE      ---      ---       #145
      00FF8F6CH   LINE      ---      ---       #146
      00FF8F70H   LINE      ---      ---       #147
      00FF8F73H   LINE      ---      ---       #148
      0000B639H   SYMBOL    EDATA    DWORD     regTemp
      ---         BLOCKEND  CODE     ---       LVL=1
      00FF8F75H   LINE      ---      ---       #149
      00FF8F75H   LINE      CODE     ---       #149

      ---         MODULE    ---      ---       mac
      00FF2740H   PUBLIC    CODE     ---       mac_FunEventQAdd?_
      00FF40F0H   PUBLIC    CODE     ---       mac_IntEventQAdd?_
      00FF34D5H   PUBLIC    CODE     ---       mac_FunEventQGet?_
      00FF902FH   PUBLIC    CODE     ---       mac_IntEventQGet?_
      00FF4A09H   PUBLIC    CODE     ---       MAC_SleepCheck
      00FF4FEBH   PUBLIC    CODE     ---       Mac_TimeoutHdlr
      00FF14C8H   PUBLIC    CODE     ---       mac_Init
      00FF47F9H   PUBLIC    CODE     ---       mac_CheckRxBusy
      00FF4507H   PUBLIC    CODE     ---       mac_CheckIsrRxReceived
      00FF403DH   PUBLIC    CODE     ---       mac_FatalClear
      00FF905CH   PUBLIC    CODE     ---       mac
      00FF452AH   PUBLIC    CODE     ---       mac_IntEventQueueHandler
      00FF90BAH   PUBLIC    CODE     ---       mac_CheckBmuErr
      00FF697AH   PUBLIC    CODE     ---       mac_IntEventQueueClearTxData
      00FF9169H   PUBLIC    CODE     ---       mac_FunEventQInit
      00FF9175H   PUBLIC    CODE     ---       mac_IntEventQInit
      00FF4519H   PUBLIC    CODE     ---       pciQueueGetandMacIntQueueAdd
      00FF4128H   PUBLIC    CODE     ---       mac_FunEventQueueExist
      00FF9181H   PUBLIC    CODE     ---       mac_TrxPar_Init
      00FF93B1H   PUBLIC    CODE     ---       mac_IntEventQueueExist
      0000B332H   PUBLIC    EDATA    ---       gMacFunCtrl
      0000B333H   PUBLIC    EDATA    ---       gMacFunEventQ
      0000B34DH   PUBLIC    EDATA    ---       gMacIntEventQ
      000000A8H.7 SFRSYM    DATA     BIT       EA
      00000080H   SFRSYM    DATA     BYTE      P0

      00FF273CH   BLOCK     CODE     ---       LVL=0
      00FF2740H   LINE      ---      ---       #96
      00FF2742H   LINE      ---      ---       #99
      00FF2746H   LINE      ---      ---       #100
      00FF2746H   LINE      ---      ---       #102
      00FF2748H   LINE      ---      ---       #105
      00FF2759H   LINE      ---      ---       #107
      00FF275DH   LINE      ---      ---       #110
      00FF2769H   LINE      ---      ---       #112
      00FF276EH   LINE      ---      ---       #113
      00FF2770H   LINE      ---      ---       #119
      00FF2773H   LINE      ---      ---       #121
      00FF2775H   LINE      ---      ---       #122
      00FF2775H   LINE      ---      ---       #124
      00FF2777H   LINE      ---      ---       #125
      00FF273CH   SYMBOL    CODE     NEAR LAB  ?L?COM0056
      WR4         REGSYM    ---      WORD      state
      ---         BLOCKEND  ---      ---       LVL=0

      00FF34D5H   BLOCK     CODE     ---       LVL=0
      00FF34D5H   LINE      ---      ---       #134
      00FF34D5H   LINE      ---      ---       #135
      00FF34D5H   BLOCK     CODE     NEAR LAB  LVL=1
      00FF34D5H   LINE      ---      ---       #139
      00FF34D7H   LINE      ---      ---       #141
L251 LINKER/LOCATER V4.66.93.0                                                        07/01/2025  14:01:01  PAGE 75


      00FF34E4H   LINE      ---      ---       #143
      00FF34E8H   LINE      ---      ---       #146
      00FF34EEH   LINE      ---      ---       #149
      00FF34FAH   LINE      ---      ---       #151
      00FF34FFH   LINE      ---      ---       #152
      00FF34FFH   LINE      ---      ---       #155
      00FF3501H   LINE      ---      ---       #157
      WR6         REGSYM    ---      WORD      ret
      ---         BLOCKEND  CODE     ---       LVL=1
      00FF3501H   LINE      ---      ---       #158
      00FF3501H   LINE      CODE     ---       #158

      00FF9169H   BLOCK     CODE     ---       LVL=0
      00FF9169H   LINE      ---      ---       #167
      00FF9169H   LINE      ---      ---       #169
      ---         BLOCKEND  ---      ---       LVL=0

      00FF40ECH   BLOCK     CODE     ---       LVL=0
      00FF40F0H   LINE      ---      ---       #179
      00FF40F2H   LINE      ---      ---       #182
      00FF40F6H   LINE      ---      ---       #183
      00FF40F6H   LINE      ---      ---       #187
      00FF40F8H   LINE      ---      ---       #191
      00FF4109H   LINE      ---      ---       #193
      00FF410DH   LINE      ---      ---       #196
      00FF4119H   LINE      ---      ---       #198
      00FF411EH   LINE      ---      ---       #199
      00FF4120H   LINE      ---      ---       #205
      00FF4123H   LINE      ---      ---       #206
      00FF4125H   LINE      ---      ---       #207
      00FF4125H   LINE      ---      ---       #210
      00FF4127H   LINE      ---      ---       #212
      00FF40ECH   SYMBOL    CODE     NEAR LAB  ?L?COM0055
      WR4         REGSYM    ---      WORD      state
      ---         BLOCKEND  ---      ---       LVL=0

      00FF902FH   BLOCK     CODE     ---       LVL=0
      00FF902FH   LINE      ---      ---       #223
      00FF902FH   LINE      ---      ---       #224
      00FF902FH   BLOCK     CODE     NEAR LAB  LVL=1
      00FF902FH   LINE      ---      ---       #228
      00FF9031H   LINE      ---      ---       #230
      00FF903EH   LINE      ---      ---       #232
      00FF9042H   LINE      ---      ---       #235
      00FF9048H   LINE      ---      ---       #238
      00FF9054H   LINE      ---      ---       #240
      00FF9059H   LINE      ---      ---       #241
      00FF9059H   LINE      ---      ---       #244
      00FF905BH   LINE      ---      ---       #246
      WR6         REGSYM    ---      WORD      ret
      ---         BLOCKEND  CODE     ---       LVL=1
      00FF905BH   LINE      ---      ---       #247
      00FF905BH   LINE      CODE     ---       #247

      00FF9175H   BLOCK     CODE     ---       LVL=0
      00FF9175H   LINE      ---      ---       #256
      00FF9175H   LINE      ---      ---       #258
      ---         BLOCKEND  ---      ---       LVL=0

      00FF4519H   BLOCK     CODE     ---       LVL=0
      00FF4519H   LINE      ---      ---       #262
      00FF4519H   LINE      ---      ---       #263
      00FF4519H   BLOCK     CODE     NEAR LAB  LVL=1
      00FF4519H   LINE      ---      ---       #264
      00FF451EH   LINE      ---      ---       #265
L251 LINKER/LOCATER V4.66.93.0                                                        07/01/2025  14:01:01  PAGE 76


      00FF4523H   LINE      ---      ---       #267
      00FF4529H   LINE      ---      ---       #268
      R7          REGSYM    ---      BYTE      pciQueueNum
      ---         BLOCKEND  CODE     ---       LVL=1
      ---         BLOCKEND  CODE     ---       LVL=0

      00FF4128H   BLOCK     CODE     ---       LVL=0
      00FF4128H   LINE      ---      ---       #273
      00FF4128H   LINE      ---      ---       #275
      00FF4136H   LINE      ---      ---       #276
      ---         BLOCKEND  ---      ---       LVL=0

      00FF452AH   BLOCK     CODE     ---       LVL=0
      00FF452AH   LINE      ---      ---       #278
      00FF452AH   LINE      ---      ---       #279
      00FF452AH   BLOCK     CODE     NEAR LAB  LVL=1
      00FF452AH   LINE      ---      ---       #283
      00FF452CH   LINE      ---      ---       #289
      00FF452EH   LINE      ---      ---       #293
      00FF4531H   LINE      ---      ---       #294
      00FF4539H   LINE      ---      ---       #297
      00FF4539H   LINE      ---      ---       #298
      00FF453CH   LINE      ---      ---       #299
      00FF453CH   LINE      ---      ---       #302
      00FF453CH   LINE      ---      ---       #307
      00FF453EH   LINE      ---      ---       #312
      00FF453EH   LINE      ---      ---       #314
      WR6         REGSYM    ---      WORD      macIntEventQueue
      ---         BLOCKEND  CODE     ---       LVL=1
      00FF453EH   LINE      ---      ---       #316
      00FF453EH   LINE      CODE     ---       #316

      00FF9181H   BLOCK     CODE     ---       LVL=0
      00FF9181H   LINE      ---      ---       #318
      00FF9183H   LINE      ---      ---       #319
      00FF9183H   BLOCK     CODE     NEAR LAB  LVL=1
      00FF9183H   LINE      ---      ---       #321
      00FF9188H   LINE      ---      ---       #322
      00FF9191H   LINE      ---      ---       #326
      00FF91B1H   LINE      ---      ---       #327
      00FF91BCH   LINE      ---      ---       #330
      00FF91DCH   LINE      ---      ---       #331
      00FF91E7H   LINE      ---      ---       #336
      00FF91EFH   LINE      ---      ---       #337
      00FF91F5H   LINE      ---      ---       #338
      00FF91FBH   LINE      ---      ---       #339
      00FF9201H   LINE      ---      ---       #340
      00FF9207H   LINE      ---      ---       #341
      00FF920FH   LINE      ---      ---       #342
      00FF9217H   LINE      ---      ---       #343
      00FF921FH   LINE      ---      ---       #345
      00FF9223H   LINE      ---      ---       #348
      00FF9228H   LINE      ---      ---       #349
      00FF922CH   LINE      ---      ---       #350
      00FF9232H   LINE      ---      ---       #359
      00FF9236H   LINE      ---      ---       #360
      00FF923AH   LINE      ---      ---       #361
      00FF923EH   LINE      ---      ---       #362
      00FF9240H   LINE      ---      ---       #364
      00FF9251H   LINE      ---      ---       #365
      00FF9261H   LINE      ---      ---       #366
      00FF9271H   LINE      ---      ---       #367
      00FF9282H   LINE      ---      ---       #368
      00FF928EH   LINE      ---      ---       #369
      00FF92A0H   LINE      ---      ---       #372
L251 LINKER/LOCATER V4.66.93.0                                                        07/01/2025  14:01:01  PAGE 77


      00FF92A8H   LINE      ---      ---       #373
      00FF92AEH   LINE      ---      ---       #374
      00FF92B4H   LINE      ---      ---       #375
      00FF92B8H   LINE      ---      ---       #377
      00FF92BDH   LINE      ---      ---       #378
      00FF92C1H   LINE      ---      ---       #379
      00FF92C7H   LINE      ---      ---       #381
      00FF92CFH   LINE      ---      ---       #383
      00FF92E2H   LINE      ---      ---       #386
      00FF92E2H   LINE      ---      ---       #387
      00FF92E8H   LINE      ---      ---       #388
      00FF92EDH   LINE      ---      ---       #389
      00FF92F1H   LINE      ---      ---       #390
      00FF92F1H   LINE      ---      ---       #391
      00FF92F1H   LINE      ---      ---       #392
      00FF92F1H   LINE      ---      ---       #393
      00FF92F1H   LINE      ---      ---       #394
      00FF92F3H   LINE      ---      ---       #398
      00FF92F3H   LINE      ---      ---       #399
      00FF92FBH   LINE      ---      ---       #400
      00FF9301H   LINE      ---      ---       #401
      00FF9309H   LINE      ---      ---       #402
      00FF930DH   LINE      ---      ---       #403
      00FF931DH   LINE      ---      ---       #404
      00FF932FH   LINE      ---      ---       #405
      00FF933DH   LINE      ---      ---       #406
      00FF933FH   LINE      ---      ---       #410
      00FF933FH   LINE      ---      ---       #411
      00FF9347H   LINE      ---      ---       #412
      00FF934DH   LINE      ---      ---       #413
      00FF9359H   LINE      ---      ---       #414
      00FF935DH   LINE      ---      ---       #415
      00FF936DH   LINE      ---      ---       #416
      00FF937FH   LINE      ---      ---       #417
      00FF9389H   LINE      ---      ---       #418
      00FF9389H   LINE      ---      ---       #433
      00FF9389H   LINE      ---      ---       #434
      00FF938FH   LINE      ---      ---       #439
      00FF9394H   LINE      ---      ---       #442
      00FF9398H   LINE      ---      ---       #443
      00FF939CH   LINE      ---      ---       #447
      00FF93A0H   LINE      ---      ---       #448
      00FF93A4H   LINE      ---      ---       #449
      00FF93A8H   LINE      ---      ---       #452
      0000B6A2H   SYMBOL    EDATA    BYTE      i
      WR14        REGSYM    ---      WORD      bufferAddress_LOCAL
      REG=3       REGSYM    ---      ---       pOutput
      ---         BLOCKEND  CODE     ---       LVL=1
      00FF93AEH   LINE      ---      ---       #459
      00FF93AEH   LINE      CODE     ---       #459

      00FF4FEBH   BLOCK     CODE     ---       LVL=0
      00FF4FEBH   LINE      ---      ---       #462
      00FF4FEBH   LINE      ---      ---       #465
      00FF4FF2H   LINE      ---      ---       #466
      00FF4FF4H   LINE      ---      ---       #467
      ---         BLOCKEND  ---      ---       LVL=0

      00FF14C8H   BLOCK     CODE     ---       LVL=0
      00FF14C8H   LINE      ---      ---       #469
      00FF14C8H   LINE      ---      ---       #473
      00FF14CFH   LINE      ---      ---       #477
      00FF14D2H   LINE      ---      ---       #481
      00FF14D4H   LINE      ---      ---       #485
      00FF14D7H   LINE      ---      ---       #488
L251 LINKER/LOCATER V4.66.93.0                                                        07/01/2025  14:01:01  PAGE 78


      00FF14DAH   LINE      ---      ---       #491
      00FF14DDH   LINE      ---      ---       #496
      00FF14E3H   LINE      ---      ---       #506
      00FF14E6H   LINE      ---      ---       #516
      00FF14E9H   LINE      ---      ---       #517
      00FF14ECH   LINE      ---      ---       #518
      00FF14EFH   LINE      ---      ---       #519
      00FF14F2H   LINE      ---      ---       #524
      00FF14F5H   LINE      ---      ---       #529
      00FF1501H   LINE      ---      ---       #531
      ---         BLOCKEND  ---      ---       LVL=0

      00FF93B1H   BLOCK     CODE     ---       LVL=0
      00FF93B1H   LINE      ---      ---       #534
      00FF93B1H   LINE      ---      ---       #535
      00FF93B1H   BLOCK     CODE     NEAR LAB  LVL=1
      00FF93B1H   LINE      ---      ---       #537
      00FF93BFH   LINE      ---      ---       #538
      R11         REGSYM    ---      BYTE      retValue
      ---         BLOCKEND  CODE     ---       LVL=1
      00FF93BFH   LINE      ---      ---       #539
      00FF93BFH   LINE      CODE     ---       #539

      00FF697AH   BLOCK     CODE     ---       LVL=0
      00FF697AH   LINE      ---      ---       #543
      00FF697EH   LINE      ---      ---       #544
      00FF697EH   BLOCK     CODE     NEAR LAB  LVL=1
      00FF697EH   LINE      ---      ---       #545
      00FF697EH   LINE      ---      ---       #548
      00FF6981H   LINE      ---      ---       #549
      00FF6986H   LINE      ---      ---       #550
      00FF698CH   LINE      ---      ---       #554
      00FF6990H   LINE      ---      ---       #557
      00FF6993H   LINE      ---      ---       #558
      00FF6993H   LINE      ---      ---       #560
      00FF6996H   LINE      ---      ---       #561
      00FF6998H   LINE      ---      ---       #562
      00FF699EH   LINE      ---      ---       #563
      00FF69A3H   LINE      ---      ---       #564
      R15         REGSYM    ---      BYTE      count
      WR12        REGSYM    ---      WORD      event
      ---         BLOCKEND  CODE     ---       LVL=1
      00FF69A7H   LINE      ---      ---       #568
      00FF69A7H   LINE      CODE     ---       #568

      00FF4A09H   BLOCK     CODE     ---       LVL=0
      00FF4A09H   LINE      ---      ---       #572
      00FF4A09H   LINE      ---      ---       #578
      00FF4A10H   LINE      ---      ---       #581
      00FF4A15H   LINE      ---      ---       #582
      00FF4A17H   LINE      ---      ---       #589
      00FF4A28H   LINE      ---      ---       #593
      00FF4A2BH   LINE      ---      ---       #594
      00FF4A2BH   LINE      ---      ---       #598
      00FF4A30H   LINE      ---      ---       #599
      00FF4A32H   LINE      ---      ---       #602
      00FF4A3EH   LINE      ---      ---       #604
      00FF4A40H   LINE      ---      ---       #605
      00FF4A40H   LINE      ---      ---       #633
      00FF4A46H   LINE      ---      ---       #635
      00FF4A48H   LINE      ---      ---       #636
      00FF4A48H   LINE      ---      ---       #639
      00FF4A4EH   LINE      ---      ---       #641
      00FF4A5EH   LINE      ---      ---       #643
      00FF4A5EH   LINE      ---      ---       #644
L251 LINKER/LOCATER V4.66.93.0                                                        07/01/2025  14:01:01  PAGE 79


      00FF4A5EH   LINE      ---      ---       #645
      00FF4A5EH   LINE      ---      ---       #646
      00FF4A60H   LINE      ---      ---       #647
      00FF4A60H   LINE      ---      ---       #649
      00FF4A66H   LINE      ---      ---       #651
      00FF4A76H   LINE      ---      ---       #653
      00FF4A7CH   LINE      ---      ---       #655
      00FF4A84H   LINE      ---      ---       #656
      00FF4A86H   LINE      ---      ---       #657
      00FF4A86H   LINE      ---      ---       #660
      00FF4A89H   LINE      ---      ---       #661
      00FF4A89H   LINE      ---      ---       #662
      00FF4A8AH   LINE      ---      ---       #665
      ---         BLOCKEND  ---      ---       LVL=0

      00FF90BAH   BLOCK     CODE     ---       LVL=0
      00FF90BAH   LINE      ---      ---       #669
      00FF90BAH   LINE      ---      ---       #670
      00FF90BAH   BLOCK     CODE     NEAR LAB  LVL=1
      00FF90BAH   LINE      ---      ---       #676
      00FF90C6H   LINE      ---      ---       #677
      00FF90D1H   LINE      ---      ---       #678
      00FF90E0H   LINE      ---      ---       #679
      00FF90EBH   LINE      ---      ---       #680
      R10         REGSYM    ---      BYTE      tempReg
      ---         BLOCKEND  CODE     ---       LVL=1
      00FF90EDH   LINE      ---      ---       #681
      00FF90EDH   LINE      CODE     ---       #681

      00FF47F9H   BLOCK     CODE     ---       LVL=0
      00FF47F9H   LINE      ---      ---       #684
      00FF47F9H   LINE      ---      ---       #689
      00FF4819H   LINE      ---      ---       #692
      00FF481CH   LINE      ---      ---       #693
      00FF481CH   LINE      ---      ---       #695
      00FF481DH   LINE      ---      ---       #696
      ---         BLOCKEND  ---      ---       LVL=0

      00FF4507H   BLOCK     CODE     ---       LVL=0
      00FF4507H   LINE      ---      ---       #699
      00FF4507H   LINE      ---      ---       #702
      00FF4508H   LINE      ---      ---       #703
      00FF4509H   LINE      ---      ---       #704
      00FF4514H   LINE      ---      ---       #705
      00FF4517H   LINE      ---      ---       #706
      00FF4517H   LINE      ---      ---       #708
      00FF4518H   LINE      ---      ---       #709
      ---         BLOCKEND  ---      ---       LVL=0

      00FF403DH   BLOCK     CODE     ---       LVL=0
      00FF403DH   LINE      ---      ---       #712
      00FF403DH   LINE      ---      ---       #715
      00FF4043H   LINE      ---      ---       #717
      ---         BLOCKEND  ---      ---       LVL=0

      00FF905CH   BLOCK     CODE     ---       LVL=0
      00FF905CH   LINE      ---      ---       #735
      00FF905CH   LINE      ---      ---       #749
      00FF9075H   LINE      ---      ---       #752
      00FF9075H   LINE      ---      ---       #753
      00FF9077H   LINE      ---      ---       #754
      00FF9079H   LINE      ---      ---       #757
      00FF9079H   LINE      ---      ---       #758
      00FF907BH   LINE      ---      ---       #759
      00FF907DH   LINE      ---      ---       #761
L251 LINKER/LOCATER V4.66.93.0                                                        07/01/2025  14:01:01  PAGE 80


      00FF907DH   LINE      ---      ---       #763
      00FF9080H   LINE      ---      ---       #767
      00FF9082H   LINE      ---      ---       #768
      00FF9082H   LINE      ---      ---       #770
      00FF9085H   LINE      ---      ---       #774
      00FF9087H   LINE      ---      ---       #782
      00FF9087H   LINE      ---      ---       #786
      00FF908AH   LINE      ---      ---       #788
      00FF908CH   LINE      ---      ---       #790
      00FF908CH   LINE      ---      ---       #794
      00FF908FH   LINE      ---      ---       #796
      00FF908FH   LINE      ---      ---       #798
      00FF908FH   LINE      ---      ---       #799
      00FF9091H   LINE      ---      ---       #800
      ---         BLOCKEND  ---      ---       LVL=0

      ---         MODULE    ---      ---       mac_frame_parse
      00FF93C0H   PUBLIC    CODE     ---       panIdPresent
      00FF9466H   PUBLIC    CODE     ---       mac_parseHdr

      00FF93C0H   BLOCK     CODE     ---       LVL=0
      00FF93C0H   LINE      ---      ---       #24
      00FF93C2H   LINE      ---      ---       #25
      R11         REGSYM    ---      BYTE      destAddrModeIn
      R10         REGSYM    ---      BYTE      srcAddrModeIn
      R6          REGSYM    ---      BYTE      panIdCompIn
      00FF93C2H   BLOCK     CODE     NEAR LAB  LVL=1
      00FF93C2H   LINE      ---      ---       #26
      00FF93C6H   LINE      ---      ---       #27
      00FF93CAH   LINE      ---      ---       #28
      00FF93CEH   LINE      ---      ---       #30
      00FF93D3H   LINE      ---      ---       #31
      00FF93D7H   LINE      ---      ---       #33
      00FF93DDH   LINE      ---      ---       #35
      00FF93E3H   LINE      ---      ---       #37
      00FF93EAH   LINE      ---      ---       #39
      00FF93EAH   LINE      ---      ---       #40
      00FF93ECH   LINE      ---      ---       #42
      00FF93FCH   LINE      ---      ---       #44
      00FF9402H   LINE      ---      ---       #46
      00FF9402H   LINE      ---      ---       #47
      00FF9402H   LINE      ---      ---       #49
      00FF9404H   LINE      ---      ---       #50
      00FF940BH   LINE      ---      ---       #52
      00FF9411H   LINE      ---      ---       #54
      00FF9417H   LINE      ---      ---       #56
      00FF9417H   LINE      ---      ---       #57
      00FF9419H   LINE      ---      ---       #59
      00FF9429H   LINE      ---      ---       #61
      00FF942FH   LINE      ---      ---       #62
      00FF9435H   LINE      ---      ---       #64
      00FF943BH   LINE      ---      ---       #65
      00FF943BH   LINE      ---      ---       #67
      00FF943CH   LINE      ---      ---       #68
      00FF9443H   LINE      ---      ---       #70
      00FF9450H   LINE      ---      ---       #72
      00FF9456H   LINE      ---      ---       #74
      00FF9456H   LINE      ---      ---       #75
      00FF9458H   LINE      ---      ---       #77
      00FF945FH   LINE      ---      ---       #79
      00FF9465H   LINE      ---      ---       #80
      0000B673H   SYMBOL    EDATA    BYTE      destAddrMode
      0000B674H   SYMBOL    EDATA    BYTE      srcAddrMode
      0000B675H   SYMBOL    EDATA    BYTE      panIdComp
      ---         BLOCKEND  CODE     ---       LVL=1
L251 LINKER/LOCATER V4.66.93.0                                                        07/01/2025  14:01:01  PAGE 81


      00FF9465H   LINE      ---      ---       #83
      00FF9465H   LINE      CODE     ---       #83

      00FF9466H   BLOCK     CODE     ---       LVL=0
      00FF9466H   LINE      ---      ---       #86
      00FF946CH   LINE      ---      ---       #92
      00FF947BH   LINE      ---      ---       #93
      00FF947DH   LINE      ---      ---       #94
      00FF9486H   LINE      ---      ---       #95
      00FF9496H   LINE      ---      ---       #96
      00FF94A8H   LINE      ---      ---       #97
      00FF94BCH   LINE      ---      ---       #98
      00FF94D2H   LINE      ---      ---       #99
      00FF94E2H   LINE      ---      ---       #100
      00FF94F1H   LINE      ---      ---       #101
      00FF9501H   LINE      ---      ---       #103
      00FF950AH   LINE      ---      ---       #105
      00FF9511H   LINE      ---      ---       #107
      00FF951FH   LINE      ---      ---       #108
      00FF9525H   LINE      ---      ---       #110
      00FF952CH   LINE      ---      ---       #111
      00FF952EH   LINE      ---      ---       #112
      00FF952EH   LINE      ---      ---       #114
      00FF9537H   LINE      ---      ---       #117
      00FF953AH   LINE      ---      ---       #119
      00FF9541H   LINE      ---      ---       #120
      00FF9543H   LINE      ---      ---       #121
      00FF9545H   LINE      ---      ---       #124
      00FF9554H   LINE      ---      ---       #125
      00FF9556H   LINE      ---      ---       #126
      00FF9565H   LINE      ---      ---       #127
      00FF9567H   LINE      ---      ---       #128
      00FF9567H   LINE      ---      ---       #129
      00FF9567H   LINE      ---      ---       #131
      00FF956DH   LINE      ---      ---       #133
      00FF9574H   LINE      ---      ---       #134
      00FF9576H   LINE      ---      ---       #135
      00FF9576H   LINE      ---      ---       #137
      00FF9581H   LINE      ---      ---       #139
      00FF9584H   LINE      ---      ---       #142
      00FF9584H   LINE      ---      ---       #144
      00FF9584H   LINE      ---      ---       #145
      00FF9584H   LINE      ---      ---       #146
      00FF9586H   LINE      ---      ---       #150
      00FF9586H   LINE      ---      ---       #152
      00FF9586H   LINE      ---      ---       #153
      00FF9586H   LINE      ---      ---       #154
      00FF9586H   LINE      ---      ---       #155
      00FF9586H   LINE      ---      ---       #156
      00FF9586H   LINE      ---      ---       #157
      00FF9588H   LINE      ---      ---       #159
      00FF9593H   LINE      ---      ---       #162
      00FF959CH   LINE      ---      ---       #164
      00FF95A3H   LINE      ---      ---       #165
      00FF95A5H   LINE      ---      ---       #166
      00FF95ACH   LINE      ---      ---       #168
      00FF95B3H   LINE      ---      ---       #169
      00FF95B5H   LINE      ---      ---       #170
      00FF95B7H   LINE      ---      ---       #173
      00FF95C6H   LINE      ---      ---       #174
      00FF95C8H   LINE      ---      ---       #175
      00FF95D7H   LINE      ---      ---       #176
      00FF95D9H   LINE      ---      ---       #177
      00FF95D9H   LINE      ---      ---       #178
      00FF95D9H   LINE      ---      ---       #180
L251 LINKER/LOCATER V4.66.93.0                                                        07/01/2025  14:01:01  PAGE 82


      00FF95E2H   LINE      ---      ---       #182
      00FF95E8H   LINE      ---      ---       #184
      00FF95EFH   LINE      ---      ---       #185
      00FF95F1H   LINE      ---      ---       #186
      00FF95F1H   LINE      ---      ---       #188
      00FF95F8H   LINE      ---      ---       #191
      00FF9607H   LINE      ---      ---       #193
      00FF960EH   LINE      ---      ---       #194
      00FF9610H   LINE      ---      ---       #195
      00FF9612H   LINE      ---      ---       #199
      00FF9621H   LINE      ---      ---       #201
      00FF9630H   LINE      ---      ---       #202
      00FF9632H   LINE      ---      ---       #203
      00FF9641H   LINE      ---      ---       #205
      00FF9643H   LINE      ---      ---       #207
      00FF9643H   LINE      ---      ---       #208
      00FF9643H   LINE      ---      ---       #214
      00FF964CH   LINE      ---      ---       #217
      00FF9653H   LINE      ---      ---       #218
      00FF9653H   LINE      ---      ---       #219
      00FF965DH   LINE      ---      ---       #254
      REG=7       REGSYM    ---      ---       dptr
      REG=6       REGSYM    ---      ---       hdr
      ---         BLOCKEND  ---      ---       LVL=0

      ---         MODULE    ---      ---       mac_isr
      00FF96B5H   PUBLIC    CODE     ---       mac_IsrHandler
      00FF17B3H   PUBLIC    CODE     ---       mac_IsrInit
      00FF9746H   PUBLIC    CODE     ---       mac_BmuIsrInit
      00FF6FDEH   PUBLIC    CODE     ---       mac_isr_reg_cb
      0000B5E0H   PUBLIC    EDATA    ---       g_mac_isr_cb_handle
      00000080H   SFRSYM    DATA     BYTE      P0

      00FF96B5H   BLOCK     CODE     ---       LVL=0
      00FF96B5H   LINE      ---      ---       #44
      00FF96B9H   LINE      ---      ---       #46
      00FF96BCH   LINE      ---      ---       #48
      00FF96C4H   LINE      ---      ---       #49
      00FF96CAH   LINE      ---      ---       #50
      00FF96CAH   LINE      ---      ---       #52
      00FF96CDH   LINE      ---      ---       #53
      00FF96D0H   LINE      ---      ---       #55
      00FF96D0H   LINE      ---      ---       #57
      00FF96D5H   LINE      ---      ---       #59
      00FF96DDH   LINE      ---      ---       #60
      00FF96E3H   LINE      ---      ---       #61
      00FF96E3H   LINE      ---      ---       #63
      00FF96E6H   LINE      ---      ---       #64
      00FF96E9H   LINE      ---      ---       #65
      00FF96E9H   LINE      ---      ---       #67
      00FF96EEH   LINE      ---      ---       #69
      00FF96F6H   LINE      ---      ---       #70
      00FF96FCH   LINE      ---      ---       #71
      00FF96FCH   LINE      ---      ---       #73
      00FF96FFH   LINE      ---      ---       #74
      00FF9702H   LINE      ---      ---       #75
      00FF9702H   LINE      ---      ---       #78
      00FF9707H   LINE      ---      ---       #84
      00FF9718H   LINE      ---      ---       #85
      00FF971BH   LINE      ---      ---       #86
      00FF971BH   LINE      ---      ---       #87
      00FF971BH   LINE      ---      ---       #88
      00FF971DH   LINE      ---      ---       #89
      00FF971DH   LINE      ---      ---       #93
      00FF9720H   LINE      ---      ---       #94
L251 LINKER/LOCATER V4.66.93.0                                                        07/01/2025  14:01:01  PAGE 83


      00FF9723H   LINE      ---      ---       #95
      00FF972AH   LINE      ---      ---       #96
      00FF972AH   LINE      ---      ---       #98
      00FF972FH   LINE      ---      ---       #100
      00FF9737H   LINE      ---      ---       #101
      00FF973DH   LINE      ---      ---       #102
      00FF973DH   LINE      ---      ---       #104
      00FF9740H   LINE      ---      ---       #105
      00FF9743H   LINE      ---      ---       #106
      R15         REGSYM    ---      BYTE      intSts
      ---         BLOCKEND  ---      ---       LVL=0

      00FF17B3H   BLOCK     CODE     ---       LVL=0
      00FF17B3H   LINE      ---      ---       #132
      00FF17B3H   LINE      ---      ---       #134
      ---         BLOCKEND  ---      ---       LVL=0

      00FF9746H   BLOCK     CODE     ---       LVL=0
      00FF9746H   LINE      ---      ---       #141
      00FF9746H   LINE      ---      ---       #150
      ---         BLOCKEND  ---      ---       LVL=0

      00FF6FDEH   BLOCK     CODE     ---       LVL=0
      00FF6FDEH   LINE      ---      ---       #153
      00FF6FE0H   LINE      ---      ---       #155
      REG=2       REGSYM    ---      ---       cb
      ---         BLOCKEND  ---      ---       LVL=0

      ---         MODULE    ---      ---       mac_cmd_hdlr
      00FF9752H   PUBLIC    CODE     ---       Pci_SetRfFreq
      00FF97A4H   PUBLIC    CODE     ---       Pci_SetRxTaskPara
      00FF4ED8H   PUBLIC    CODE     ---       Pci_EnableSingleTone
      00FF4F16H   PUBLIC    CODE     ---       Pci_SetRfeSecurityCmd
      00FF89B1H   PUBLIC    CODE     ---       Pci_SetRfeTxEnableCmd
      00FF97EEH   PUBLIC    CODE     ---       Pci_SetRfeTxDisableCmd
      00FF5E49H   PUBLIC    CODE     ---       Pci_SetRfeRxEnableCmd
      00FF45BAH   PUBLIC    CODE     ---       Pci_SetRfeRxDisableCmd
      00FF4C9DH   PUBLIC    CODE     ---       Pci_GetCrcCount
      00FF9804H   PUBLIC    CODE     ---       Pci_SetRfSleep
      00FF9823H   PUBLIC    CODE     ---       Pci_SetRfIdle
      00FF4D08H   PUBLIC    CODE     ---       Pci_GetRssi
      00FF4D71H   PUBLIC    CODE     ---       Pci_GetPhyStatus
      00FF9839H   PUBLIC    CODE     ---       Pci_SetClockMode
      00FF5CBFH   PUBLIC    CODE     ---       Pci_SetRfbAutoState
      00FF4FE1H   PUBLIC    CODE     ---       Pci_SetRfeMode
      00FF9885H   PUBLIC    CODE     ---       Pci_SetGaussianFilterType
      00FF4B20H   PUBLIC    CODE     ---       Pci_SetWakeOnRadio
      00FF9898H   PUBLIC    CODE     ---       Pci_Set2ChScanFreq
      00FF4A9DH   PUBLIC    CODE     ---       Pci_SetRxReservePara
      00FF5338H   PUBLIC    CODE     ---       Pci_InitFsk
      00FF992DH   PUBLIC    CODE     ---       Pci_SetFskModem
      00FF5770H   PUBLIC    CODE     ---       Pci_SetFskMac
      00FF45D4H   PUBLIC    CODE     ---       Pci_SetFskPreamble
      00FF2E45H   PUBLIC    CODE     ---       Pci_SetFskSfd
      00FF2FCEH   PUBLIC    CODE     ---       Pci_SetFskType
      00FF996FH   PUBLIC    CODE     ---       Pci_BleCmdInitBle
      00FF9A99H   PUBLIC    CODE     ---       Pci_BleCmdSetBleModem
      00FF2E90H   PUBLIC    CODE     ---       Pci_BleCmdSetBleMac
      00FF9C52H   PUBLIC    CODE     ---       Pci_BlePhy_SetHtrp_Para
      00FF9A62H   PUBLIC    CODE     ---       Pci_BlePhy_SetHtrp_Map_Channel
      00FF9A32H   PUBLIC    CODE     ---       Pci_BlePhy_SetHtrp_Sec
      00FF9B9DH   PUBLIC    CODE     ---       Pci_BlePhy_SetHtrp_Tx_Enable
      00FF9A14H   PUBLIC    CODE     ---       Pci_BlePhy_SetHtrp_Rx_Enable
      00FF99F7H   PUBLIC    CODE     ---       Pci_BlePhy_SetHtrp_Disable
      00FF9BC2H   PUBLIC    CODE     ---       Pci_BlePhy_SetHtrp_Initiate
L251 LINKER/LOCATER V4.66.93.0                                                        07/01/2025  14:01:01  PAGE 84


      00FF2DFDH   PUBLIC    CODE     ---       Pci_BlePhy_GetHtrp_Status
      00FF9CF5H   PUBLIC    CODE     ---       Pci_InitZigbee
      00FF5D6EH   PUBLIC    CODE     ---       Pci_Parse15p4AddressFilter
      00FF9D68H   PUBLIC    CODE     ---       Pci_Parse15p4MacPib
      00FF9DB1H   PUBLIC    CODE     ---       Pci_Parse15p4PhyPib
      00FF5F6AH   PUBLIC    CODE     ---       Pci_Parse15p4AutoAck
      00FF2D84H   PUBLIC    CODE     ---       Pci_Parse15p4PendingBit
      00FF5BDCH   PUBLIC    CODE     ---       Pci_Parse15p4SmEnable
      00FF5AEFH   PUBLIC    CODE     ---       Pci_Set15p4CslReceiverCtrl
      00FF5F50H   PUBLIC    CODE     ---       Pci_Get15p4CslAccuracy
      00FF5F5DH   PUBLIC    CODE     ---       Pci_Get15p4CslUncertainty
      00FF9DEAH   PUBLIC    CODE     ---       Pci_Update15p4CslSampleTime
      00FF5372H   PUBLIC    CODE     ---       Pci_OqpskCmdInitOqpsk
      00FF9E25H   PUBLIC    CODE     ---       Pci_OqpskCmdSetOqpskModem
      00FF9E63H   PUBLIC    CODE     ---       Pci_OqpskCmdSetOqpskMac
      00FF50ADH   PUBLIC    CODE     ---       MAC_CmdQueueParse
      00FF8662H   PUBLIC    CODE     ---       Pci_SetPhr
      00FF5F05H   PUBLIC    CODE     ---       Pci_RfeRxParaCheck
      00FF413BH   PUBLIC    CODE     ---       SetRfIdle
      00FF5E26H   PUBLIC    CODE     ---       Reverse_Uint32cpy
      00FF9F19H   PUBLIC    CODE     ---       MAC_CheckRfFreq
      00FF2FF6H   PUBLIC    CODE     ---       get_pan_number
      00FF9F94H   PUBLIC    CODE     ---       get_intercom_mode_status
      00FF9FCBH   PUBLIC    CODE     ---       get_switch_tx_freq
      00FF53B3H   PUBLIC    CODE     ---       Pci_ParaReset
      00FF8C6AH   PUBLIC    CODE     ---       Pci_RfeTxParaCheck
      00FF5C1EH   PUBLIC    CODE     ---       Pci_Parset15p4SmEntryCtrl
      00FF4BCAH   PUBLIC    CODE     ---       Pci_ParseCommonCmd
      00FF5B5DH   PUBLIC    CODE     ---       Pci_Parse15p4SwMacCmd
      00FF9992H   PUBLIC    CODE     ---       Pci_ParseBleCmd
      00FF5307H   PUBLIC    CODE     ---       Pci_ParseFskCmd
      00FF52EBH   PUBLIC    CODE     ---       Pci_ParseOqpskCmd
      00FF5238H   PUBLIC    CODE     ---       Pci_ParseCmnSysCmd
      00FF5491H   PUBLIC    CODE     ---       Pci_ParseCmnHalCmd
      0000B3F0H   PUBLIC    EDATA    BYTE      gSleepEnable
      0000B3F1H   PUBLIC    EDATA    ---       g15p4Mac
      0000B404H   PUBLIC    EDATA    ---       g15p4Phy
      00FF123BH   PUBLIC    HCONST   ---       gPciCommonCmdLen
      00FF125AH   PUBLIC    HCONST   ---       gPciFskCmdLen
      00FF1260H   PUBLIC    HCONST   ---       gPciBleCmdLen
      00FF126BH   PUBLIC    HCONST   ---       gPci15p4MacCmdLen
      00FF1278H   PUBLIC    HCONST   ---       gPciOqpskCmdLen
      00FF127CH   PUBLIC    HCONST   ---       gCmnSysCmdLen
      00FF127EH   PUBLIC    HCONST   ---       gCmnHalCmdLen
      000000A8H.7 SFRSYM    DATA     BIT       EA
      00000080H   SFRSYM    DATA     BYTE      P0

      00FF2FF6H   BLOCK     CODE     ---       LVL=0
      00FF2FF6H   LINE      ---      ---       #306
      00FF2FF6H   LINE      ---      ---       #307
      00FF2FF6H   BLOCK     CODE     NEAR LAB  LVL=1
      00FF2FF6H   LINE      ---      ---       #309
      00FF2FFFH   LINE      ---      ---       #312
      00FF301DH   LINE      ---      ---       #313
      00FF3028H   LINE      ---      ---       #315
      0000B6A3H   SYMBOL    EDATA    BYTE      Pannum
      WR6         REGSYM    ---      WORD      bufferAddress_LOCAL
      REG=2       REGSYM    ---      ---       pInput
      ---         BLOCKEND  CODE     ---       LVL=1
      00FF302CH   LINE      ---      ---       #316
      00FF302CH   LINE      CODE     ---       #316

      00FF9F94H   BLOCK     CODE     ---       LVL=0
      00FF9F94H   LINE      ---      ---       #319
      00FF9F94H   LINE      ---      ---       #320
L251 LINKER/LOCATER V4.66.93.0                                                        07/01/2025  14:01:01  PAGE 85


      00FF9F94H   BLOCK     CODE     NEAR LAB  LVL=1
      00FF9F94H   LINE      ---      ---       #322
      00FF9F9DH   LINE      ---      ---       #325
      00FF9FBBH   LINE      ---      ---       #326
      00FF9FC6H   LINE      ---      ---       #328
      0000B6A4H   SYMBOL    EDATA    BYTE      Status
      WR6         REGSYM    ---      WORD      bufferAddress_LOCAL
      REG=2       REGSYM    ---      ---       pInput
      ---         BLOCKEND  CODE     ---       LVL=1
      00FF9FCAH   LINE      ---      ---       #329
      00FF9FCAH   LINE      CODE     ---       #329

      00FF9FCBH   BLOCK     CODE     ---       LVL=0
      00FF9FCBH   LINE      ---      ---       #332
      00FF9FCBH   LINE      ---      ---       #333
      00FF9FCBH   BLOCK     CODE     NEAR LAB  LVL=1
      00FF9FCBH   LINE      ---      ---       #335
      00FF9FD4H   LINE      ---      ---       #338
      00FF9FF2H   LINE      ---      ---       #339
      00FF9FF9H   LINE      ---      ---       #341
      0000B63DH   SYMBOL    EDATA    DWORD     freq
      WR4         REGSYM    ---      WORD      bufferAddress_LOCAL
      REG=3       REGSYM    ---      ---       pInput
      ---         BLOCKEND  CODE     ---       LVL=1
      00FF9FFDH   LINE      ---      ---       #342
      00FF9FFDH   LINE      CODE     ---       #342

      00FF865DH   BLOCK     CODE     ---       LVL=0
      00FF8662H   LINE      ---      ---       #344
      00FF866AH   LINE      ---      ---       #345
      00FF865DH   SYMBOL    CODE     NEAR LAB  ?L?COM004B
      WR14        REGSYM    ---      WORD      pktLen
      R13         REGSYM    ---      BYTE      dateType
      00FF866AH   BLOCK     CODE     NEAR LAB  LVL=1
      00FF866AH   LINE      ---      ---       #349
      00FF8678H   LINE      ---      ---       #352
      00FF8678H   LINE      ---      ---       #353
      00FF8680H   LINE      ---      ---       #354
      00FF868AH   LINE      ---      ---       #355
      00FF868AH   LINE      ---      ---       #356
      00FF868CH   LINE      ---      ---       #359
      00FF868CH   LINE      ---      ---       #360
      00FF8698H   LINE      ---      ---       #361
      00FF869FH   LINE      ---      ---       #362
      00FF869FH   LINE      ---      ---       #363
      00FF86A1H   LINE      ---      ---       #366
      00FF86A1H   LINE      ---      ---       #367
      0000B688H   SYMBOL    EDATA    WORD      phrContent
      00FF86A1H   BLOCK     CODE     NEAR LAB  LVL=2
      00FF86A1H   LINE      ---      ---       #370
      00FF86B0H   LINE      ---      ---       #372
      00FF86BDH   LINE      ---      ---       #373
      00FF86C2H   LINE      ---      ---       #374
      00FF86CDH   LINE      ---      ---       #375
      00FF86D1H   LINE      ---      ---       #376
      00FF86DCH   LINE      ---      ---       #377
      R10         REGSYM    ---      BYTE      crcType
      ---         BLOCKEND  CODE     ---       LVL=2
      00FF86E9H   LINE      ---      ---       #379
      00FF86E9H   LINE      ---      ---       #405
      00FF86E9H   LINE      ---      ---       #406
      00FF86E9H   LINE      ---      ---       #407
      00FF86E9H   LINE      CODE     ---       #407
      ---         BLOCKEND  CODE     ---       LVL=0

L251 LINKER/LOCATER V4.66.93.0                                                        07/01/2025  14:01:01  PAGE 86


      00FF53AEH   BLOCK     CODE     ---       LVL=0
      00FF53B3H   LINE      ---      ---       #410
      00FF53B3H   LINE      ---      ---       #412
      00FF53B7H   LINE      ---      ---       #413
      00FF53BDH   LINE      ---      ---       #415
      00FF53C9H   LINE      ---      ---       #416
      00FF53CDH   LINE      ---      ---       #417
      00FF53D3H   LINE      ---      ---       #418
      00FF53D8H   LINE      ---      ---       #419
      00FF53DCH   LINE      ---      ---       #420
      00FF53E0H   LINE      ---      ---       #421
      00FF53AEH   SYMBOL    CODE     NEAR LAB  ?L?COM004D
      WR6         REGSYM    ---      INT       rfkBand
      ---         BLOCKEND  ---      ---       LVL=0

      00FF4F16H   BLOCK     CODE     ---       LVL=0
      00FF4F16H   LINE      ---      ---       #424
      00FF4F1CH   LINE      ---      ---       #425
      REG=7       REGSYM    ---      ---       pCmdAddress
      00FF4F1CH   BLOCK     CODE     NEAR LAB  LVL=1
      00FF4F1CH   LINE      ---      ---       #430
      00FF4F21H   LINE      ---      ---       #437
      00FF4F24H   LINE      ---      ---       #447
      00FF4F24H   LINE      ---      ---       #455
      00FF4F3AH   LINE      ---      ---       #456
      00FF4F3EH   LINE      ---      ---       #458
      00FF4F4EH   LINE      ---      ---       #472
      REG=7       REGSYM    ---      ---       pCmdIn
      R13         REGSYM    ---      BYTE      Pannum
      ---         BLOCKEND  CODE     ---       LVL=1
      00FF4F58H   LINE      ---      ---       #473
      00FF4F58H   LINE      CODE     ---       #473

      00FF8C6AH   BLOCK     CODE     ---       LVL=0
      00FF8C6AH   LINE      ---      ---       #477
      00FF8C70H   LINE      ---      ---       #480
      00FF8C7AH   LINE      ---      ---       #481
      00FF8C7DH   LINE      ---      ---       #484
      00FF8C86H   LINE      ---      ---       #485
      00FF8C89H   LINE      ---      ---       #488
      00FF8CA5H   LINE      ---      ---       #489
      00FF8CA8H   LINE      ---      ---       #492
      00FF8CACH   LINE      ---      ---       #493
      00FF8CAFH   LINE      ---      ---       #496
      00FF8CBDH   LINE      ---      ---       #497
      00FF8CC0H   LINE      ---      ---       #500
      00FF8CCBH   LINE      ---      ---       #502
      00FF8CDFH   LINE      ---      ---       #503
      00FF8CE2H   LINE      ---      ---       #504
      00FF8CE8H   LINE      ---      ---       #506
      00FF8CF2H   LINE      ---      ---       #507
      00FF8CF5H   LINE      ---      ---       #508
      00FF8CF5H   LINE      ---      ---       #509
      00FF8CFFH   LINE      ---      ---       #511
      00FF8D09H   LINE      ---      ---       #512
      00FF8D0CH   LINE      ---      ---       #513
      00FF8D0CH   LINE      ---      ---       #514
      00FF8D10H   LINE      ---      ---       #515
      00FF8D13H   LINE      ---      ---       #516
      00FF8D1DH   LINE      ---      ---       #517
      00FF8D20H   LINE      ---      ---       #518
      00FF8D20H   LINE      ---      ---       #520
      00FF8D22H   LINE      ---      ---       #521
      WR12        REGSYM    ---      WORD      txCounter
      WR14        REGSYM    ---      WORD      txStepSize
L251 LINKER/LOCATER V4.66.93.0                                                        07/01/2025  14:01:01  PAGE 87


      ---         BLOCKEND  ---      ---       LVL=0

      00FF5F05H   BLOCK     CODE     ---       LVL=0
      00FF5F05H   LINE      ---      ---       #523
      00FF5F0BH   LINE      ---      ---       #526
      00FF5F15H   LINE      ---      ---       #527
      00FF5F18H   LINE      ---      ---       #530
      00FF5F20H   LINE      ---      ---       #531
      00FF5F23H   LINE      ---      ---       #534
      00FF5F2DH   LINE      ---      ---       #537
      00FF5F31H   LINE      ---      ---       #538
      00FF5F34H   LINE      ---      ---       #541
      00FF5F48H   LINE      ---      ---       #542
      00FF5F4BH   LINE      ---      ---       #543
      00FF5F4BH   LINE      ---      ---       #545
      00FF5F4DH   LINE      ---      ---       #546
      R11         REGSYM    ---      BYTE      rxType
      R15         REGSYM    ---      BYTE      queueType
      R10         REGSYM    ---      BYTE      ackEnable
      DR0         REGSYM    ---      DWORD     ackInterval
      ---         BLOCKEND  ---      ---       LVL=0

      00FF89B1H   BLOCK     CODE     ---       LVL=0
      00FF89B1H   LINE      ---      ---       #550
      00FF89B5H   LINE      ---      ---       #551
      REG=7       REGSYM    ---      ---       pCmdAddress
      00FF89B5H   BLOCK     CODE     NEAR LAB  LVL=1
      00FF89B5H   LINE      ---      ---       #565
      00FF89B8H   LINE      ---      ---       #569
      00FF89D3H   LINE      ---      ---       #572
      00FF89D3H   LINE      ---      ---       #576
      00FF89DBH   LINE      ---      ---       #577
      00FF89E3H   LINE      ---      ---       #578
      00FF89EBH   LINE      ---      ---       #579
      00FF89F7H   LINE      ---      ---       #580
      00FF89FFH   LINE      ---      ---       #581
      00FF8A07H   LINE      ---      ---       #582
      00FF8A0FH   LINE      ---      ---       #585
      00FF8A1BH   LINE      ---      ---       #587
      00FF8A23H   LINE      ---      ---       #588
      00FF8A25H   LINE      ---      ---       #589
      00FF8A25H   LINE      ---      ---       #592
      00FF8A37H   LINE      ---      ---       #595
      00FF8A3DH   LINE      ---      ---       #596
      00FF8A45H   LINE      ---      ---       #619
      REG=7       REGSYM    ---      ---       pCmdIn
      ---         BLOCKEND  CODE     ---       LVL=1
      00FF8A4DH   LINE      ---      ---       #620
      00FF8A4DH   LINE      CODE     ---       #620

      00FF97EEH   BLOCK     CODE     ---       LVL=0
      00FF97EEH   LINE      ---      ---       #622
      00FF97EEH   LINE      ---      ---       #624
      00FF97EEH   LINE      ---      ---       #636
      00FF97F1H   LINE      ---      ---       #641
      00FF97F7H   LINE      ---      ---       #647
      00FF97FCH   LINE      ---      ---       #650
      ---         BLOCKEND  ---      ---       LVL=0

      00FF5E49H   BLOCK     CODE     ---       LVL=0
      00FF5E49H   LINE      ---      ---       #653
      00FF5E4DH   LINE      ---      ---       #654
      REG=7       REGSYM    ---      ---       pCmdAddress
      00FF5E4DH   BLOCK     CODE     NEAR LAB  LVL=1
      00FF5E4DH   LINE      ---      ---       #669
L251 LINKER/LOCATER V4.66.93.0                                                        07/01/2025  14:01:01  PAGE 88


      00FF5E50H   LINE      ---      ---       #673
      00FF5E6BH   LINE      ---      ---       #676
      00FF5E6BH   LINE      ---      ---       #680
      00FF5E77H   LINE      ---      ---       #681
      00FF5E7FH   LINE      ---      ---       #682
      00FF5E87H   LINE      ---      ---       #683
      00FF5E8FH   LINE      ---      ---       #686
      00FF5EA5H   LINE      ---      ---       #688
      00FF5EADH   LINE      ---      ---       #689
      00FF5EAFH   LINE      ---      ---       #690
      00FF5EAFH   LINE      ---      ---       #693
      00FF5EC6H   LINE      ---      ---       #696
      00FF5ECCH   LINE      ---      ---       #697
      00FF5ED4H   LINE      ---      ---       #709
      00FF5EDCH   LINE      ---      ---       #711
      00FF5EEDH   LINE      ---      ---       #715
      00FF5EF8H   LINE      ---      ---       #717
      00FF5EF8H   LINE      ---      ---       #720
      REG=7       REGSYM    ---      ---       pCmdIn
      DR12        REGSYM    ---      DWORD     periodicReportCycle
      ---         BLOCKEND  CODE     ---       LVL=1
      00FF5F02H   LINE      ---      ---       #721
      00FF5F02H   LINE      CODE     ---       #721

      00FF45BAH   BLOCK     CODE     ---       LVL=0
      00FF45BAH   LINE      ---      ---       #723
      00FF45BAH   LINE      ---      ---       #725
      00FF45BAH   LINE      ---      ---       #737
      00FF45BCH   LINE      ---      ---       #742
      00FF45C2H   LINE      ---      ---       #751
      00FF45C5H   LINE      ---      ---       #761
      00FF45CAH   LINE      ---      ---       #768
      ---         BLOCKEND  ---      ---       LVL=0

      00FF4C9DH   BLOCK     CODE     ---       LVL=0
      00FF4C9DH   LINE      ---      ---       #771
      00FF4C9DH   LINE      ---      ---       #773
      00FF4C9DH   LINE      ---      ---       #774
      00FF4CA7H   LINE      ---      ---       #775
      ---         BLOCKEND  ---      ---       LVL=0

      00FF4D71H   BLOCK     CODE     ---       LVL=0
      00FF4D71H   LINE      ---      ---       #778
      00FF4D71H   LINE      ---      ---       #780
      00FF4D71H   LINE      ---      ---       #781
      00FF4D7BH   LINE      ---      ---       #782
      ---         BLOCKEND  ---      ---       LVL=0

      00FF9804H   BLOCK     CODE     ---       LVL=0
      00FF9804H   LINE      ---      ---       #788
      00FF9808H   LINE      ---      ---       #793
      00FF980BH   LINE      ---      ---       #799
      00FF980FH   LINE      ---      ---       #801
      00FF9816H   LINE      ---      ---       #803
      00FF9820H   LINE      ---      ---       #804
      REG=7       REGSYM    ---      ---       pCmdAddress
      ---         BLOCKEND  ---      ---       LVL=0

      00FF9823H   BLOCK     CODE     ---       LVL=0
      00FF9823H   LINE      ---      ---       #806
      00FF9823H   LINE      ---      ---       #808
      00FF9823H   LINE      ---      ---       #813
      00FF9826H   LINE      ---      ---       #822
      00FF982BH   LINE      ---      ---       #824
      00FF982FH   LINE      ---      ---       #826
L251 LINKER/LOCATER V4.66.93.0                                                        07/01/2025  14:01:01  PAGE 89


      ---         BLOCKEND  ---      ---       LVL=0

      00FF4D08H   BLOCK     CODE     ---       LVL=0
      00FF4D08H   LINE      ---      ---       #831
      00FF4D08H   LINE      ---      ---       #833
      00FF4D08H   LINE      ---      ---       #834
      00FF4D12H   LINE      ---      ---       #838
      ---         BLOCKEND  ---      ---       LVL=0

      00FF9839H   BLOCK     CODE     ---       LVL=0
      00FF9839H   LINE      ---      ---       #844
      00FF983DH   LINE      ---      ---       #845
      REG=7       REGSYM    ---      ---       pCmdAddress
      00FF983DH   BLOCK     CODE     NEAR LAB  LVL=1
      00FF983DH   LINE      ---      ---       #854
      00FF9840H   LINE      ---      ---       #858
      00FF9844H   LINE      ---      ---       #859
      00FF984BH   LINE      ---      ---       #860
      00FF984FH   LINE      ---      ---       #862
      00FF9854H   LINE      ---      ---       #865
      00FF9857H   LINE      ---      ---       #866
      00FF9857H   LINE      ---      ---       #867
      00FF985BH   LINE      ---      ---       #870
      00FF9860H   LINE      ---      ---       #873
      00FF9878H   LINE      ---      ---       #875
      0000B6A5H   SYMBOL    EDATA    BYTE      ModemType
      R13         REGSYM    ---      BYTE      rfkBandType
      R12         REGSYM    ---      BYTE      ClockMode
      ---         BLOCKEND  CODE     ---       LVL=1
      00FF9882H   LINE      ---      ---       #876
      00FF9882H   LINE      CODE     ---       #876

      00FF5CBFH   BLOCK     CODE     ---       LVL=0
      00FF5CBFH   LINE      ---      ---       #879
      00FF5CC3H   LINE      ---      ---       #885
      00FF5CC6H   LINE      ---      ---       #892
      00FF5CCAH   LINE      ---      ---       #895
      00FF5CDBH   LINE      ---      ---       #897
      00FF5CE0H   LINE      ---      ---       #902
      00FF5CE7H   LINE      ---      ---       #903
      00FF5CEEH   LINE      ---      ---       #905
      00FF5CFCH   LINE      ---      ---       #907
      00FF5D02H   LINE      ---      ---       #908
      00FF5D0AH   LINE      ---      ---       #909
      00FF5D0AH   LINE      ---      ---       #910
      00FF5D12H   LINE      ---      ---       #911
      00FF5D17H   LINE      ---      ---       #913
      00FF5D1EH   LINE      ---      ---       #914
      00FF5D21H   LINE      ---      ---       #915
      00FF5D27H   LINE      ---      ---       #916
      00FF5D29H   LINE      ---      ---       #918
      00FF5D2FH   LINE      ---      ---       #919
      00FF5D34H   LINE      ---      ---       #920
      00FF5D3AH   LINE      ---      ---       #922
      00FF5D3DH   LINE      ---      ---       #926
      00FF5D3FH   LINE      ---      ---       #931
      00FF5D45H   LINE      ---      ---       #932
      00FF5D4BH   LINE      ---      ---       #935
      00FF5D51H   LINE      ---      ---       #937
      00FF5D61H   LINE      ---      ---       #938
      00FF5D61H   LINE      ---      ---       #942
      00FF5D61H   LINE      ---      ---       #944
      00FF5D6BH   LINE      ---      ---       #945
      REG=7       REGSYM    ---      ---       pCmdAddress
      ---         BLOCKEND  ---      ---       LVL=0
L251 LINKER/LOCATER V4.66.93.0                                                        07/01/2025  14:01:01  PAGE 90



      00FF4FE1H   BLOCK     CODE     ---       LVL=0
      00FF4FE1H   LINE      ---      ---       #947
      00FF4FE1H   LINE      ---      ---       #975
      00FF4FE1H   LINE      ---      ---       #979
      ---         BLOCKEND  ---      ---       LVL=0

      00FF9885H   BLOCK     CODE     ---       LVL=0
      00FF9885H   LINE      ---      ---       #982
      00FF9885H   LINE      ---      ---       #983
      REG=3       REGSYM    ---      ---       pCmdAddress
      00FF9885H   BLOCK     CODE     NEAR LAB  LVL=1
      00FF9885H   LINE      ---      ---       #998
      00FF9885H   LINE      ---      ---       #1000
      00FF988EH   LINE      ---      ---       #1002
      REG=3       REGSYM    ---      ---       pCmdIn
      ---         BLOCKEND  CODE     ---       LVL=1
      ---         BLOCKEND  CODE     ---       LVL=0

      00FF4B20H   BLOCK     CODE     ---       LVL=0
      00FF4B20H   LINE      ---      ---       #1008
      00FF4B24H   LINE      ---      ---       #1009
      REG=7       REGSYM    ---      ---       pCmdAddress
      00FF4B24H   BLOCK     CODE     NEAR LAB  LVL=1
      00FF4B24H   LINE      ---      ---       #1017
      00FF4B3FH   LINE      ---      ---       #1020
      00FF4B41H   LINE      ---      ---       #1021
      00FF4B4DH   LINE      ---      ---       #1024
      00FF4B50H   LINE      ---      ---       #1026
      00FF4B55H   LINE      ---      ---       #1028
      00FF4B55H   LINE      ---      ---       #1029
      00FF4B55H   LINE      ---      ---       #1031
      00FF4B67H   LINE      ---      ---       #1033
      00FF4B67H   LINE      ---      ---       #1034
      00FF4B67H   LINE      ---      ---       #1035
      00FF4B69H   LINE      ---      ---       #1037
      00FF4B6EH   LINE      ---      ---       #1038
      00FF4B74H   LINE      ---      ---       #1039
      00FF4B82H   LINE      ---      ---       #1040
      00FF4B95H   LINE      ---      ---       #1041
      00FF4B9BH   LINE      ---      ---       #1042
      00FF4B9FH   LINE      ---      ---       #1043
      00FF4BA7H   LINE      ---      ---       #1044
      00FF4BAFH   LINE      ---      ---       #1045
      00FF4BB5H   LINE      ---      ---       #1049
      00FF4BBDH   LINE      ---      ---       #1051
      00FF4BBDH   LINE      ---      ---       #1052
      00FF4BBDH   SYMBOL    CODE     NEAR LAB  DONE?2140?mac_cmd_hdlr
      REG=6       REGSYM    ---      ---       pCmdIn
      0000B641H   SYMBOL    EDATA    DWORD     freqTmp
      R15         REGSYM    ---      BYTE      result
      00FF4BC8H   SYMBOL    CODE     NEAR LAB  DONE?2140
      ---         BLOCKEND  CODE     ---       LVL=1
      00FF4BC7H   LINE      ---      ---       #1053
      00FF4BC7H   LINE      CODE     ---       #1053

      00FF9898H   BLOCK     CODE     ---       LVL=0
      00FF9898H   LINE      ---      ---       #1057
      00FF989EH   LINE      ---      ---       #1058
      REG=7       REGSYM    ---      ---       pCmdAddress
      00FF989EH   BLOCK     CODE     NEAR LAB  LVL=1
      00FF989EH   LINE      ---      ---       #1071
      00FF98B9H   LINE      ---      ---       #1074
      00FF98BBH   LINE      ---      ---       #1075
      00FF98C1H   LINE      ---      ---       #1077
L251 LINKER/LOCATER V4.66.93.0                                                        07/01/2025  14:01:01  PAGE 91


      00FF98C6H   LINE      ---      ---       #1078
      00FF98CAH   LINE      ---      ---       #1079
      00FF98CCH   LINE      ---      ---       #1080
      00FF98CEH   LINE      ---      ---       #1081
      00FF98CEH   LINE      ---      ---       #1083
      00FF98D6H   LINE      ---      ---       #1084
      00FF98DEH   LINE      ---      ---       #1087
      00FF98E1H   LINE      ---      ---       #1089
      00FF98F9H   LINE      ---      ---       #1090
      00FF98F9H   LINE      ---      ---       #1092
      00FF98FBH   LINE      ---      ---       #1093
      00FF9901H   LINE      ---      ---       #1094
      00FF990DH   LINE      ---      ---       #1096
      00FF990FH   LINE      ---      ---       #1097
      00FF9911H   LINE      ---      ---       #1100
      00FF9916H   LINE      ---      ---       #1101
      00FF9916H   LINE      ---      ---       #1102
      00FF991AH   LINE      ---      ---       #1103
      00FF991EH   LINE      ---      ---       #1105
      00FF991EH   LINE      ---      ---       #1106
      00FF991EH   SYMBOL    CODE     NEAR LAB  DONE?mac_cmd_hdlr
      REG=4       REGSYM    ---      ---       pCmdIn
      DR0         REGSYM    ---      DWORD     freqTmp1
      DR4         REGSYM    ---      DWORD     freqTmp2
      R13         REGSYM    ---      BYTE      result
      00FF9935H   SYMBOL    CODE     NEAR LAB  DONE
      ---         BLOCKEND  CODE     ---       LVL=1
      00FF9928H   LINE      ---      ---       #1107
      00FF9928H   LINE      CODE     ---       #1107

      00FF4A9DH   BLOCK     CODE     ---       LVL=0
      00FF4A9DH   LINE      ---      ---       #1110
      00FF4AA1H   LINE      ---      ---       #1116
      00FF4AA4H   LINE      ---      ---       #1120
      00FF4ABFH   LINE      ---      ---       #1121
      00FF4AC3H   LINE      ---      ---       #1123
      00FF4ACEH   LINE      ---      ---       #1124
      00FF4AD0H   LINE      ---      ---       #1125
      00FF4ADBH   LINE      ---      ---       #1127
      00FF4AE0H   LINE      ---      ---       #1128
      00FF4AE6H   LINE      ---      ---       #1129
      00FF4AE9H   LINE      ---      ---       #1130
      00FF4AF9H   LINE      ---      ---       #1132
      00FF4AFFH   LINE      ---      ---       #1134
      00FF4B07H   LINE      ---      ---       #1135
      00FF4B09H   LINE      ---      ---       #1139
      00FF4B13H   LINE      ---      ---       #1144
      00FF4B13H   LINE      ---      ---       #1146
      00FF4B1DH   LINE      ---      ---       #1147
      REG=7       REGSYM    ---      ---       pCmdAddress
      ---         BLOCKEND  ---      ---       LVL=0

      00FF9CF5H   BLOCK     CODE     ---       LVL=0
      00FF9CF5H   LINE      ---      ---       #1175
      00FF9CF5H   LINE      ---      ---       #1184
      00FF9CF5H   LINE      ---      ---       #1187
      00FF9CFAH   LINE      ---      ---       #1189
      00FF9D02H   LINE      ---      ---       #1190
      00FF9D06H   LINE      ---      ---       #1191
      00FF9D0CH   LINE      ---      ---       #1192
      00FF9D11H   LINE      ---      ---       #1202
      00FF9D14H   LINE      ---      ---       #1205
      00FF9D2EH   LINE      ---      ---       #1206
      00FF9D3EH   LINE      ---      ---       #1207
      00FF9D50H   LINE      ---      ---       #1208
L251 LINKER/LOCATER V4.66.93.0                                                        07/01/2025  14:01:01  PAGE 92


      00FF9D5EH   LINE      ---      ---       #1211
      ---         BLOCKEND  ---      ---       LVL=0

      00FF5E26H   BLOCK     CODE     ---       LVL=0
      00FF5E26H   LINE      ---      ---       #1214
      00FF5E2AH   LINE      ---      ---       #1216
      00FF5E31H   LINE      ---      ---       #1217
      00FF5E39H   LINE      ---      ---       #1218
      00FF5E41H   LINE      ---      ---       #1219
      00FF5E48H   LINE      ---      ---       #1220
      REG=0       REGSYM    ---      ---       aValue
      REG=1       REGSYM    ---      ---       aBuffer
      ---         BLOCKEND  ---      ---       LVL=0

      00FF5D6EH   BLOCK     CODE     ---       LVL=0
      00FF5D6EH   LINE      ---      ---       #1223
      00FF5D74H   LINE      ---      ---       #1224
      REG=7       REGSYM    ---      ---       pCmdAddress
      00FF5D74H   BLOCK     CODE     NEAR LAB  LVL=1
      00FF5D74H   LINE      ---      ---       #1226
      00FF5D79H   LINE      ---      ---       #1231
      00FF5D7DH   LINE      ---      ---       #1233
      00FF5D84H   LINE      ---      ---       #1234
      00FF5D86H   LINE      ---      ---       #1237
      00FF5D99H   LINE      ---      ---       #1239
      00FF5DA4H   LINE      ---      ---       #1240
      00FF5DA6H   LINE      ---      ---       #1242
      00FF5DB9H   LINE      ---      ---       #1243
      00FF5DBBH   LINE      ---      ---       #1245
      00FF5DCEH   LINE      ---      ---       #1246
      00FF5DD0H   LINE      ---      ---       #1248
      00FF5DDBH   LINE      ---      ---       #1249
      00FF5DDDH   LINE      ---      ---       #1251
      00FF5DE6H   LINE      ---      ---       #1270
      00FF5DFAH   LINE      ---      ---       #1271
      00FF5E0EH   LINE      ---      ---       #1272
      00FF5E1CH   LINE      ---      ---       #1280
      R13         REGSYM    ---      BYTE      Pannum
      ---         BLOCKEND  CODE     ---       LVL=1
      00FF5E21H   LINE      ---      ---       #1281
      00FF5E21H   LINE      CODE     ---       #1281

      00FF9D68H   BLOCK     CODE     ---       LVL=0
      00FF9D68H   LINE      ---      ---       #1284
      00FF9D6CH   LINE      ---      ---       #1286
      00FF9D87H   LINE      ---      ---       #1289
      00FF9D94H   LINE      ---      ---       #1292
      00FF9D9CH   LINE      ---      ---       #1294
      00FF9DA4H   LINE      ---      ---       #1296
      00FF9DAEH   LINE      ---      ---       #1297
      REG=7       REGSYM    ---      ---       pCmdAddress
      ---         BLOCKEND  ---      ---       LVL=0

      00FF9DB1H   BLOCK     CODE     ---       LVL=0
      00FF9DB1H   LINE      ---      ---       #1299
      00FF9DB5H   LINE      ---      ---       #1301
      00FF9DD0H   LINE      ---      ---       #1304
      00FF9DDDH   LINE      ---      ---       #1306
      00FF9DE7H   LINE      ---      ---       #1307
      REG=7       REGSYM    ---      ---       pCmdAddress
      ---         BLOCKEND  ---      ---       LVL=0

      00FF5F6AH   BLOCK     CODE     ---       LVL=0
      00FF5F6AH   LINE      ---      ---       #1309
      00FF5F6AH   LINE      ---      ---       #1311
L251 LINKER/LOCATER V4.66.93.0                                                        07/01/2025  14:01:01  PAGE 93


      00FF5F72H   LINE      ---      ---       #1312
      REG=3       REGSYM    ---      ---       pCmdAddress
      ---         BLOCKEND  ---      ---       LVL=0

      00FF2D84H   BLOCK     CODE     ---       LVL=0
      00FF2D84H   LINE      ---      ---       #1315
      00FF2D88H   LINE      ---      ---       #1316
      REG=7       REGSYM    ---      ---       pCmdAddress
      00FF2D88H   BLOCK     CODE     NEAR LAB  LVL=1
      00FF2D88H   LINE      ---      ---       #1321
      00FF2D8AH   LINE      ---      ---       #1323
      00FF2D94H   LINE      ---      ---       #1328
      00FF2D99H   LINE      ---      ---       #1329
      00FF2DA3H   LINE      ---      ---       #1331
      R6          REGSYM    ---      BYTE      Pannum
      ---         BLOCKEND  CODE     ---       LVL=1
      00FF2DACH   LINE      ---      ---       #1335
      00FF2DACH   LINE      CODE     ---       #1335

      00FF5BDCH   BLOCK     CODE     ---       LVL=0
      00FF5BDCH   LINE      ---      ---       #1339
      00FF5BE2H   LINE      ---      ---       #1340
      REG=7       REGSYM    ---      ---       pCmdAddress
      00FF5BE2H   BLOCK     CODE     NEAR LAB  LVL=1
      00FF5BE2H   LINE      ---      ---       #1341
      00FF5BE4H   LINE      ---      ---       #1343
      00FF5BEAH   LINE      ---      ---       #1345
      00FF5BEDH   LINE      ---      ---       #1346
      00FF5BEFH   LINE      ---      ---       #1349
      00FF5BF3H   LINE      ---      ---       #1350
      00FF5BFCH   LINE      ---      ---       #1352
      00FF5BFFH   LINE      ---      ---       #1353
      00FF5BFFH   LINE      ---      ---       #1356
      R13         REGSYM    ---      BYTE      cmdCnfStatus
      ---         BLOCKEND  CODE     ---       LVL=1
      00FF5C09H   LINE      ---      ---       #1357
      00FF5C09H   LINE      CODE     ---       #1357

      00FF5C1EH   BLOCK     CODE     ---       LVL=0
      00FF5C1EH   LINE      ---      ---       #1359
      00FF5C26H   LINE      ---      ---       #1360
      REG=6       REGSYM    ---      ---       pCmdAddress
      R14         REGSYM    ---      BYTE      cmdSubheader
      R15         REGSYM    ---      BYTE      type
      00FF5C26H   BLOCK     CODE     NEAR LAB  LVL=1
      00FF5C26H   LINE      ---      ---       #1361
      00FF5C2BH   LINE      ---      ---       #1364
      00FF5C33H   LINE      ---      ---       #1366
      00FF5C62H   LINE      ---      ---       #1368
      00FF5C62H   LINE      ---      ---       #1369
      00FF5C68H   LINE      ---      ---       #1370
      00FF5C6AH   LINE      ---      ---       #1372
      00FF5C6AH   LINE      ---      ---       #1373
      00FF5C6AH   LINE      ---      ---       #1374
      00FF5C6AH   LINE      ---      ---       #1375
      00FF5C6AH   LINE      ---      ---       #1377
      00FF5C76H   LINE      ---      ---       #1378
      00FF5C79H   LINE      ---      ---       #1380
      00FF5C84H   LINE      ---      ---       #1382
      00FF5C84H   LINE      ---      ---       #1383
      00FF5C86H   LINE      ---      ---       #1387
      00FF5C8EH   LINE      ---      ---       #1388
      00FF5C8EH   LINE      ---      ---       #1389
      00FF5C90H   LINE      ---      ---       #1391
      00FF5C90H   LINE      ---      ---       #1392
L251 LINKER/LOCATER V4.66.93.0                                                        07/01/2025  14:01:01  PAGE 94


      00FF5C90H   LINE      ---      ---       #1393
      00FF5C90H   LINE      ---      ---       #1394
      00FF5C90H   LINE      ---      ---       #1395
      00FF5C9AH   LINE      ---      ---       #1396
      00FF5C9CH   LINE      ---      ---       #1398
      00FF5C9CH   LINE      ---      ---       #1399
      00FF5CA7H   LINE      ---      ---       #1401
      00FF5CA9H   LINE      ---      ---       #1402
      00FF5CA9H   LINE      ---      ---       #1403
      00FF5CABH   LINE      ---      ---       #1405
      00FF5CABH   LINE      ---      ---       #1406
      00FF5CB1H   LINE      ---      ---       #1407
      00FF5CB1H   LINE      ---      ---       #1408
      00FF5CB1H   LINE      ---      ---       #1410
      0000B68AH   SYMBOL    EDATA    BYTE      cmdCnfStatus
      0000B68BH   SYMBOL    EDATA    BYTE      listidx
      ---         BLOCKEND  CODE     ---       LVL=1
      00FF5CBCH   LINE      ---      ---       #1411
      00FF5CBCH   LINE      CODE     ---       #1411

      00FF5AEFH   BLOCK     CODE     ---       LVL=0
      00FF5AEFH   LINE      ---      ---       #1428
      00FF5AF3H   LINE      ---      ---       #1430
      00FF5AF6H   LINE      ---      ---       #1432
      00FF5B11H   LINE      ---      ---       #1433
      00FF5B15H   LINE      ---      ---       #1435
      00FF5B1CH   LINE      ---      ---       #1436
      00FF5B1EH   LINE      ---      ---       #1438
      00FF5B29H   LINE      ---      ---       #1439
      00FF5B37H   LINE      ---      ---       #1441
      00FF5B41H   LINE      ---      ---       #1444
      00FF5B47H   LINE      ---      ---       #1445
      00FF5B58H   LINE      ---      ---       #1447
      00FF5B5AH   LINE      ---      ---       #1449
      REG=7       REGSYM    ---      ---       pCmdAddress
      ---         BLOCKEND  ---      ---       LVL=0

      00FF5F50H   BLOCK     CODE     ---       LVL=0
      00FF5F50H   LINE      ---      ---       #1451
      00FF5F50H   LINE      ---      ---       #1453
      00FF5F50H   LINE      ---      ---       #1454
      00FF5F5AH   LINE      ---      ---       #1456
      ---         BLOCKEND  ---      ---       LVL=0

      00FF5F5DH   BLOCK     CODE     ---       LVL=0
      00FF5F5DH   LINE      ---      ---       #1459
      00FF5F5DH   LINE      ---      ---       #1461
      00FF5F5DH   LINE      ---      ---       #1462
      00FF5F67H   LINE      ---      ---       #1464
      ---         BLOCKEND  ---      ---       LVL=0

      00FF9DEAH   BLOCK     CODE     ---       LVL=0
      00FF9DEAH   LINE      ---      ---       #1468
      00FF9DEEH   LINE      ---      ---       #1470
      00FF9E09H   LINE      ---      ---       #1471
      00FF9E0DH   LINE      ---      ---       #1473
      00FF9E18H   LINE      ---      ---       #1474
      00FF9E22H   LINE      ---      ---       #1476
      REG=7       REGSYM    ---      ---       pCmdAddress
      ---         BLOCKEND  ---      ---       LVL=0

      00FF5372H   BLOCK     CODE     ---       LVL=0
      00FF5372H   LINE      ---      ---       #1481
      00FF5376H   LINE      ---      ---       #1482
      REG=7       REGSYM    ---      ---       pCmdAddress
L251 LINKER/LOCATER V4.66.93.0                                                        07/01/2025  14:01:01  PAGE 95


      00FF5376H   BLOCK     CODE     NEAR LAB  LVL=1
      00FF5376H   LINE      ---      ---       #1495
      00FF5379H   LINE      ---      ---       #1499
      00FF537BH   LINE      ---      ---       #1500
      00FF5383H   LINE      ---      ---       #1503
      00FF5389H   LINE      ---      ---       #1505
      00FF53A1H   LINE      ---      ---       #1512
      REG=3       REGSYM    ---      ---       pCmdIn
      R15         REGSYM    ---      BYTE      rfkBandType
      ---         BLOCKEND  CODE     ---       LVL=1
      00FF53ABH   LINE      ---      ---       #1513
      00FF53ABH   LINE      CODE     ---       #1513

      00FF9E25H   BLOCK     CODE     ---       LVL=0
      00FF9E25H   LINE      ---      ---       #1515
      00FF9E29H   LINE      ---      ---       #1521
      00FF9E2CH   LINE      ---      ---       #1528
      00FF9E30H   LINE      ---      ---       #1530
      00FF9E37H   LINE      ---      ---       #1531
      00FF9E3DH   LINE      ---      ---       #1534
      00FF9E49H   LINE      ---      ---       #1535
      00FF9E5BH   LINE      ---      ---       #1538
      00FF9E60H   LINE      ---      ---       #1539
      REG=7       REGSYM    ---      ---       pCmdAddress
      ---         BLOCKEND  ---      ---       LVL=0

      00FF9E63H   BLOCK     CODE     ---       LVL=0
      00FF9E63H   LINE      ---      ---       #1540
      REG=7       REGSYM    ---      ---       pCmdAddress
      00FF9E67H   BLOCK     CODE     NEAR LAB  LVL=1
      00FF9E6AH   LINE      ---      ---       #1556
      00FF9E6EH   LINE      ---      ---       #1558
      00FF9E71H   LINE      ---      ---       #1575
      00FF9E73H   LINE      ---      ---       #1576
      00FF9E7EH   LINE      ---      ---       #1577
      00FF9E81H   LINE      ---      ---       #1578
      00FF9E8EH   LINE      ---      ---       #1580
      00FF9E91H   LINE      ---      ---       #1581
      00FF9E95H   LINE      ---      ---       #1582
      00FF9E98H   LINE      ---      ---       #1583
      00FF9E9FH   LINE      ---      ---       #1585
      00FF9EA8H   LINE      ---      ---       #1588
      R11         REGSYM    ---      BYTE      crcType
      R11         REGSYM    ---      BYTE      whiteningEn
      R13         REGSYM    ---      BYTE      result
      ---         BLOCKEND  CODE     ---       LVL=1
      00FF9EB2H   LINE      ---      ---       #1589
      00FF9EB2H   LINE      CODE     ---       #1589

      00FF996FH   BLOCK     CODE     ---       LVL=0
      00FF996FH   LINE      ---      ---       #1641
      00FF996FH   LINE      ---      ---       #1652
      00FF9972H   LINE      ---      ---       #1661
      00FF9988H   LINE      ---      ---       #1668
      ---         BLOCKEND  ---      ---       LVL=0

      00FF9A99H   BLOCK     CODE     ---       LVL=0
      00FF9A99H   LINE      ---      ---       #1671
      00FF9A9FH   LINE      ---      ---       #1672
      REG=7       REGSYM    ---      ---       pCmdAddress
      00FF9A9FH   BLOCK     CODE     NEAR LAB  LVL=1
      00FF9A9FH   LINE      ---      ---       #1679
      00FF9AA2H   LINE      ---      ---       #1686
      00FF9AA2H   LINE      ---      ---       #1688
      00FF9AABH   LINE      ---      ---       #1690
L251 LINKER/LOCATER V4.66.93.0                                                        07/01/2025  14:01:01  PAGE 96


      00FF9AB7H   LINE      ---      ---       #1691
      00FF9AC1H   LINE      ---      ---       #1693
      00FF9ACFH   LINE      ---      ---       #1694
      00FF9AE3H   LINE      ---      ---       #1695
      00FF9AF6H   LINE      ---      ---       #1700
      00FF9AF8H   LINE      ---      ---       #1703
      00FF9AFCH   LINE      ---      ---       #1705
      00FF9B02H   LINE      ---      ---       #1707
      00FF9B0BH   LINE      ---      ---       #1708
      00FF9B12H   LINE      ---      ---       #1710
      00FF9B1AH   LINE      ---      ---       #1711
      00FF9B1AH   LINE      ---      ---       #1713
      00FF9B24H   LINE      ---      ---       #1715
      00FF9B30H   LINE      ---      ---       #1716
      00FF9B42H   LINE      ---      ---       #1721
      00FF9B42H   LINE      ---      ---       #1723
      REG=7       REGSYM    ---      ---       pCmdIn
      ---         BLOCKEND  CODE     ---       LVL=1
      00FF9B47H   LINE      ---      ---       #1724
      00FF9B47H   LINE      CODE     ---       #1724

      00FF2E90H   BLOCK     CODE     ---       LVL=0
      00FF2E90H   LINE      ---      ---       #1726
      00FF2E94H   LINE      ---      ---       #1727
      REG=7       REGSYM    ---      ---       pCmdAddress
      00FF2E94H   BLOCK     CODE     NEAR LAB  LVL=1
      00FF2E94H   LINE      ---      ---       #1734
      00FF2E97H   LINE      ---      ---       #1738
      00FF2EB2H   LINE      ---      ---       #1741
      00FF2EB2H   LINE      ---      ---       #1744
      00FF2EB8H   LINE      ---      ---       #1745
      00FF2EBCH   LINE      ---      ---       #1747
      00FF2EC7H   LINE      ---      ---       #1749
      00FF2ED6H   LINE      ---      ---       #1750
      00FF2EF0H   LINE      ---      ---       #1751
      00FF2F0AH   LINE      ---      ---       #1759
      REG=7       REGSYM    ---      ---       pCmdIn
      ---         BLOCKEND  CODE     ---       LVL=1
      00FF2F13H   LINE      ---      ---       #1760
      00FF2F13H   LINE      CODE     ---       #1760

      00FF9C52H   BLOCK     CODE     ---       LVL=0
      00FF9C52H   LINE      ---      ---       #1763
      00FF9C56H   LINE      ---      ---       #1764
      REG=7       REGSYM    ---      ---       pCmdAddress
      00FF9C56H   BLOCK     CODE     NEAR LAB  LVL=1
      00FF9C56H   LINE      ---      ---       #1767
      00FF9C5CH   LINE      ---      ---       #1768
      00FF9C64H   LINE      ---      ---       #1769
      00FF9C66H   LINE      ---      ---       #1770
      00FF9C66H   LINE      ---      ---       #1772
      00FF9C81H   LINE      ---      ---       #1774
      00FF9C83H   LINE      ---      ---       #1776
      00FF9C8BH   LINE      ---      ---       #1777
      00FF9C93H   LINE      ---      ---       #1778
      00FF9C9BH   LINE      ---      ---       #1779
      00FF9CA3H   LINE      ---      ---       #1780
      00FF9CABH   LINE      ---      ---       #1781
      00FF9CB3H   LINE      ---      ---       #1782
      00FF9CBBH   LINE      ---      ---       #1783
      00FF9CC3H   LINE      ---      ---       #1784
      00FF9CCFH   LINE      ---      ---       #1785
      00FF9CDBH   LINE      ---      ---       #1786
      00FF9CE8H   LINE      ---      ---       #1788
      REG=3       REGSYM    ---      ---       p_para
L251 LINKER/LOCATER V4.66.93.0                                                        07/01/2025  14:01:01  PAGE 97


      ---         BLOCKEND  CODE     ---       LVL=1
      00FF9CF2H   LINE      ---      ---       #1789
      00FF9CF2H   LINE      CODE     ---       #1789

      00FF9A62H   BLOCK     CODE     ---       LVL=0
      00FF9A62H   LINE      ---      ---       #1791
      00FF9A62H   LINE      ---      ---       #1792
      REG=3       REGSYM    ---      ---       pCmdAddress
      00FF9A62H   BLOCK     CODE     NEAR LAB  LVL=1
      00FF9A62H   LINE      ---      ---       #1793
      00FF9A64H   LINE      ---      ---       #1796
      00FF9A6AH   LINE      ---      ---       #1797
      00FF9A72H   LINE      ---      ---       #1798
      00FF9A74H   LINE      ---      ---       #1799
      00FF9A74H   LINE      ---      ---       #1804
      00FF9A86H   LINE      ---      ---       #1807
      REG=2       REGSYM    ---      ---       para
      R6          REGSYM    ---      BYTE      result
      ---         BLOCKEND  CODE     ---       LVL=1
      ---         BLOCKEND  CODE     ---       LVL=0

      00FF9A32H   BLOCK     CODE     ---       LVL=0
      00FF9A32H   LINE      ---      ---       #1810
      00FF9A32H   LINE      ---      ---       #1811
      REG=3       REGSYM    ---      ---       pCmdAddress
      00FF9A32H   BLOCK     CODE     NEAR LAB  LVL=1
      00FF9A32H   LINE      ---      ---       #1812
      00FF9A34H   LINE      ---      ---       #1814
      00FF9A3AH   LINE      ---      ---       #1815
      00FF9A42H   LINE      ---      ---       #1816
      00FF9A44H   LINE      ---      ---       #1817
      00FF9A44H   LINE      ---      ---       #1819
      00FF9A4CH   LINE      ---      ---       #1821
      00FF9A4EH   LINE      ---      ---       #1825
      00FF9A58H   LINE      ---      ---       #1827
      00FF9A58H   LINE      ---      ---       #1829
      REG=2       REGSYM    ---      ---       para
      ---         BLOCKEND  CODE     ---       LVL=1
      ---         BLOCKEND  CODE     ---       LVL=0

      00FF9B9DH   BLOCK     CODE     ---       LVL=0
      00FF9B9DH   LINE      ---      ---       #1832
      00FF9B9DH   LINE      ---      ---       #1834
      00FF9B9DH   LINE      ---      ---       #1836
      00FF9BA3H   LINE      ---      ---       #1837
      00FF9BABH   LINE      ---      ---       #1838
      00FF9BADH   LINE      ---      ---       #1839
      00FF9BADH   LINE      ---      ---       #1841
      00FF9BB3H   LINE      ---      ---       #1842
      00FF9BB8H   LINE      ---      ---       #1844
      ---         BLOCKEND  ---      ---       LVL=0

      00FF9A14H   BLOCK     CODE     ---       LVL=0
      00FF9A14H   LINE      ---      ---       #1847
      00FF9A14H   LINE      ---      ---       #1849
      00FF9A14H   LINE      ---      ---       #1851
      00FF9A1AH   LINE      ---      ---       #1852
      00FF9A25H   LINE      ---      ---       #1853
      00FF9A25H   LINE      ---      ---       #1854
      00FF9A25H   LINE      ---      ---       #1856
      00FF9A27H   LINE      ---      ---       #1857
      00FF9A2DH   LINE      ---      ---       #1858
      ---         BLOCKEND  ---      ---       LVL=0

      00FF99F7H   BLOCK     CODE     ---       LVL=0
L251 LINKER/LOCATER V4.66.93.0                                                        07/01/2025  14:01:01  PAGE 98


      00FF99F7H   LINE      ---      ---       #1861
      00FF99F7H   LINE      ---      ---       #1863
      00FF99F7H   LINE      ---      ---       #1865
      00FF9A05H   LINE      ---      ---       #1866
      00FF9A10H   LINE      ---      ---       #1867
      00FF9A10H   LINE      ---      ---       #1868
      00FF9A10H   LINE      ---      ---       #1873
      ---         BLOCKEND  ---      ---       LVL=0

      00FF9BC2H   BLOCK     CODE     ---       LVL=0
      00FF9BC2H   LINE      ---      ---       #1877
      00FF9BC4H   LINE      ---      ---       #1878
      REG=3       REGSYM    ---      ---       pCmdAddress
      00FF9BC4H   BLOCK     CODE     NEAR LAB  LVL=1
      00FF9BC4H   LINE      ---      ---       #1879
      00FF9BC6H   LINE      ---      ---       #1880
      00FF9BCFH   LINE      ---      ---       #1882
      00FF9BD7H   LINE      ---      ---       #1883
      00FF9BD9H   LINE      ---      ---       #1884
      00FF9BD9H   LINE      ---      ---       #1889
      00FF9BDCH   LINE      ---      ---       #1895
      00FF9BF8H   LINE      ---      ---       #1897
      REG=7       REGSYM    ---      ---       para
      ---         BLOCKEND  CODE     ---       LVL=1
      00FF9C02H   LINE      ---      ---       #1899
      00FF9C02H   LINE      CODE     ---       #1899

      00FF2DFDH   BLOCK     CODE     ---       LVL=0
      00FF2DFDH   LINE      ---      ---       #1901
      00FF2DFFH   LINE      ---      ---       #1902
      REG=3       REGSYM    ---      ---       pCmdAddress
      00FF2DFFH   BLOCK     CODE     NEAR LAB  LVL=1
      00FF2DFFH   LINE      ---      ---       #1903
      00FF2E01H   LINE      ---      ---       #1905
      00FF2E0AH   LINE      ---      ---       #1906
      00FF2E14H   LINE      ---      ---       #1907
      00FF2E16H   LINE      ---      ---       #1908
      00FF2E16H   LINE      ---      ---       #1910
      00FF2E1FH   LINE      ---      ---       #1912
      00FF2E30H   LINE      ---      ---       #1914
      00FF2E30H   LINE      ---      ---       #1915
      00FF2E33H   LINE      ---      ---       #1916
      00FF2E35H   LINE      ---      ---       #1917
      00FF2E35H   LINE      ---      ---       #1918
      00FF2E38H   LINE      ---      ---       #1919
      00FF2E3AH   LINE      ---      ---       #1920
      00FF2E3AH   LINE      ---      ---       #1921
      00FF2E3DH   LINE      ---      ---       #1922
      00FF2E3FH   LINE      ---      ---       #1923
      00FF2E3FH   LINE      ---      ---       #1924
      00FF2E42H   LINE      ---      ---       #1925
      00FF2E42H   LINE      ---      ---       #1926
      REG=7       REGSYM    ---      ---       para
      ---         BLOCKEND  CODE     ---       LVL=1
      00FF2E42H   LINE      ---      ---       #1928
      00FF2E42H   LINE      CODE     ---       #1928

      00FF5338H   BLOCK     CODE     ---       LVL=0
      00FF5338H   LINE      ---      ---       #1935
      00FF533CH   LINE      ---      ---       #1936
      REG=7       REGSYM    ---      ---       pCmdAddress
      00FF533CH   BLOCK     CODE     NEAR LAB  LVL=1
      00FF533CH   LINE      ---      ---       #1948
      00FF533FH   LINE      ---      ---       #1955
      00FF5343H   LINE      ---      ---       #1957
L251 LINKER/LOCATER V4.66.93.0                                                        07/01/2025  14:01:01  PAGE 99


      00FF5348H   LINE      ---      ---       #1960
      00FF534BH   LINE      ---      ---       #1961
      00FF534BH   LINE      ---      ---       #1964
      00FF534FH   LINE      ---      ---       #1966
      00FF5365H   LINE      ---      ---       #1972
      R15         REGSYM    ---      BYTE      rfkBandType
      ---         BLOCKEND  CODE     ---       LVL=1
      00FF536FH   LINE      ---      ---       #1973
      00FF536FH   LINE      CODE     ---       #1973

      00FF992DH   BLOCK     CODE     ---       LVL=0
      00FF992DH   LINE      ---      ---       #1975
      00FF9931H   LINE      ---      ---       #1976
      REG=7       REGSYM    ---      ---       pCmdAddress
      00FF9931H   BLOCK     CODE     NEAR LAB  LVL=1
      00FF9931H   LINE      ---      ---       #1983
      00FF9934H   LINE      ---      ---       #1990
      00FF9938H   LINE      ---      ---       #1992
      00FF993FH   LINE      ---      ---       #1993
      00FF9945H   LINE      ---      ---       #1994
      00FF9949H   LINE      ---      ---       #1995
      00FF9955H   LINE      ---      ---       #1996
      00FF9967H   LINE      ---      ---       #1998
      R15         REGSYM    ---      BYTE      modIdx
      ---         BLOCKEND  CODE     ---       LVL=1
      00FF996CH   LINE      ---      ---       #1999
      00FF996CH   LINE      CODE     ---       #1999

      00FF5770H   BLOCK     CODE     ---       LVL=0
      00FF5770H   LINE      ---      ---       #2001
      REG=7       REGSYM    ---      ---       pCmdAddress
      00FF5774H   BLOCK     CODE     NEAR LAB  LVL=1
      00FF5777H   LINE      ---      ---       #2017
      00FF577BH   LINE      ---      ---       #2019
      00FF577EH   LINE      ---      ---       #2020
      00FF5780H   LINE      ---      ---       #2021
      00FF578AH   LINE      ---      ---       #2022
      00FF578DH   LINE      ---      ---       #2023
      00FF579AH   LINE      ---      ---       #2025
      00FF579DH   LINE      ---      ---       #2027
      00FF57A1H   LINE      ---      ---       #2028
      00FF57A4H   LINE      ---      ---       #2029
      00FF57AAH   LINE      ---      ---       #2031
      00FF57B3H   LINE      ---      ---       #2037
      R11         REGSYM    ---      BYTE      crcType
      R11         REGSYM    ---      BYTE      whiteningEn
      R13         REGSYM    ---      BYTE      result
      ---         BLOCKEND  CODE     ---       LVL=1
      00FF57BDH   LINE      ---      ---       #2038
      00FF57BDH   LINE      CODE     ---       #2038

      00FF45D4H   BLOCK     CODE     ---       LVL=0
      00FF45D4H   LINE      ---      ---       #2040
      00FF45D8H   LINE      ---      ---       #2041
      REG=7       REGSYM    ---      ---       pCmdAddress
      00FF45D8H   BLOCK     CODE     NEAR LAB  LVL=1
      00FF45D8H   LINE      ---      ---       #2048
      00FF45DAH   LINE      ---      ---       #2055
      00FF45DEH   LINE      ---      ---       #2057
      00FF45E1H   LINE      ---      ---       #2058
      00FF45E3H   LINE      ---      ---       #2064
      R11         REGSYM    ---      BYTE      preambleLen
      ---         BLOCKEND  CODE     ---       LVL=1
      00FF45EDH   LINE      ---      ---       #2065
      00FF45EDH   LINE      CODE     ---       #2065
L251 LINKER/LOCATER V4.66.93.0                                                        07/01/2025  14:01:01  PAGE 100



      00FF2E45H   BLOCK     CODE     ---       LVL=0
      00FF2E45H   LINE      ---      ---       #2067
      00FF2E49H   LINE      ---      ---       #2068
      REG=7       REGSYM    ---      ---       pCmdAddress
      00FF2E49H   BLOCK     CODE     NEAR LAB  LVL=1
      00FF2E49H   LINE      ---      ---       #2075
      00FF2E4CH   LINE      ---      ---       #2079
      00FF2E67H   LINE      ---      ---       #2080
      00FF2E6BH   LINE      ---      ---       #2082
      00FF2E74H   LINE      ---      ---       #2083
      00FF2E7CH   LINE      ---      ---       #2084
      00FF2E84H   LINE      ---      ---       #2090
      DR12        REGSYM    ---      DWORD     sfdContent
      ---         BLOCKEND  CODE     ---       LVL=1
      00FF2E8DH   LINE      ---      ---       #2091
      00FF2E8DH   LINE      CODE     ---       #2091

      00FF2FCEH   BLOCK     CODE     ---       LVL=0
      00FF2FCEH   LINE      ---      ---       #2093
      00FF2FCEH   LINE      ---      ---       #2094
      REG=3       REGSYM    ---      ---       pCmdAddress
      00FF2FCEH   BLOCK     CODE     NEAR LAB  LVL=1
      00FF2FCEH   LINE      ---      ---       #2103
      00FF2FCEH   LINE      ---      ---       #2105
      00FF2FD6H   LINE      ---      ---       #2111
      REG=3       REGSYM    ---      ---       pCmdIn
      ---         BLOCKEND  CODE     ---       LVL=1
      ---         BLOCKEND  CODE     ---       LVL=0

      00FF9F19H   BLOCK     CODE     ---       LVL=0
      00FF9F19H   LINE      ---      ---       #2200
      00FF9F1DH   LINE      ---      ---       #2207
      00FF9F20H   LINE      ---      ---       #2211
      00FF9F2BH   LINE      ---      ---       #2214
      00FF9F2BH   LINE      ---      ---       #2215
      00FF9F37H   LINE      ---      ---       #2217
      00FF9F3AH   LINE      ---      ---       #2218
      00FF9F3AH   LINE      ---      ---       #2220
      00FF9F40H   LINE      ---      ---       #2222
      00FF9F50H   LINE      ---      ---       #2224
      00FF9F52H   LINE      ---      ---       #2225
      00FF9F54H   LINE      ---      ---       #2228
      00FF9F59H   LINE      ---      ---       #2229
      00FF9F59H   LINE      ---      ---       #2230
      00FF9F59H   LINE      ---      ---       #2233
      00FF9F65H   LINE      ---      ---       #2235
      00FF9F67H   LINE      ---      ---       #2238
      00FF9F67H   LINE      ---      ---       #2239
      00FF9F7FH   LINE      ---      ---       #2241
      00FF9F82H   LINE      ---      ---       #2242
      00FF9F82H   LINE      ---      ---       #2244
      00FF9F8AH   LINE      ---      ---       #2246
      00FF9F8CH   LINE      ---      ---       #2248
      00FF9F8CH   LINE      ---      ---       #2249
      00FF9F8FH   LINE      ---      ---       #2250
      00FF9F8FH   LINE      ---      ---       #2251
      00FF9F91H   LINE      ---      ---       #2252
      DR12        REGSYM    ---      DWORD     freq
      ---         BLOCKEND  ---      ---       LVL=0

      00FF9752H   BLOCK     CODE     ---       LVL=0
      00FF9752H   LINE      ---      ---       #2254
      00FF9756H   LINE      ---      ---       #2255
      REG=7       REGSYM    ---      ---       pCmdAddress
L251 LINKER/LOCATER V4.66.93.0                                                        07/01/2025  14:01:01  PAGE 101


      00FF9756H   BLOCK     CODE     NEAR LAB  LVL=1
      00FF9756H   LINE      ---      ---       #2267
      00FF9771H   LINE      ---      ---       #2270
      00FF9773H   LINE      ---      ---       #2271
      00FF977BH   LINE      ---      ---       #2274
      00FF9781H   LINE      ---      ---       #2276
      00FF9788H   LINE      ---      ---       #2278
      00FF9788H   LINE      ---      ---       #2279
      00FF9788H   LINE      ---      ---       #2281
      00FF978DH   LINE      ---      ---       #2283
      00FF9791H   LINE      ---      ---       #2284
      00FF9795H   LINE      ---      ---       #2290
      00FF9795H   LINE      ---      ---       #2291
      00FF9795H   SYMBOL    CODE     NEAR LAB  DONE?5841?mac_cmd_hdlr
      REG=3       REGSYM    ---      ---       pCmdIn
      DR12        REGSYM    ---      DWORD     freqTmp
      0000B6A6H   SYMBOL    EDATA    BYTE      result
      00FF9798H   SYMBOL    CODE     NEAR LAB  DONE?5841
      ---         BLOCKEND  CODE     ---       LVL=1
      00FF97A1H   LINE      ---      ---       #2292
      00FF97A1H   LINE      CODE     ---       #2292

      00FF97A4H   BLOCK     CODE     ---       LVL=0
      00FF97A4H   LINE      ---      ---       #2296
      00FF97A8H   LINE      ---      ---       #2301
      00FF97ABH   LINE      ---      ---       #2304
      00FF97C6H   LINE      ---      ---       #2305
      00FF97CAH   LINE      ---      ---       #2307
      00FF97D5H   LINE      ---      ---       #2314
      00FF97DBH   LINE      ---      ---       #2315
      00FF97E3H   LINE      ---      ---       #2317
      00FF97EBH   LINE      ---      ---       #2318
      REG=7       REGSYM    ---      ---       pCmdAddress
      ---         BLOCKEND  ---      ---       LVL=0

      00FF4ED8H   BLOCK     CODE     ---       LVL=0
      00FF4ED8H   LINE      ---      ---       #2322
      00FF4EDCH   LINE      ---      ---       #2327
      00FF4EE0H   LINE      ---      ---       #2330
      00FF4EF0H   LINE      ---      ---       #2331
      00FF4EF5H   LINE      ---      ---       #2334
      00FF4EFCH   LINE      ---      ---       #2335
      00FF4F02H   LINE      ---      ---       #2339
      00FF4F0BH   LINE      ---      ---       #2340
      00FF4F13H   LINE      ---      ---       #2341
      REG=7       REGSYM    ---      ---       pCmdAddress
      ---         BLOCKEND  ---      ---       LVL=0

      00FF4137H   BLOCK     CODE     ---       LVL=0
      00FF413BH   LINE      ---      ---       #2360
      00FF413FH   LINE      ---      ---       #2361
      00FF4137H   SYMBOL    CODE     NEAR LAB  ?L?COM0059
      00FF413FH   BLOCK     CODE     NEAR LAB  LVL=1
      00FF413FH   LINE      ---      ---       #2365
      00FF413FH   LINE      ---      ---       #2367
      00FF4141H   LINE      ---      ---       #2368
      00FF4147H   LINE      ---      ---       #2372
      00FF414BH   LINE      ---      ---       #2375
      00FF414DH   LINE      ---      ---       #2377
      00FF415EH   LINE      ---      ---       #2379
      00FF415EH   LINE      ---      ---       #2380
      00FF415EH   LINE      ---      ---       #2382
      00FF415EH   LINE      ---      ---       #2383
      00FF4161H   LINE      ---      ---       #2384
      00FF4164H   LINE      ---      ---       #2385
L251 LINKER/LOCATER V4.66.93.0                                                        07/01/2025  14:01:01  PAGE 102


      00FF4166H   LINE      ---      ---       #2388
      00FF4166H   LINE      ---      ---       #2392
      00FF4168H   LINE      ---      ---       #2395
      00FF416BH   LINE      ---      ---       #2396
      00FF4176H   LINE      ---      ---       #2397
      00FF4179H   LINE      ---      ---       #2398
      00FF417DH   LINE      ---      ---       #2399
      00FF4182H   LINE      ---      ---       #2400
      00FF4188H   LINE      ---      ---       #2401
      00FF41A6H   LINE      ---      ---       #2403
      00FF41A9H   LINE      ---      ---       #2404
      00FF41B4H   LINE      ---      ---       #2405
      00FF41B4H   LINE      ---      ---       #2406
      00FF41B7H   LINE      ---      ---       #2417
      00FF41B9H   LINE      ---      ---       #2420
      00FF41B9H   LINE      ---      ---       #2421
      00FF41BEH   LINE      ---      ---       #2422
      00FF41BEH   LINE      ---      ---       #2423
      00FF41C3H   LINE      ---      ---       #2424
      00FF41C3H   LINE      ---      ---       #2465
      00FF41C3H   LINE      ---      ---       #2466
      00FF41C3H   LINE      ---      ---       #2467
      00FF41C3H   LINE      ---      ---       #2473
      00FF41C6H   LINE      ---      ---       #2479
      00FF41C8H   LINE      ---      ---       #2486
      00FF41CDH   LINE      ---      ---       #2488
      00FF41CFH   LINE      ---      ---       #2489
      00FF41D1H   LINE      ---      ---       #2492
      00FF41D4H   LINE      ---      ---       #2493
      00FF41D9H   LINE      ---      ---       #2494
      00FF41DDH   LINE      ---      ---       #2496
      00FF41F3H   LINE      ---      ---       #2501
      00FF41F6H   LINE      ---      ---       #2503
      00FF41FCH   LINE      ---      ---       #2504
      R10         REGSYM    ---      BYTE      MacState
      R13         REGSYM    ---      BYTE      queueClr
      WR14        REGSYM    ---      WORD      macFunEventQueue
      ---         BLOCKEND  CODE     ---       LVL=1
      00FF4200H   LINE      ---      ---       #2515
      00FF4200H   LINE      CODE     ---       #2515

      00FF4BCAH   BLOCK     CODE     ---       LVL=0
      00FF4BCAH   LINE      ---      ---       #2518
      00FF4BCCH   LINE      ---      ---       #2520
      00FF4C39H   LINE      ---      ---       #2522
      00FF4C39H   LINE      ---      ---       #2523
      00FF4C3EH   LINE      ---      ---       #2524
      00FF4C3EH   LINE      ---      ---       #2526
      00FF4C3EH   LINE      ---      ---       #2527
      00FF4C43H   LINE      ---      ---       #2528
      00FF4C43H   LINE      ---      ---       #2530
      00FF4C43H   LINE      ---      ---       #2531
      00FF4C47H   LINE      ---      ---       #2532
      00FF4C47H   LINE      ---      ---       #2534
      00FF4C47H   LINE      ---      ---       #2535
      00FF4C4BH   LINE      ---      ---       #2536
      00FF4C4BH   LINE      ---      ---       #2539
      00FF4C4BH   LINE      ---      ---       #2540
      00FF4C50H   LINE      ---      ---       #2541
      00FF4C50H   LINE      ---      ---       #2542
      00FF4C50H   LINE      ---      ---       #2543
      00FF4C55H   LINE      ---      ---       #2544
      00FF4C55H   LINE      ---      ---       #2545
      00FF4C55H   LINE      ---      ---       #2546
      00FF4C5AH   LINE      ---      ---       #2547
L251 LINKER/LOCATER V4.66.93.0                                                        07/01/2025  14:01:01  PAGE 103


      00FF4C5AH   LINE      ---      ---       #2548
      00FF4C5AH   LINE      ---      ---       #2549
      00FF4C5FH   LINE      ---      ---       #2550
      00FF4C5FH   LINE      ---      ---       #2551
      00FF4C5FH   LINE      ---      ---       #2552
      00FF4C63H   LINE      ---      ---       #2553
      00FF4C63H   LINE      ---      ---       #2554
      00FF4C63H   LINE      ---      ---       #2555
      00FF4C67H   LINE      ---      ---       #2556
      00FF4C67H   LINE      ---      ---       #2559
      00FF4C67H   LINE      ---      ---       #2560
      00FF4C6CH   LINE      ---      ---       #2561
      00FF4C6CH   LINE      ---      ---       #2562
      00FF4C6CH   LINE      ---      ---       #2563
      00FF4C71H   LINE      ---      ---       #2564
      00FF4C71H   LINE      ---      ---       #2565
      00FF4C71H   LINE      ---      ---       #2566
      00FF4C71H   LINE      ---      ---       #2567
      00FF4C73H   LINE      ---      ---       #2569
      00FF4C73H   LINE      ---      ---       #2570
      00FF4C77H   LINE      ---      ---       #2571
      00FF4C77H   LINE      ---      ---       #2572
      00FF4C77H   LINE      ---      ---       #2573
      00FF4C7CH   LINE      ---      ---       #2574
      00FF4C7CH   LINE      ---      ---       #2576
      00FF4C7CH   LINE      ---      ---       #2577
      00FF4C81H   LINE      ---      ---       #2578
      00FF4C81H   LINE      ---      ---       #2579
      00FF4C81H   LINE      ---      ---       #2580
      00FF4C85H   LINE      ---      ---       #2581
      00FF4C85H   LINE      ---      ---       #2582
      00FF4C85H   LINE      ---      ---       #2583
      00FF4C8AH   LINE      ---      ---       #2584
      00FF4C8AH   LINE      ---      ---       #2587
      00FF4C8AH   LINE      ---      ---       #2588
      00FF4C8EH   LINE      ---      ---       #2589
      00FF4C8EH   LINE      ---      ---       #2592
      00FF4C8EH   LINE      ---      ---       #2593
      00FF4C93H   LINE      ---      ---       #2594
      00FF4C93H   LINE      ---      ---       #2596
      00FF4C93H   LINE      ---      ---       #2597
      00FF4C97H   LINE      ---      ---       #2598
      00FF4C97H   LINE      ---      ---       #2599
      00FF4C97H   LINE      ---      ---       #2600
      00FF4C9CH   LINE      ---      ---       #2601
      00FF4C9CH   LINE      ---      ---       #2602
      00FF4C9CH   LINE      ---      ---       #2603
      R11         REGSYM    ---      BYTE      cmdId
      REG=4       REGSYM    ---      ---       pCmdAddress
      REG=2       REGSYM    ---      ---       pCmdCnfStatus
      ---         BLOCKEND  ---      ---       LVL=0

      00FF5B5DH   BLOCK     CODE     ---       LVL=0
      00FF5B5DH   LINE      ---      ---       #2606
      00FF5B5FH   LINE      ---      ---       #2608
      00FF5B94H   LINE      ---      ---       #2610
      00FF5B94H   LINE      ---      ---       #2611
      00FF5B99H   LINE      ---      ---       #2612
      00FF5B99H   LINE      ---      ---       #2613
      00FF5B99H   LINE      ---      ---       #2614
      00FF5B9DH   LINE      ---      ---       #2615
      00FF5B9DH   LINE      ---      ---       #2616
      00FF5B9DH   LINE      ---      ---       #2617
      00FF5BA2H   LINE      ---      ---       #2618
      00FF5BA2H   LINE      ---      ---       #2619
L251 LINKER/LOCATER V4.66.93.0                                                        07/01/2025  14:01:01  PAGE 104


      00FF5BA2H   LINE      ---      ---       #2620
      00FF5BA7H   LINE      ---      ---       #2621
      00FF5BA7H   LINE      ---      ---       #2622
      00FF5BA7H   LINE      ---      ---       #2623
      00FF5BABH   LINE      ---      ---       #2624
      00FF5BABH   LINE      ---      ---       #2625
      00FF5BABH   LINE      ---      ---       #2626
      00FF5BB0H   LINE      ---      ---       #2627
      00FF5BB0H   LINE      ---      ---       #2629
      00FF5BB0H   LINE      ---      ---       #2630
      00FF5BB4H   LINE      ---      ---       #2631
      00FF5BB4H   LINE      ---      ---       #2632
      00FF5BB4H   LINE      ---      ---       #2633
      00FF5BBAH   LINE      ---      ---       #2634
      00FF5BBCH   LINE      ---      ---       #2635
      00FF5BBCH   LINE      ---      ---       #2636
      00FF5BC5H   LINE      ---      ---       #2637
      00FF5BC5H   LINE      ---      ---       #2641
      00FF5BC5H   LINE      ---      ---       #2642
      00FF5BC9H   LINE      ---      ---       #2643
      00FF5BC9H   LINE      ---      ---       #2644
      00FF5BC9H   LINE      ---      ---       #2645
      00FF5BCDH   LINE      ---      ---       #2646
      00FF5BCDH   LINE      ---      ---       #2647
      00FF5BCDH   LINE      ---      ---       #2648
      00FF5BD1H   LINE      ---      ---       #2649
      00FF5BD1H   LINE      ---      ---       #2650
      00FF5BD1H   LINE      ---      ---       #2651
      00FF5BD6H   LINE      ---      ---       #2652
      00FF5BD6H   LINE      ---      ---       #2655
      00FF5BD6H   LINE      ---      ---       #2656
      00FF5BDBH   LINE      ---      ---       #2657
      00FF5BDBH   LINE      ---      ---       #2658
      00FF5BDBH   LINE      ---      ---       #2659
      R11         REGSYM    ---      BYTE      cmdId
      REG=4       REGSYM    ---      ---       pCmdAddress
      REG=2       REGSYM    ---      ---       pCmdCnfStatus
      ---         BLOCKEND  ---      ---       LVL=0

      00FF9992H   BLOCK     CODE     ---       LVL=0
      00FF9992H   LINE      ---      ---       #2663
      00FF9994H   LINE      ---      ---       #2665
      00FF99C3H   LINE      ---      ---       #2667
      00FF99C3H   LINE      ---      ---       #2668
      00FF99C7H   LINE      ---      ---       #2669
      00FF99C7H   LINE      ---      ---       #2670
      00FF99C7H   LINE      ---      ---       #2671
      00FF99CBH   LINE      ---      ---       #2672
      00FF99CBH   LINE      ---      ---       #2673
      00FF99CBH   LINE      ---      ---       #2674
      00FF99D0H   LINE      ---      ---       #2675
      00FF99D0H   LINE      ---      ---       #2711
      00FF99D0H   LINE      ---      ---       #2712
      00FF99D4H   LINE      ---      ---       #2713
      00FF99D4H   LINE      ---      ---       #2715
      00FF99D4H   LINE      ---      ---       #2716
      00FF99D8H   LINE      ---      ---       #2717
      00FF99D8H   LINE      ---      ---       #2719
      00FF99D8H   LINE      ---      ---       #2720
      00FF99DCH   LINE      ---      ---       #2721
      00FF99DCH   LINE      ---      ---       #2723
      00FF99DCH   LINE      ---      ---       #2724
      00FF99E0H   LINE      ---      ---       #2725
      00FF99E0H   LINE      ---      ---       #2727
      00FF99E0H   LINE      ---      ---       #2728
L251 LINKER/LOCATER V4.66.93.0                                                        07/01/2025  14:01:01  PAGE 105


      00FF99E4H   LINE      ---      ---       #2729
      00FF99E4H   LINE      ---      ---       #2731
      00FF99E4H   LINE      ---      ---       #2732
      00FF99E8H   LINE      ---      ---       #2733
      00FF99E8H   LINE      ---      ---       #2735
      00FF99E8H   LINE      ---      ---       #2736
      00FF99ECH   LINE      ---      ---       #2737
      00FF99ECH   LINE      ---      ---       #2739
      00FF99ECH   LINE      ---      ---       #2740
      00FF99F1H   LINE      ---      ---       #2741
      00FF99F1H   LINE      ---      ---       #2746
      00FF99F1H   LINE      ---      ---       #2747
      00FF99F6H   LINE      ---      ---       #2748
      00FF99F6H   LINE      ---      ---       #2749
      00FF99F6H   LINE      ---      ---       #2751
      R11         REGSYM    ---      BYTE      cmdId
      REG=4       REGSYM    ---      ---       pCmdAddress
      REG=2       REGSYM    ---      ---       pCmdCnfStatus
      ---         BLOCKEND  ---      ---       LVL=0

      00FF5307H   BLOCK     CODE     ---       LVL=0
      00FF5307H   LINE      ---      ---       #2755
      00FF5309H   LINE      ---      ---       #2757
      00FF5322H   LINE      ---      ---       #2759
      00FF5322H   LINE      ---      ---       #2760
      00FF5324H   LINE      ---      ---       #2761
      00FF5324H   LINE      ---      ---       #2762
      00FF5324H   LINE      ---      ---       #2763
      00FF5327H   LINE      ---      ---       #2764
      00FF5327H   LINE      ---      ---       #2765
      00FF5327H   LINE      ---      ---       #2766
      00FF5329H   LINE      ---      ---       #2767
      00FF5329H   LINE      ---      ---       #2768
      00FF5329H   LINE      ---      ---       #2769
      00FF532CH   LINE      ---      ---       #2770
      00FF532CH   LINE      ---      ---       #2771
      00FF532CH   LINE      ---      ---       #2772
      00FF532FH   LINE      ---      ---       #2773
      00FF532FH   LINE      ---      ---       #2774
      00FF532FH   LINE      ---      ---       #2775
      00FF5332H   LINE      ---      ---       #2776
      00FF5332H   LINE      ---      ---       #2777
      00FF5332H   LINE      ---      ---       #2778
      00FF5337H   LINE      ---      ---       #2779
      00FF5337H   LINE      ---      ---       #2780
      00FF5337H   LINE      ---      ---       #2782
      R3          REGSYM    ---      BYTE      cmdId
      REG=3       REGSYM    ---      ---       pCmdAddress
      REG=2       REGSYM    ---      ---       pCmdCnfStatus
      ---         BLOCKEND  ---      ---       LVL=0

      00FF52EBH   BLOCK     CODE     ---       LVL=0
      00FF52EBH   LINE      ---      ---       #2786
      00FF52EDH   LINE      ---      ---       #2788
      00FF52F9H   LINE      ---      ---       #2790
      00FF52F9H   LINE      ---      ---       #2791
      00FF52FBH   LINE      ---      ---       #2792
      00FF52FBH   LINE      ---      ---       #2793
      00FF52FBH   LINE      ---      ---       #2794
      00FF52FEH   LINE      ---      ---       #2795
      00FF52FEH   LINE      ---      ---       #2796
      00FF52FEH   LINE      ---      ---       #2797
      00FF5301H   LINE      ---      ---       #2798
      00FF5301H   LINE      ---      ---       #2799
      00FF5301H   LINE      ---      ---       #2800
L251 LINKER/LOCATER V4.66.93.0                                                        07/01/2025  14:01:01  PAGE 106


      00FF5306H   LINE      ---      ---       #2801
      00FF5306H   LINE      ---      ---       #2802
      00FF5306H   LINE      ---      ---       #2804
      R3          REGSYM    ---      BYTE      cmdId
      REG=3       REGSYM    ---      ---       pCmdAddress
      REG=2       REGSYM    ---      ---       pCmdCnfStatus
      ---         BLOCKEND  ---      ---       LVL=0

      00FF5238H   BLOCK     CODE     ---       LVL=0
      00FF5238H   LINE      ---      ---       #2834
      00FF523AH   LINE      ---      ---       #2836
      00FF523EH   LINE      ---      ---       #2838
      00FF523EH   LINE      ---      ---       #2839
      00FF5240H   LINE      ---      ---       #2840
      00FF5240H   LINE      ---      ---       #2846
      00FF5240H   LINE      ---      ---       #2847
      00FF5245H   LINE      ---      ---       #2848
      00FF5245H   LINE      ---      ---       #2849
      00FF5245H   LINE      ---      ---       #2850
      R3          REGSYM    ---      BYTE      cmdId
      REG=3       REGSYM    ---      ---       pCmdAddress
      REG=2       REGSYM    ---      ---       pCmdCnfStatus
      ---         BLOCKEND  ---      ---       LVL=0

      00FF5491H   BLOCK     CODE     ---       LVL=0
      00FF5491H   LINE      ---      ---       #2853
      00FF5493H   LINE      ---      ---       #2855
      00FF54CBH   LINE      ---      ---       #2857
      00FF54CBH   LINE      ---      ---       #2858
      00FF54CFH   LINE      ---      ---       #2859
      00FF54CFH   LINE      ---      ---       #2860
      00FF54CFH   LINE      ---      ---       #2861
      00FF54D3H   LINE      ---      ---       #2862
      00FF54D3H   LINE      ---      ---       #2864
      00FF54D3H   LINE      ---      ---       #2865
      00FF54D7H   LINE      ---      ---       #2866
      00FF54D7H   LINE      ---      ---       #2867
      00FF54D7H   LINE      ---      ---       #2868
      00FF54DBH   LINE      ---      ---       #2869
      00FF54DBH   LINE      ---      ---       #2870
      00FF54DBH   LINE      ---      ---       #2871
      00FF54DFH   LINE      ---      ---       #2872
      00FF54DFH   LINE      ---      ---       #2873
      00FF54DFH   LINE      ---      ---       #2874
      00FF54E4H   LINE      ---      ---       #2875
      00FF54E4H   LINE      ---      ---       #2876
      00FF54E4H   LINE      ---      ---       #2877
      00FF54E8H   LINE      ---      ---       #2878
      00FF54E8H   LINE      ---      ---       #2879
      00FF54E8H   LINE      ---      ---       #2880
      00FF54ECH   LINE      ---      ---       #2881
      00FF54ECH   LINE      ---      ---       #2882
      00FF54ECH   LINE      ---      ---       #2883
      00FF54F0H   LINE      ---      ---       #2884
      00FF54F0H   LINE      ---      ---       #2885
      00FF54F0H   LINE      ---      ---       #2886
      00FF54F4H   LINE      ---      ---       #2887
      00FF54F4H   LINE      ---      ---       #2889
      00FF54F4H   LINE      ---      ---       #2890
      00FF54F8H   LINE      ---      ---       #2891
      00FF54F8H   LINE      ---      ---       #2893
      00FF54F8H   LINE      ---      ---       #2894
      00FF54FCH   LINE      ---      ---       #2895
      00FF54FCH   LINE      ---      ---       #2896
      00FF54FCH   LINE      ---      ---       #2897
L251 LINKER/LOCATER V4.66.93.0                                                        07/01/2025  14:01:01  PAGE 107


      00FF5500H   LINE      ---      ---       #2898
      00FF5500H   LINE      ---      ---       #2899
      00FF5500H   LINE      ---      ---       #2900
      00FF5504H   LINE      ---      ---       #2901
      00FF5504H   LINE      ---      ---       #2903
      00FF5504H   LINE      ---      ---       #2904
      00FF5509H   LINE      ---      ---       #2905
      00FF5509H   LINE      ---      ---       #2906
      00FF5509H   LINE      ---      ---       #2907
      R11         REGSYM    ---      BYTE      cmdId
      REG=4       REGSYM    ---      ---       pCmdAddress
      REG=2       REGSYM    ---      ---       pCmdCnfStatus
      ---         BLOCKEND  ---      ---       LVL=0

      00FF50ADH   BLOCK     CODE     ---       LVL=0
      00FF50ADH   LINE      ---      ---       #2909
      00FF50B1H   LINE      ---      ---       #2910
      00FF50B1H   BLOCK     CODE     NEAR LAB  LVL=1
      00FF50B1H   LINE      ---      ---       #2915
      00FF50B6H   LINE      ---      ---       #2920
      00FF50B9H   LINE      ---      ---       #2921
      00FF50BCH   LINE      ---      ---       #2924
      00FF50C2H   LINE      ---      ---       #2925
      00FF50C2H   LINE      ---      ---       #2926
      00FF50C8H   LINE      ---      ---       #2934
      00FF50CAH   LINE      ---      ---       #2935
      00FF50CDH   LINE      ---      ---       #2936
      00FF50D1H   LINE      ---      ---       #2937
      00FF50D5H   LINE      ---      ---       #2938
      00FF50E9H   LINE      ---      ---       #2940
      00FF50E9H   LINE      ---      ---       #2942
      00FF5101H   LINE      ---      ---       #2944
      00FF5101H   LINE      ---      ---       #2945
      00FF5116H   LINE      ---      ---       #2946
      00FF5121H   LINE      ---      ---       #2948
      00FF5121H   LINE      ---      ---       #2949
      00FF5123H   LINE      ---      ---       #2952
      00FF5123H   LINE      ---      ---       #2953
      00FF5138H   LINE      ---      ---       #2954
      00FF5143H   LINE      ---      ---       #2956
      00FF5143H   LINE      ---      ---       #2957
      00FF5145H   LINE      ---      ---       #2961
      00FF5145H   LINE      ---      ---       #2962
      00FF515AH   LINE      ---      ---       #2963
      00FF5165H   LINE      ---      ---       #2965
      00FF5165H   LINE      ---      ---       #2966
      00FF5167H   LINE      ---      ---       #2970
      00FF5167H   LINE      ---      ---       #2971
      00FF517AH   LINE      ---      ---       #2972
      00FF5184H   LINE      ---      ---       #2974
      00FF5184H   LINE      ---      ---       #2975
      00FF5186H   LINE      ---      ---       #2979
      00FF5186H   LINE      ---      ---       #2980
      00FF5199H   LINE      ---      ---       #2981
      00FF51A3H   LINE      ---      ---       #2983
      00FF51A3H   LINE      ---      ---       #2984
      00FF51A5H   LINE      ---      ---       #2996
      00FF51A5H   LINE      ---      ---       #2997
      00FF51A5H   LINE      ---      ---       #2998
      00FF51A5H   LINE      ---      ---       #2999
      00FF51A5H   LINE      ---      ---       #3000
      00FF51A7H   LINE      ---      ---       #3003
      00FF51A7H   LINE      ---      ---       #3005
      00FF51B1H   LINE      ---      ---       #3008
      00FF51B1H   LINE      ---      ---       #3009
L251 LINKER/LOCATER V4.66.93.0                                                        07/01/2025  14:01:01  PAGE 108


      00FF51C4H   LINE      ---      ---       #3010
      00FF51CEH   LINE      ---      ---       #3012
      00FF51CEH   LINE      ---      ---       #3013
      00FF51D0H   LINE      ---      ---       #3016
      00FF51D0H   LINE      ---      ---       #3017
      00FF51E3H   LINE      ---      ---       #3018
      00FF51EDH   LINE      ---      ---       #3020
      00FF51EFH   LINE      ---      ---       #3021
      00FF51F1H   LINE      ---      ---       #3023
      00FF51F1H   LINE      ---      ---       #3024
      00FF51F3H   LINE      ---      ---       #3025
      00FF51F3H   LINE      ---      ---       #3026
      00FF51F3H   LINE      ---      ---       #3027
      00FF51F5H   LINE      ---      ---       #3030
      00FF51F5H   LINE      ---      ---       #3031
      00FF51FBH   LINE      ---      ---       #3032
      00FF51FBH   LINE      ---      ---       #3033
      00FF51FBH   LINE      ---      ---       #3036
      00FF5203H   LINE      ---      ---       #3038
      00FF5206H   LINE      ---      ---       #3039
      00FF5209H   LINE      ---      ---       #3040
      00FF520CH   LINE      ---      ---       #3042
      00FF5212H   LINE      ---      ---       #3043
      00FF5212H   LINE      ---      ---       #3045
      00FF5218H   LINE      ---      ---       #3050
      00FF5225H   LINE      ---      ---       #3052
      00FF522BH   LINE      ---      ---       #3053
      00FF5233H   LINE      ---      ---       #3054
      R4          REGSYM    ---      BYTE      cmdLen
      REG=3       REGSYM    ---      ---       pCmdAddress
      REG=1       REGSYM    ---      ---       pRuciHeader
      R14         REGSYM    ---      BYTE      ruciHeader
      R15         REGSYM    ---      BYTE      ruciSubheader
      0000B6A7H   SYMBOL    EDATA    BYTE      cmdCnfStatus
      ---         BLOCKEND  CODE     ---       LVL=1
      ---         BLOCKEND  CODE     ---       LVL=0
      00FF86E9H   LINE      ---      ---       #408

      ---         MODULE    ---      ---       mac_task_ctrl
      00FF86EEH   PUBLIC    CODE     ---       RxTask_AlwaysOn_Set
      00FF284EH   PUBLIC    CODE     ---       R2tTask_Set
      00FF186BH   PUBLIC    CODE     ---       TrtTask_Set
      00FF9FFEH   PUBLIC    CODE     ---       RxTask_RxTimer_Set
      00FFA00CH   PUBLIC    CODE     ---       RxTask_Timeout_Set
      00FFA3E8H   PUBLIC    CODE     ---       TxContTask_Set
      00FFA4A8H   PUBLIC    CODE     ---       TxTask_Set
      00FF19D3H   PUBLIC    CODE     ---       T2RTask_Set
      00FFA4EDH   PUBLIC    CODE     ---       TxRtcTask_Set
      00FF0008H   PUBLIC    CODE     ---       AllTask_Stop
      0000B645H   PUBLIC    EDATA    DWORD     gMac_Frame_Pending_Rx_Time
      0000B423H   PUBLIC    EDATA    BYTE      ?T2RTask_Set?BYTE

      00FF86EEH   BLOCK     CODE     ---       LVL=0
      00FF86EEH   LINE      ---      ---       #23
      00FF86EEH   LINE      ---      ---       #24
      00FF86EEH   BLOCK     CODE     NEAR LAB  LVL=1
      00FF86EEH   LINE      ---      ---       #28
      00FF86F4H   LINE      ---      ---       #29
      00FF86FAH   LINE      ---      ---       #30
      00FF8700H   LINE      ---      ---       #31
      00FF8705H   LINE      ---      ---       #32
      00FF870BH   LINE      ---      ---       #33
      00FF870FH   LINE      ---      ---       #34
      00FF8713H   LINE      ---      ---       #36
      00FF871CH   LINE      ---      ---       #38
L251 LINKER/LOCATER V4.66.93.0                                                        07/01/2025  14:01:01  PAGE 109


      0000B4F7H   SYMBOL    EDATA    ---       taskControl
      ---         BLOCKEND  CODE     ---       LVL=1
      ---         BLOCKEND  CODE     ---       LVL=0

      00FF284EH   BLOCK     CODE     ---       LVL=0
      00FF284EH   LINE      ---      ---       #43
      00FF284EH   LINE      ---      ---       #44
      WR6         REGSYM    ---      WORD      pktInterval
      DR0         REGSYM    ---      DWORD     rxWaitDuration
      00FF284EH   BLOCK     CODE     NEAR LAB  LVL=1
      00FF284EH   LINE      ---      ---       #48
      00FF2854H   LINE      ---      ---       #49
      00FF2859H   LINE      ---      ---       #50
      00FF285FH   LINE      ---      ---       #51
      00FF2865H   LINE      ---      ---       #52
      00FF2869H   LINE      ---      ---       #53
      00FF2877H   LINE      ---      ---       #54
      00FF287DH   LINE      ---      ---       #56
      00FF2886H   LINE      ---      ---       #58
      00FF288CH   LINE      ---      ---       #59
      00FF2891H   LINE      ---      ---       #60
      00FF2895H   LINE      ---      ---       #61
      00FF2899H   LINE      ---      ---       #62
      00FF289FH   LINE      ---      ---       #63
      00FF28A3H   LINE      ---      ---       #64
      00FF28A7H   LINE      ---      ---       #66
      00FF28B0H   LINE      ---      ---       #68
      0000B505H   SYMBOL    EDATA    ---       taskControl
      ---         BLOCKEND  CODE     ---       LVL=1
      ---         BLOCKEND  CODE     ---       LVL=0

      00FF186BH   BLOCK     CODE     ---       LVL=0
      00FF186BH   LINE      ---      ---       #72
      00FF1873H   LINE      ---      ---       #73
      WR14        REGSYM    ---      WORD      pktInterval
      0000B450H   SYMBOL    EDATA    DWORD     rxWaitDuration
      00FF1873H   BLOCK     CODE     NEAR LAB  LVL=1
      00FF1873H   LINE      ---      ---       #77
      00FF1878H   LINE      ---      ---       #78
      00FF187CH   LINE      ---      ---       #79
      00FF1882H   LINE      ---      ---       #80
      00FF1888H   LINE      ---      ---       #81
      00FF189AH   LINE      ---      ---       #82
      00FF18A0H   LINE      ---      ---       #83
      00FF18A6H   LINE      ---      ---       #84
      00FF18ACH   LINE      ---      ---       #86
      00FF18B2H   LINE      ---      ---       #87
      00FF18B7H   LINE      ---      ---       #88
      00FF18BDH   LINE      ---      ---       #89
      00FF18C3H   LINE      ---      ---       #90
      00FF18CBH   LINE      ---      ---       #91
      00FF18DBH   LINE      ---      ---       #92
      00FF18E1H   LINE      ---      ---       #93
      00FF18E9H   LINE      ---      ---       #95
      00FF18EFH   LINE      ---      ---       #96
      00FF18F4H   LINE      ---      ---       #97
      00FF18F8H   LINE      ---      ---       #98
      00FF18FCH   LINE      ---      ---       #99
      00FF1902H   LINE      ---      ---       #100
      00FF1906H   LINE      ---      ---       #101
      00FF190AH   LINE      ---      ---       #102
      0000B454H   SYMBOL    EDATA    ---       taskControl
      ---         BLOCKEND  CODE     ---       LVL=1
      00FF1912H   LINE      ---      ---       #106
      00FF1912H   LINE      CODE     ---       #106
L251 LINKER/LOCATER V4.66.93.0                                                        07/01/2025  14:01:01  PAGE 110



      00FF9FFEH   BLOCK     CODE     ---       LVL=0
      00FF9FFEH   LINE      ---      ---       #111
      00FFA000H   LINE      ---      ---       #114
      00FFA00BH   LINE      ---      ---       #116
      DR8         REGSYM    ---      DWORD     ccaDuration
      ---         BLOCKEND  ---      ---       LVL=0

      00FFA00CH   BLOCK     CODE     ---       LVL=0
      00FFA00CH   LINE      ---      ---       #118
      00FFA00EH   LINE      ---      ---       #119
      DR28        REGSYM    ---      DWORD     rxOnTime
      00FFA00EH   BLOCK     CODE     NEAR LAB  LVL=1
      00FFA00EH   LINE      ---      ---       #123
      00FFA014H   LINE      ---      ---       #124
      00FFA019H   LINE      ---      ---       #125
      00FFA01FH   LINE      ---      ---       #126
      00FFA024H   LINE      ---      ---       #127
      00FFA03CH   LINE      ---      ---       #128
      00FFA042H   LINE      ---      ---       #129
      00FFA048H   LINE      ---      ---       #131
      00FFA051H   LINE      ---      ---       #133
      0000B513H   SYMBOL    EDATA    ---       taskControl
      ---         BLOCKEND  CODE     ---       LVL=1
      ---         BLOCKEND  CODE     ---       LVL=0

      00FFA3E8H   BLOCK     CODE     ---       LVL=0
      00FFA3E8H   LINE      ---      ---       #139
      00FFA3F2H   LINE      ---      ---       #140
      WR6         REGSYM    ---      WORD      pktInterval
      R15         REGSYM    ---      BYTE      mode
      0000B462H   SYMBOL    EDATA    DWORD     rtcAnchor
      00FFA3F2H   BLOCK     CODE     NEAR LAB  LVL=1
      00FFA3F2H   LINE      ---      ---       #144
      00FFA400H   LINE      ---      ---       #145
      00FFA404H   LINE      ---      ---       #146
      00FFA40AH   LINE      ---      ---       #149
      00FFA410H   LINE      ---      ---       #150
      00FFA414H   LINE      ---      ---       #151
      00FFA418H   LINE      ---      ---       #153
      00FFA421H   LINE      ---      ---       #155
      00FFA427H   LINE      ---      ---       #156
      00FFA42DH   LINE      ---      ---       #159
      00FFA433H   LINE      ---      ---       #160
      00FFA437H   LINE      ---      ---       #161
      00FFA43CH   LINE      ---      ---       #162
      00FFA440H   LINE      ---      ---       #164
      00FFA448H   LINE      ---      ---       #166
      0000B466H   SYMBOL    EDATA    ---       taskControl
      WR12        REGSYM    ---      WORD      pktIntervalTemp
      ---         BLOCKEND  CODE     ---       LVL=1
      00FFA451H   LINE      ---      ---       #168
      00FFA451H   LINE      CODE     ---       #168

      00FFA4A8H   BLOCK     CODE     ---       LVL=0
      00FFA4A8H   LINE      ---      ---       #172
      00FFA4AEH   LINE      ---      ---       #173
      R15         REGSYM    ---      BYTE      mode
      DR0         REGSYM    ---      DWORD     rtcAnchor
      00FFA4AEH   BLOCK     CODE     NEAR LAB  LVL=1
      00FFA4AEH   LINE      ---      ---       #176
      00FFA4B2H   LINE      ---      ---       #177
      00FFA4B7H   LINE      ---      ---       #178
      00FFA4BBH   LINE      ---      ---       #179
      00FFA4BFH   LINE      ---      ---       #180
L251 LINKER/LOCATER V4.66.93.0                                                        07/01/2025  14:01:01  PAGE 111


      00FFA4C5H   LINE      ---      ---       #181
      00FFA4C9H   LINE      ---      ---       #182
      00FFA4CEH   LINE      ---      ---       #183
      00FFA4D6H   LINE      ---      ---       #185
      00FFA4DAH   LINE      ---      ---       #187
      00FFA4E3H   LINE      ---      ---       #188
      0000B521H   SYMBOL    EDATA    ---       taskControl
      ---         BLOCKEND  CODE     ---       LVL=1
      00FFA4EAH   LINE      ---      ---       #189
      00FFA4EAH   LINE      CODE     ---       #189

      00FF19D3H   BLOCK     CODE     ---       LVL=0
      00FF19D3H   LINE      ---      ---       #193
      00FF19DFH   LINE      ---      ---       #194
      WR12        REGSYM    ---      WORD      interFrameSpace
      0000B426H   SYMBOL    EDATA    DWORD     rxWaitDuration
      R14         REGSYM    ---      BYTE      bRtcAutoEn
      0000B42AH   SYMBOL    EDATA    DWORD     rtcValue
      R15         REGSYM    ---      BYTE      bRxFramePending
      00FF19DFH   BLOCK     CODE     NEAR LAB  LVL=1
      00FF19DFH   LINE      ---      ---       #198
      00FF19E5H   LINE      ---      ---       #199
      00FF19EAH   LINE      ---      ---       #200
      00FF19F0H   LINE      ---      ---       #202
      00FF19F4H   LINE      ---      ---       #204
      00FF1A06H   LINE      ---      ---       #205
      00FF1A08H   LINE      ---      ---       #206
      00FF1A0AH   LINE      ---      ---       #210
      00FF1A10H   LINE      ---      ---       #211
      00FF1A15H   LINE      ---      ---       #212
      00FF1A15H   LINE      ---      ---       #213
      00FF1A1DH   LINE      ---      ---       #214
      00FF1A23H   LINE      ---      ---       #215
      00FF1A2BH   LINE      ---      ---       #218
      00FF1A2FH   LINE      ---      ---       #220
      00FF1A35H   LINE      ---      ---       #221
      00FF1A3AH   LINE      ---      ---       #222
      00FF1A40H   LINE      ---      ---       #223
      00FF1A46H   LINE      ---      ---       #224
      00FF1A4BH   LINE      ---      ---       #225
      00FF1A53H   LINE      ---      ---       #226
      00FF1A59H   LINE      ---      ---       #227
      00FF1A61H   LINE      ---      ---       #228
      00FF1A61H   LINE      ---      ---       #231
      00FF1A66H   LINE      ---      ---       #232
      00FF1A6AH   LINE      ---      ---       #233
      00FF1A70H   LINE      ---      ---       #234
      00FF1A76H   LINE      ---      ---       #235
      00FF1A88H   LINE      ---      ---       #236
      00FF1AADH   LINE      ---      ---       #238
      00FF1AB3H   LINE      ---      ---       #239
      00FF1ACDH   LINE      ---      ---       #240
      00FF1AD5H   LINE      ---      ---       #241
      00FF1ADAH   LINE      ---      ---       #242
      00FF1ADCH   LINE      ---      ---       #245
      00FF1AE2H   LINE      ---      ---       #246
      00FF1AE8H   LINE      ---      ---       #247
      00FF1AEEH   LINE      ---      ---       #248
      00FF1AF5H   LINE      ---      ---       #249
      0000B42FH   SYMBOL    EDATA    ---       taskControl
      ---         BLOCKEND  CODE     ---       LVL=1
      00FF1AF5H   LINE      ---      ---       #253
      00FF1AF5H   LINE      CODE     ---       #253

      00FFA4EDH   BLOCK     CODE     ---       LVL=0
L251 LINKER/LOCATER V4.66.93.0                                                        07/01/2025  14:01:01  PAGE 112


      00FFA4EDH   LINE      ---      ---       #255
      00FFA4EFH   LINE      ---      ---       #256
      DR0         REGSYM    ---      DWORD     rtcValue
      00FFA4EFH   BLOCK     CODE     NEAR LAB  LVL=1
      00FFA4EFH   LINE      ---      ---       #260
      00FFA4F5H   LINE      ---      ---       #261
      00FFA4FAH   LINE      ---      ---       #262
      00FFA4FEH   LINE      ---      ---       #263
      00FFA502H   LINE      ---      ---       #264
      00FFA508H   LINE      ---      ---       #265
      00FFA50CH   LINE      ---      ---       #266
      00FFA510H   LINE      ---      ---       #268
      00FFA519H   LINE      ---      ---       #270
      0000B52FH   SYMBOL    EDATA    ---       taskControl
      ---         BLOCKEND  CODE     ---       LVL=1
      ---         BLOCKEND  CODE     ---       LVL=0

      00FF0008H   BLOCK     CODE     ---       LVL=0
      00FF0008H   LINE      ---      ---       #283
      00FF0008H   LINE      ---      ---       #286
      ---         BLOCKEND  ---      ---       LVL=0

      ---         MODULE    ---      ---       ruci_data_parse
      00FFA521H   PUBLIC    CODE     ---       PciDataControlFieldParse

      00FFA521H   BLOCK     CODE     ---       LVL=0
      00FFA521H   LINE      ---      ---       #41
      00FFA525H   LINE      ---      ---       #42
      REG=7       REGSYM    ---      ---       pCmdAddress
      00FFA525H   BLOCK     CODE     NEAR LAB  LVL=1
      00FFA525H   LINE      ---      ---       #45
      00FFA52CH   LINE      ---      ---       #46
      00FFA532H   LINE      ---      ---       #47
      00FFA536H   LINE      ---      ---       #48
      00FFA536H   LINE      ---      ---       #49
      00FFA540H   LINE      ---      ---       #50
      00FFA542H   LINE      ---      ---       #52
      00FFA545H   LINE      ---      ---       #53
      00FFA547H   LINE      ---      ---       #56
      00FFA552H   LINE      ---      ---       #59
      00FFA55EH   LINE      ---      ---       #60
      00FFA569H   LINE      ---      ---       #61
      00FFA571H   LINE      ---      ---       #62
      00FFA578H   LINE      ---      ---       #64
      00FFA57EH   LINE      ---      ---       #66
      00FFA587H   LINE      ---      ---       #67
      00FFA58FH   LINE      ---      ---       #69
      00FFA598H   LINE      ---      ---       #72
      00FFA5A0H   LINE      ---      ---       #74
      00FFA5A8H   LINE      ---      ---       #75
      00FFA5AAH   LINE      ---      ---       #78
      00FFA5B0H   LINE      ---      ---       #79
      00FFA5B0H   LINE      ---      ---       #80
      00FFA5B0H   LINE      ---      ---       #85
      00FFA5BCH   LINE      ---      ---       #86
      00FFA5BEH   LINE      ---      ---       #87
      R13         REGSYM    ---      BYTE      tmp
      00FFA5BEH   BLOCK     CODE     NEAR LAB  LVL=2
      00FFA5BEH   LINE      ---      ---       #88
      00FFA5C7H   LINE      ---      ---       #91
      00FFA5C9H   LINE      ---      ---       #92
      00FFA5D3H   LINE      ---      ---       #93
      00FFA5DAH   LINE      ---      ---       #94
      00FFA5E5H   LINE      ---      ---       #95
      00FFA605H   LINE      ---      ---       #96
L251 LINKER/LOCATER V4.66.93.0                                                        07/01/2025  14:01:01  PAGE 113


      WR12        REGSYM    ---      WORD      bufferAddress_LOCAL
      REG=3       REGSYM    ---      ---       pOutput
      ---         BLOCKEND  CODE     ---       LVL=2
      00FFA610H   LINE      ---      ---       #97
      00FFA610H   LINE      ---      ---       #99
      00FFA610H   LINE      CODE     ---       #99
      ---         BLOCKEND  CODE     ---       LVL=0

      ---         MODULE    ---      ---       mac_event_gen
      00FF2DB4H   PUBLIC    CODE     ---       PciCnfEventSendtoMsgQueue
      00FF4CA9H   PUBLIC    CODE     ---       PciGetCrcEventSendtoMsgQueue
      00FF4D7DH   PUBLIC    CODE     ---       PciGetPhyStatusEventSendtoMsgQueue
      00FFA614H   PUBLIC    CODE     ---       PciBurstTxdoneEventSendtoMsgQueue
      00FF4D14H   PUBLIC    CODE     ---       PciGetRssiEventSendtoMsgQueue
      00FFA645H   PUBLIC    CODE     ---       PciHtrpConnToEventdoneEventSendtoMsgQueue
      00FFA67EH   PUBLIC    CODE     ---       PciHtrpPerEventdoneEventSendtoMsgQueue
      00FF3784H   PUBLIC    CODE     ---       PciHtrpGetRssiEventSendtoMsgQueue
      00FF365AH   PUBLIC    CODE     ---       PciHtrpFwStatusEventdoneEventSendtoMsgQueue
      00FF90EEH   PUBLIC    CODE     ---       PciHtrpHwStatusEventdoneEventSendtoMsgQueue
      00FF3732H   PUBLIC    CODE     ---       PciCslAccuracyEventSendtoMsgQueue
      00FF375BH   PUBLIC    CODE     ---       PciCslUncertaintyEventSendtoMsgQueue

      00FF2DAFH   BLOCK     CODE     ---       LVL=0
      00FF2DB4H   LINE      ---      ---       #60
      00FF2DBCH   LINE      ---      ---       #61
      00FF2DAFH   SYMBOL    CODE     NEAR LAB  ?L?COM0031
      R13         REGSYM    ---      BYTE      cmdHeader
      R14         REGSYM    ---      BYTE      cmdSubheader
      R15         REGSYM    ---      BYTE      cmdCnfStatus
      00FF2DBCH   BLOCK     CODE     NEAR LAB  LVL=1
      00FF2DBCH   LINE      ---      ---       #63
      00FF2DC1H   LINE      ---      ---       #64
      00FF2DC4H   LINE      ---      ---       #66
      00FF2DCEH   LINE      ---      ---       #67
      00FF2DD5H   LINE      ---      ---       #68
      00FF2DDBH   LINE      ---      ---       #69
      00FF2DE1H   LINE      ---      ---       #70
      00FF2DE5H   LINE      ---      ---       #71
      00FF2DE9H   LINE      ---      ---       #72
      00FF2DEDH   LINE      ---      ---       #78
      REG=3       REGSYM    ---      ---       pEventPayload
      R12         REGSYM    ---      BYTE      qIdx
      ---         BLOCKEND  CODE     ---       LVL=1
      00FF2DFAH   LINE      ---      ---       #80
      00FF2DFAH   LINE      CODE     ---       #80

      00FF4CA9H   BLOCK     CODE     ---       LVL=0
      00FF4CA9H   LINE      ---      ---       #84
      00FF4CADH   LINE      ---      ---       #85
      00FF4CADH   BLOCK     CODE     NEAR LAB  LVL=1
      00FF4CADH   LINE      ---      ---       #87
      00FF4CB2H   LINE      ---      ---       #90
      00FF4CBCH   LINE      ---      ---       #91
      00FF4CC3H   LINE      ---      ---       #92
      00FF4CC9H   LINE      ---      ---       #93
      00FF4CCFH   LINE      ---      ---       #95
      00FF4CDCH   LINE      ---      ---       #101
      00FF4CF7H   LINE      ---      ---       #103
      REG=6       REGSYM    ---      ---       pEventPayload
      R15         REGSYM    ---      BYTE      qIdx
      ---         BLOCKEND  CODE     ---       LVL=1
      00FF4D03H   LINE      ---      ---       #105
      00FF4D03H   LINE      CODE     ---       #105

      00FF4D7DH   BLOCK     CODE     ---       LVL=0
L251 LINKER/LOCATER V4.66.93.0                                                        07/01/2025  14:01:01  PAGE 114


      00FF4D7DH   LINE      ---      ---       #107
      00FF4D81H   LINE      ---      ---       #108
      00FF4D81H   BLOCK     CODE     NEAR LAB  LVL=1
      00FF4D81H   LINE      ---      ---       #111
      00FF4D86H   LINE      ---      ---       #114
      00FF4D90H   LINE      ---      ---       #115
      00FF4D97H   LINE      ---      ---       #116
      00FF4D9DH   LINE      ---      ---       #117
      00FF4DA1H   LINE      ---      ---       #118
      00FF4DA9H   LINE      ---      ---       #119
      00FF4DB1H   LINE      ---      ---       #120
      00FF4DBBH   LINE      ---      ---       #121
      00FF4DC6H   LINE      ---      ---       #122
      00FF4DD0H   LINE      ---      ---       #123
      00FF4DD8H   LINE      ---      ---       #124
      00FF4DEEH   LINE      ---      ---       #126
      00FF4DF2H   LINE      ---      ---       #132
      REG=6       REGSYM    ---      ---       pEventPayload
      R7          REGSYM    ---      BYTE      cpmputeRssi
      R15         REGSYM    ---      BYTE      qIdx
      ---         BLOCKEND  CODE     ---       LVL=1
      00FF4DFEH   LINE      ---      ---       #134
      00FF4DFEH   LINE      CODE     ---       #134

      00FFA614H   BLOCK     CODE     ---       LVL=0
      00FFA614H   LINE      ---      ---       #136
      00FFA616H   LINE      ---      ---       #137
      00FFA616H   BLOCK     CODE     NEAR LAB  LVL=1
      00FFA616H   LINE      ---      ---       #139
      00FFA619H   LINE      ---      ---       #142
      00FFA623H   LINE      ---      ---       #143
      00FFA62AH   LINE      ---      ---       #144
      00FFA630H   LINE      ---      ---       #145
      00FFA635H   LINE      ---      ---       #150
      REG=3       REGSYM    ---      ---       pEventPayload
      R15         REGSYM    ---      BYTE      qIdx
      ---         BLOCKEND  CODE     ---       LVL=1
      00FFA642H   LINE      ---      ---       #152
      00FFA642H   LINE      CODE     ---       #152

      00FF4D14H   BLOCK     CODE     ---       LVL=0
      00FF4D14H   LINE      ---      ---       #154
      00FF4D18H   LINE      ---      ---       #155
      00FF4D18H   BLOCK     CODE     NEAR LAB  LVL=1
      00FF4D18H   LINE      ---      ---       #159
      00FF4D1DH   LINE      ---      ---       #162
      00FF4D24H   LINE      ---      ---       #163
      00FF4D30H   LINE      ---      ---       #164
      00FF4D38H   LINE      ---      ---       #165
      00FF4D3FH   LINE      ---      ---       #166
      00FF4D49H   LINE      ---      ---       #168
      00FF4D53H   LINE      ---      ---       #169
      00FF4D5AH   LINE      ---      ---       #170
      00FF4D60H   LINE      ---      ---       #171
      00FF4D66H   LINE      ---      ---       #172
      00FF4D6AH   LINE      ---      ---       #178
      REG=6       REGSYM    ---      ---       pEventPayload
      R5          REGSYM    ---      CHAR      ibRssi
      R10         REGSYM    ---      BYTE      cpmputeRssi
      R4          REGSYM    ---      BYTE      lnaGain
      R7          REGSYM    ---      BYTE      tiaGain
      R6          REGSYM    ---      BYTE      vgaGain
      R15         REGSYM    ---      BYTE      qIdx
      ---         BLOCKEND  CODE     ---       LVL=1
      00FF4D6CH   LINE      ---      ---       #180
L251 LINKER/LOCATER V4.66.93.0                                                        07/01/2025  14:01:01  PAGE 115


      00FF4D6CH   LINE      CODE     ---       #180

      00FFA645H   BLOCK     CODE     ---       LVL=0
      00FFA645H   LINE      ---      ---       #183
      00FFA649H   LINE      ---      ---       #184
      R15         REGSYM    ---      BYTE      status
      00FFA649H   BLOCK     CODE     NEAR LAB  LVL=1
      00FFA649H   LINE      ---      ---       #186
      00FFA64EH   LINE      ---      ---       #187
      00FFA651H   LINE      ---      ---       #189
      00FFA65BH   LINE      ---      ---       #190
      00FFA662H   LINE      ---      ---       #191
      00FFA668H   LINE      ---      ---       #192
      00FFA66EH   LINE      ---      ---       #193
      00FFA672H   LINE      ---      ---       #198
      REG=3       REGSYM    ---      ---       pEventPayload
      R14         REGSYM    ---      BYTE      qIdx
      ---         BLOCKEND  CODE     ---       LVL=1
      00FFA67BH   LINE      ---      ---       #199
      00FFA67BH   LINE      CODE     ---       #199

      00FFA67EH   BLOCK     CODE     ---       LVL=0
      00FFA67EH   LINE      ---      ---       #201
      00FFA680H   LINE      ---      ---       #202
      00FFA680H   BLOCK     CODE     NEAR LAB  LVL=1
      00FFA680H   LINE      ---      ---       #204
      00FFA685H   LINE      ---      ---       #207
      00FFA68FH   LINE      ---      ---       #208
      00FFA696H   LINE      ---      ---       #209
      00FFA69CH   LINE      ---      ---       #210
      00FFA6A2H   LINE      ---      ---       #212
      00FFA6B3H   LINE      ---      ---       #217
      REG=11      REGSYM    ---      ---       pEventPayload
      R15         REGSYM    ---      BYTE      qIdx
      ---         BLOCKEND  CODE     ---       LVL=1
      00FFA6C0H   LINE      ---      ---       #218
      00FFA6C0H   LINE      CODE     ---       #218

      00FF3784H   BLOCK     CODE     ---       LVL=0
      00FF3784H   LINE      ---      ---       #220
      00FF3786H   LINE      ---      ---       #221
      00FF3786H   BLOCK     CODE     NEAR LAB  LVL=1
      00FF3786H   LINE      ---      ---       #223
      00FF378AH   LINE      ---      ---       #226
      00FF3794H   LINE      ---      ---       #227
      00FF379BH   LINE      ---      ---       #228
      00FF37A1H   LINE      ---      ---       #229
      00FF37A7H   LINE      ---      ---       #230
      00FF37AFH   LINE      ---      ---       #235
      REG=2       REGSYM    ---      ---       pEventPayload
      R15         REGSYM    ---      BYTE      qIdx
      ---         BLOCKEND  CODE     ---       LVL=1
      00FF37B2H   LINE      ---      ---       #236
      00FF37B2H   LINE      CODE     ---       #236

      00FF365AH   BLOCK     CODE     ---       LVL=0
      00FF365AH   LINE      ---      ---       #238
      00FF365EH   LINE      ---      ---       #239
      00FF365EH   BLOCK     CODE     NEAR LAB  LVL=1
      00FF365EH   LINE      ---      ---       #241
      00FF3662H   LINE      ---      ---       #244
      00FF366CH   LINE      ---      ---       #245
      00FF3673H   LINE      ---      ---       #246
      00FF3679H   LINE      ---      ---       #247
      00FF367FH   LINE      ---      ---       #248
L251 LINKER/LOCATER V4.66.93.0                                                        07/01/2025  14:01:01  PAGE 116


      00FF3687H   LINE      ---      ---       #249
      00FF368DH   LINE      ---      ---       #250
      00FF3693H   LINE      ---      ---       #251
      00FF369BH   LINE      ---      ---       #252
      00FF36A3H   LINE      ---      ---       #253
      00FF36ABH   LINE      ---      ---       #254
      00FF36B3H   LINE      ---      ---       #255
      00FF36BBH   LINE      ---      ---       #256
      00FF36C3H   LINE      ---      ---       #257
      00FF36D4H   LINE      ---      ---       #258
      00FF36E5H   LINE      ---      ---       #264
      REG=6       REGSYM    ---      ---       pEventPayload
      R15         REGSYM    ---      BYTE      qIdx
      ---         BLOCKEND  CODE     ---       LVL=1
      00FF36F2H   LINE      ---      ---       #265
      00FF36F2H   LINE      CODE     ---       #265

      00FF90EEH   BLOCK     CODE     ---       LVL=0
      00FF90EEH   LINE      ---      ---       #267
      00FF90F2H   LINE      ---      ---       #268
      00FF90F2H   BLOCK     CODE     NEAR LAB  LVL=1
      00FF90F2H   LINE      ---      ---       #270
      00FF90F7H   LINE      ---      ---       #273
      00FF9101H   LINE      ---      ---       #274
      00FF9108H   LINE      ---      ---       #275
      00FF910EH   LINE      ---      ---       #276
      00FF9114H   LINE      ---      ---       #277
      00FF911FH   LINE      ---      ---       #278
      00FF9130H   LINE      ---      ---       #279
      00FF913DH   LINE      ---      ---       #280
      00FF9144H   LINE      ---      ---       #281
      00FF914AH   LINE      ---      ---       #282
      00FF9157H   LINE      ---      ---       #288
      REG=6       REGSYM    ---      ---       pEventPayload
      R15         REGSYM    ---      BYTE      qIdx
      ---         BLOCKEND  CODE     ---       LVL=1
      00FF9164H   LINE      ---      ---       #289
      00FF9164H   LINE      CODE     ---       #289

      00FF3732H   BLOCK     CODE     ---       LVL=0
      00FF3732H   LINE      ---      ---       #293
      00FF3734H   LINE      ---      ---       #294
      00FF3734H   BLOCK     CODE     NEAR LAB  LVL=1
      00FF3734H   LINE      ---      ---       #296
      00FF3736H   LINE      ---      ---       #299
      00FF3740H   LINE      ---      ---       #300
      00FF3747H   LINE      ---      ---       #301
      00FF374DH   LINE      ---      ---       #302
      00FF3753H   LINE      ---      ---       #303
      REG=3       REGSYM    ---      ---       pEventPayload
      R15         REGSYM    ---      BYTE      qIdx
      ---         BLOCKEND  CODE     ---       LVL=1
      00FF3758H   LINE      ---      ---       #311
      00FF3758H   LINE      CODE     ---       #311

      00FF375BH   BLOCK     CODE     ---       LVL=0
      00FF375BH   LINE      ---      ---       #313
      00FF375DH   LINE      ---      ---       #314
      00FF375DH   BLOCK     CODE     NEAR LAB  LVL=1
      00FF375DH   LINE      ---      ---       #316
      00FF375FH   LINE      ---      ---       #319
      00FF3769H   LINE      ---      ---       #320
      00FF3770H   LINE      ---      ---       #321
      00FF3776H   LINE      ---      ---       #322
      00FF377CH   LINE      ---      ---       #323
L251 LINKER/LOCATER V4.66.93.0                                                        07/01/2025  14:01:01  PAGE 117


      REG=3       REGSYM    ---      ---       pEventPayload
      R15         REGSYM    ---      BYTE      qIdx
      ---         BLOCKEND  CODE     ---       LVL=1
      00FF3781H   LINE      ---      ---       #330
      00FF3781H   LINE      CODE     ---       #330

      ---         MODULE    ---      ---       mac_RaaSchedule
      00FFA6C3H   PUBLIC    CODE     ---       mac_Raa_SchInitHdlr
      00FFA07CH   PUBLIC    CODE     ---       mac_Raa_SchConfigHdlr
      00FF3502H   PUBLIC    CODE     ---       mac_Raa_SchWaitMHRHdlr
      00FFA6C4H   PUBLIC    CODE     ---       mac_Raa_SchWaitRxDoneHdlr
      00FFA75BH   PUBLIC    CODE     ---       mac_Raa_SchWaitTxDoneHdlr
      00FFA78CH   PUBLIC    CODE     ---       mac_Raa_SchWaitResumeHdlr
      00FFA78DH   PUBLIC    CODE     ---       mac_Raa_SchEndHdlr
      00FFA7EDH   PUBLIC    CODE     ---       mac_Raa_SchReservedHdlr
      00FF22BAH   PUBLIC    CODE     ---       Mac_RaaRxDoneHandle?_
      00FF37B5H   PUBLIC    CODE     ---       Mac_RaaClearAckQandGenRxData
      00FF9092H   PUBLIC    CODE     ---       MAC_RaaSchedule
      00FFA7EEH   PUBLIC    CODE     ---       mac_org_mhr_done_handler
      00FF966AH   PUBLIC    CODE     ---       mac_org_rx_done_handler
      00FF9660H   PUBLIC    CODE     ---       MAC_MhrParse
      00FF96A0H   PUBLIC    CODE     ---       Intercom_HrParse
      00FF4205H   PUBLIC    CODE     ---       MAC_ScanVco_Get
      00FF37D2H   PUBLIC    CODE     ---       MAC_RxDoneEventGen?_
      00FF3A05H   PUBLIC    CODE     ---       MAC_RXQ_CPY?_
      00FF8B1BH   PUBLIC    CODE     ---       mac_genAck
      00FF2CC9H   PUBLIC    CODE     ---       Mac_endianConvert
      00FFA80BH   PUBLIC    CODE     ---       mac_genAckFrmCtrl
      00FF2D1DH   PUBLIC    CODE     ---       mac_RssiInfoCalc
      00FFA872H   PUBLIC    CODE     ---       mod_replace
      00FFA87DH   PUBLIC    CODE     ---       mac_getCslPhase
      00FF2977H   PUBLIC    CODE     ---       mac_genEnhAck
      00FF8A50H   PUBLIC    CODE     ---       MAC_AckSet
      00FFA8BEH   PUBLIC    CODE     ---       MAC_NonceGen
      00FFA92FH   PUBLIC    CODE     ---       mac_Filter?_
      0000B2A9H   PUBLIC    EDATA    INT       gMacRaaState
      0000B2ABH   PUBLIC    EDATA    ---       gMacPib
      0000B2CAH   PUBLIC    EDATA    BYTE      rtc_q_cnt
      0000B2CBH   PUBLIC    EDATA    BYTE      csl_ack_pdbit
      0000B2CCH   PUBLIC    EDATA    DWORD     RX_done_time
      0000B2D0H   PUBLIC    EDATA    ---       pll_choice
      0000B310H   PUBLIC    EDATA    ---       vco_choice
      0000B320H   PUBLIC    EDATA    BYTE      first_scan_enable
      0000B321H   PUBLIC    EDATA    BYTE      rxscan_reg_status
      0000B322H   PUBLIC    EDATA    ---       gRaa_Sch_Handler_Entry
      000000A8H.7 SFRSYM    DATA     BIT       EA
      00000080H   SFRSYM    DATA     BYTE      P0

      00FF9660H   BLOCK     CODE     ---       LVL=0
      00FF9660H   LINE      ---      ---       #98
      00FF9660H   LINE      ---      ---       #99
      00FF9660H   BLOCK     CODE     NEAR LAB  LVL=1
      00FF9660H   LINE      ---      ---       #100
      00FF9664H   LINE      ---      ---       #101
      REG=3       REGSYM    ---      ---       pMhr
      ---         BLOCKEND  CODE     ---       LVL=1
      ---         BLOCKEND  CODE     ---       LVL=0

      00FF96A0H   BLOCK     CODE     ---       LVL=0
      00FF96A0H   LINE      ---      ---       #104
      00FF96A0H   LINE      ---      ---       #105
      00FF96A0H   BLOCK     CODE     NEAR LAB  LVL=1
      00FF96A0H   LINE      ---      ---       #106
      00FF96A4H   LINE      ---      ---       #107
      00FF96ABH   LINE      ---      ---       #108
L251 LINKER/LOCATER V4.66.93.0                                                        07/01/2025  14:01:01  PAGE 118


      00FF96ADH   LINE      ---      ---       #109
      REG=3       REGSYM    ---      ---       pMhr
      ---         BLOCKEND  CODE     ---       LVL=1
      00FF96B4H   LINE      ---      ---       #110
      00FF96B4H   LINE      CODE     ---       #110

      00FF4205H   BLOCK     CODE     ---       LVL=0
      00FF4205H   LINE      ---      ---       #113
      00FF4209H   LINE      ---      ---       #114
      DR12        REGSYM    ---      DWORD     Rf_freq
      00FF4209H   BLOCK     CODE     NEAR LAB  LVL=1
      00FF4209H   LINE      ---      ---       #116
      00FF4215H   LINE      ---      ---       #123
      00FF4217H   LINE      ---      ---       #127
      00FF4219H   LINE      ---      ---       #129
      00FF4225H   LINE      ---      ---       #130
      00FF422CH   LINE      ---      ---       #131
      00FF4232H   LINE      ---      ---       #132
      00FF423EH   LINE      ---      ---       #133
      00FF4244H   LINE      ---      ---       #134
      00FF424BH   LINE      ---      ---       #135
      00FF424EH   LINE      ---      ---       #136
      00FF425AH   LINE      ---      ---       #137
      00FF4260H   LINE      ---      ---       #139
      00FF4262H   LINE      ---      ---       #141
      R15         REGSYM    ---      BYTE      ret_vco
      0000B68CH   SYMBOL    EDATA    ---       pllCfg
      ---         BLOCKEND  CODE     ---       LVL=1
      00FF4264H   LINE      ---      ---       #142
      00FF4264H   LINE      CODE     ---       #142

      00FF37D2H   BLOCK     CODE     ---       LVL=0
      00FF37D2H   LINE      ---      ---       #178
      00FF37DAH   LINE      ---      ---       #179
      R10         REGSYM    ---      BYTE      isCrcPass
      00FF37DAH   BLOCK     CODE     NEAR LAB  LVL=1
      00FF37DAH   LINE      ---      ---       #182
      00FF37E3H   LINE      ---      ---       #194
      00FF37EFH   LINE      ---      ---       #195
      00FF37F7H   LINE      ---      ---       #196
      00FF37FDH   LINE      ---      ---       #197
      00FF3815H   LINE      ---      ---       #198
      00FF3824H   LINE      ---      ---       #203
      00FF3826H   LINE      ---      ---       #215
      00FF384FH   LINE      ---      ---       #216
      00FF385AH   LINE      ---      ---       #217
      00FF385AH   LINE      ---      ---       #218
      00FF386EH   LINE      ---      ---       #221
      00FF387CH   LINE      ---      ---       #224
      00FF3882H   LINE      ---      ---       #226
      00FF3888H   LINE      ---      ---       #228
      00FF3888H   LINE      ---      ---       #229
      00FF388AH   LINE      ---      ---       #232
      00FF3890H   LINE      ---      ---       #233
      00FF3896H   LINE      ---      ---       #235
      00FF389AH   LINE      ---      ---       #236
      00FF389AH   LINE      ---      ---       #237
      00FF389CH   LINE      ---      ---       #240
      00FF38B3H   LINE      ---      ---       #241
      00FF38B3H   LINE      ---      ---       #244
      00FF38DBH   LINE      ---      ---       #245
      00FF38E8H   LINE      ---      ---       #250
      00FF3910H   LINE      ---      ---       #251
      00FF391BH   LINE      ---      ---       #253
      00FF3921H   LINE      ---      ---       #255
L251 LINKER/LOCATER V4.66.93.0                                                        07/01/2025  14:01:01  PAGE 119


      00FF392CH   LINE      ---      ---       #256
      00FF3944H   LINE      ---      ---       #257
      00FF3944H   LINE      ---      ---       #261
      00FF394DH   LINE      ---      ---       #262
      00FF3950H   LINE      ---      ---       #264
      00FF3957H   LINE      ---      ---       #268
      00FF3961H   LINE      ---      ---       #275
      00FF3965H   LINE      ---      ---       #277
      00FF3968H   LINE      ---      ---       #278
      00FF3968H   LINE      ---      ---       #282
      00FF3968H   LINE      ---      ---       #286
      00FF396EH   LINE      ---      ---       #288
      00FF3977H   LINE      ---      ---       #289
      00FF3977H   LINE      ---      ---       #291
      R10         REGSYM    ---      BYTE      retValue
      WR14        REGSYM    ---      WORD      bufferAddress_LOCAL
      REG=3       REGSYM    ---      ---       pOutput
      00000000H   STKSYM    ---      BYTE      vga_with_pb
      FFFFFFFFH   STKSYM    ---      BYTE      channelTmp
      FFFFFFF8H   STKSYM    ---      ---       sRxControlField
      ---         BLOCKEND  CODE     ---       LVL=1
      00FF3979H   LINE      ---      ---       #292
      00FF3979H   LINE      CODE     ---       #292

      00FF3A05H   BLOCK     CODE     ---       LVL=0
      00FF3A05H   LINE      ---      ---       #295
      00FF3A0DH   LINE      ---      ---       #296
      R10         REGSYM    ---      BYTE      isCrcPass
      00FF3A0DH   BLOCK     CODE     NEAR LAB  LVL=1
      00FF3A0DH   LINE      ---      ---       #297
      00FF3A1AH   LINE      ---      ---       #298
      00FF3A23H   LINE      ---      ---       #299
      00FF3A39H   LINE      ---      ---       #306
      00FF3A45H   LINE      ---      ---       #307
      00FF3A4DH   LINE      ---      ---       #308
      00FF3A53H   LINE      ---      ---       #309
      00FF3A6BH   LINE      ---      ---       #310
      00FF3A7AH   LINE      ---      ---       #314
      00FF3A7CH   LINE      ---      ---       #326
      00FF3AA5H   LINE      ---      ---       #327
      00FF3AB0H   LINE      ---      ---       #328
      00FF3AB0H   LINE      ---      ---       #329
      00FF3AC4H   LINE      ---      ---       #332
      00FF3AD2H   LINE      ---      ---       #336
      00FF3AF2H   LINE      ---      ---       #337
      00FF3AFDH   LINE      ---      ---       #338
      00FF3B0EH   LINE      ---      ---       #342
      00FF3B2EH   LINE      ---      ---       #343
      00FF3B3FH   LINE      ---      ---       #346
      00FF3B5BH   LINE      ---      ---       #347
      00FF3B6BH   LINE      ---      ---       #348
      00FF3B74H   LINE      ---      ---       #350
      FFFFFFFFH   STKSYM    ---      WORD      bufferAddress_NORMAL
      WR12        REGSYM    ---      WORD      bufferAddress_LOCAL
      FFFFFFFDH   STKSYM    ---      WORD      bufferLength
      FFFFFFF9H   STKSYM    ---      DWORD     currRtc
      REG=2       REGSYM    ---      ---       pInput
      REG=7       REGSYM    ---      ---       pOutput
      FFFFFFF2H   STKSYM    ---      ---       sRxControlField
      ---         BLOCKEND  CODE     ---       LVL=1
      00FF3B76H   LINE      ---      ---       #351
      00FF3B76H   LINE      CODE     ---       #351

      00FF8B1BH   BLOCK     CODE     ---       LVL=0
      00FF8B1BH   LINE      ---      ---       #354
L251 LINKER/LOCATER V4.66.93.0                                                        07/01/2025  14:01:01  PAGE 120


      00FF8B25H   LINE      ---      ---       #355
      REG=7       REGSYM    ---      ---       pbuf
      R5          REGSYM    ---      BYTE      framePending
      R13         REGSYM    ---      BYTE      dsn
      00FF8B25H   BLOCK     CODE     NEAR LAB  LVL=1
      00FF8B25H   LINE      ---      ---       #356
      00FF8B37H   LINE      ---      ---       #357
      00FF8B43H   LINE      ---      ---       #358
      00FF8B4AH   LINE      ---      ---       #360
      00FF8B54H   LINE      ---      ---       #361
      0000B68EH   SYMBOL    EDATA    WORD      fcf
      ---         BLOCKEND  CODE     ---       LVL=1
      00FF8B5BH   LINE      ---      ---       #362
      00FF8B5BH   LINE      CODE     ---       #362

      00FF2CBEH   BLOCK     CODE     ---       LVL=0
      00FF2CC9H   LINE      ---      ---       #365
      00FF2CCBH   LINE      ---      ---       #369
      00FF2CBEH   SYMBOL    CODE     NEAR LAB  ?L?COM002E
      REG=3       REGSYM    ---      ---       pDataIn
      R5          REGSYM    ---      BYTE      TypeMap
      00FF2CCBH   BLOCK     CODE     NEAR LAB  LVL=1
      00FF2CCBH   LINE      ---      ---       #372
      00FF2CCBH   LINE      ---      ---       #374
      00FF2CD7H   LINE      ---      ---       #376
      00FF2CD7H   LINE      ---      ---       #380
      00FF2CD9H   LINE      ---      ---       #381
      00FF2CF8H   LINE      ---      ---       #383
      00FF2D0CH   LINE      ---      ---       #386
      00FF2D0DH   LINE      ---      ---       #388
      00FF2D0DH   LINE      ---      ---       #391
      00FF2D0FH   LINE      ---      ---       #392
      00FF2D19H   LINE      ---      ---       #394
      00FF2D19H   LINE      ---      ---       #396
      00FF2D19H   LINE      ---      ---       #398
      00FF2D19H   LINE      ---      ---       #399
      00FF2D19H   LINE      ---      ---       #400
      00FF2D1CH   LINE      ---      ---       #401
      00FF2D1CH   LINE      ---      ---       #404
      REG=1       REGSYM    ---      ---       pDwTemp
      REG=2       REGSYM    ---      ---       pWTemp
      REG=3       REGSYM    ---      ---       pData
      ---         BLOCKEND  CODE     ---       LVL=1
      00FF2D1CH   LINE      ---      ---       #405
      00FF2D1CH   LINE      CODE     ---       #405

      00FFA80BH   BLOCK     CODE     ---       LVL=0
      00FFA80BH   LINE      ---      ---       #414
      00FFA811H   LINE      ---      ---       #416
      00FFA871H   LINE      ---      ---       #423
      REG=0       REGSYM    ---      ---       pbuf
      R10         REGSYM    ---      BYTE      framePending
      REG=1       REGSYM    ---      ---       hdr
      ---         BLOCKEND  ---      ---       LVL=0

      00FF2D1DH   BLOCK     CODE     ---       LVL=0
      00FF2D1DH   LINE      ---      ---       #425
      00FF2D1FH   LINE      ---      ---       #427
      00FF2D2FH   LINE      ---      ---       #428
      R11         REGSYM    ---      BYTE      rssi
      R5          REGSYM    ---      BYTE      a
      R6          REGSYM    ---      BYTE      b
      ---         BLOCKEND  ---      ---       LVL=0

      00FFA872H   BLOCK     CODE     ---       LVL=0
L251 LINKER/LOCATER V4.66.93.0                                                        07/01/2025  14:01:01  PAGE 121


      00FFA872H   LINE      ---      ---       #430
      00FFA874H   LINE      ---      ---       #431
      DR4         REGSYM    ---      DWORD     input1
      DR8         REGSYM    ---      DWORD     input2
      00FFA874H   BLOCK     CODE     NEAR LAB  LVL=1
      00FFA874H   LINE      ---      ---       #432
      00FFA874H   LINE      ---      ---       #433
      00FFA876H   LINE      ---      ---       #435
      00FFA878H   LINE      ---      ---       #436
      00FFA87CH   LINE      ---      ---       #437
      DR4         REGSYM    ---      DWORD     rem
      ---         BLOCKEND  CODE     ---       LVL=1
      00FFA87CH   LINE      ---      ---       #438
      00FFA87CH   LINE      CODE     ---       #438

      00FFA87DH   BLOCK     CODE     ---       LVL=0
      00FFA87DH   LINE      ---      ---       #439
      00FFA885H   LINE      ---      ---       #440
      0000B5E8H   SYMBOL    EDATA    DWORD     cslPeriodUs
      DR12        REGSYM    ---      DWORD     cslSampleTime
      00FFA885H   BLOCK     CODE     NEAR LAB  LVL=1
      00FFA885H   LINE      ---      ---       #443
      00FFA88AH   LINE      ---      ---       #449
      00FFA88EH   LINE      ---      ---       #450
      00FFA898H   LINE      ---      ---       #453
      00FFA89CH   LINE      ---      ---       #454
      00FFA89FH   LINE      ---      ---       #455
      00FFA8A2H   LINE      ---      ---       #456
      00FFA8A2H   LINE      ---      ---       #458
      00FFA8ACH   LINE      ---      ---       #459
      00FFA8B2H   LINE      ---      ---       #461
      00FFA8B4H   LINE      ---      ---       #463
      DR0         REGSYM    ---      DWORD     curTime
      DR4         REGSYM    ---      DWORD     diff
      0000B5ECH   SYMBOL    EDATA    DWORD     diff1
      DR4         REGSYM    ---      DWORD     diff2
      DR4         REGSYM    ---      DWORD     diffPlusPeriod
      ---         BLOCKEND  CODE     ---       LVL=1
      00FFA8BBH   LINE      ---      ---       #464
      00FFA8BBH   LINE      CODE     ---       #464

      00FF2977H   BLOCK     CODE     ---       LVL=0
      00FF2977H   LINE      ---      ---       #473
      00FF2981H   LINE      ---      ---       #474
      REG=7       REGSYM    ---      ---       pbuf
      0000B649H   SYMBOL    EDATA    BYTE      framePending
      REG=6       REGSYM    ---      ---       hdr
      00FF2981H   BLOCK     CODE     NEAR LAB  LVL=1
      00FF2981H   LINE      ---      ---       #478
      00FF2986H   LINE      ---      ---       #480
      00FF298FH   LINE      ---      ---       #481
      00FF2996H   LINE      ---      ---       #482
      00FF299CH   LINE      ---      ---       #484
      00FF29A2H   LINE      ---      ---       #485
      00FF29A7H   LINE      ---      ---       #487
      00FF29AEH   LINE      ---      ---       #488
      00FF29BDH   LINE      ---      ---       #491
      00FF29C2H   LINE      ---      ---       #493
      00FF29D5H   LINE      ---      ---       #494
      00FF29D7H   LINE      ---      ---       #498
      00FF29DFH   LINE      ---      ---       #499
      00FF29DFH   LINE      ---      ---       #501
      00FF29EAH   LINE      ---      ---       #503
      00FF29ECH   LINE      ---      ---       #504
      00FF29F4H   LINE      ---      ---       #506
L251 LINKER/LOCATER V4.66.93.0                                                        07/01/2025  14:01:01  PAGE 122


      00FF29FEH   LINE      ---      ---       #507
      00FF2A06H   LINE      ---      ---       #508
      00FF2A0CH   LINE      ---      ---       #511
      00FF2A15H   LINE      ---      ---       #513
      00FF2A1CH   LINE      ---      ---       #516
      00FF2A26H   LINE      ---      ---       #518
      00FF2A2EH   LINE      ---      ---       #519
      00FF2A34H   LINE      ---      ---       #520
      00FF2A34H   LINE      ---      ---       #522
      00FF2A3BH   LINE      ---      ---       #525
      00FF2A45H   LINE      ---      ---       #527
      00FF2A4DH   LINE      ---      ---       #528
      00FF2A53H   LINE      ---      ---       #529
      00FF2A55H   LINE      ---      ---       #533
      00FF2A62H   LINE      ---      ---       #535
      00FF2A6AH   LINE      ---      ---       #536
      00FF2A77H   LINE      ---      ---       #538
      00FF2A7FH   LINE      ---      ---       #539
      00FF2A89H   LINE      ---      ---       #540
      00FF2A89H   LINE      ---      ---       #541
      00FF2A89H   LINE      ---      ---       #543
      00FF2A92H   LINE      ---      ---       #545
      00FF2AA0H   LINE      ---      ---       #546
      00FF2AA8H   LINE      ---      ---       #548
      00FF2AB1H   LINE      ---      ---       #549
      00FF2AB8H   LINE      ---      ---       #550
      00FF2AC0H   LINE      ---      ---       #552
      00FF2AC8H   LINE      ---      ---       #553
      00FF2AD0H   LINE      ---      ---       #555
      00FF2ADAH   LINE      ---      ---       #586
      00FF2ADAH   LINE      ---      ---       #588
      00FF2AE0H   LINE      ---      ---       #591
      00FF2AE8H   LINE      ---      ---       #592
      00FF2AF0H   LINE      ---      ---       #593
      00FF2AF8H   LINE      ---      ---       #594
      00FF2B00H   LINE      ---      ---       #596
      00FF2B06H   LINE      ---      ---       #598
      00FF2B0EH   LINE      ---      ---       #599
      00FF2B14H   LINE      ---      ---       #601
      00FF2B1CH   LINE      ---      ---       #603
      00FF2B26H   LINE      ---      ---       #604
      00FF2B26H   LINE      ---      ---       #606
      00FF2B2FH   LINE      ---      ---       #608
      00FF2B35H   LINE      ---      ---       #609
      00FF2B3DH   LINE      ---      ---       #610
      0000B64AH   SYMBOL    EDATA    BYTE      hdrSize
      0000B64BH   SYMBOL    EDATA    BYTE      LmIesize
      00FF2B3DH   BLOCK     CODE     NEAR LAB  LVL=2
      00FF2B3DH   LINE      ---      ---       #614
      00FF2B45H   LINE      ---      ---       #615
      00FF2B4CH   LINE      ---      ---       #616
      00FF2B54H   LINE      ---      ---       #618
      00FF2B5CH   LINE      ---      ---       #619
      00FF2B65H   LINE      ---      ---       #620
      00FF2B6EH   LINE      ---      ---       #621
      00FF2B76H   LINE      ---      ---       #622
      00FF2B7EH   LINE      ---      ---       #632
      00FF2BA7H   LINE      ---      ---       #635
      00FF2BADH   LINE      ---      ---       #639
      00FF2BBFH   LINE      ---      ---       #640
      00FF2BC7H   LINE      ---      ---       #641
      00FF2BCDH   LINE      ---      ---       #642
      00FF2BCDH   LINE      ---      ---       #643
      00FF2BD3H   LINE      ---      ---       #647
      00FF2BE5H   LINE      ---      ---       #648
L251 LINKER/LOCATER V4.66.93.0                                                        07/01/2025  14:01:01  PAGE 123


      00FF2BEDH   LINE      ---      ---       #649
      00FF2BF6H   LINE      ---      ---       #650
      00FF2BF6H   LINE      ---      ---       #651
      00FF2C05H   LINE      ---      ---       #655
      00FF2C17H   LINE      ---      ---       #656
      00FF2C1FH   LINE      ---      ---       #657
      00FF2C28H   LINE      ---      ---       #658
      00FF2C28H   LINE      ---      ---       #660
      00FF2C38H   LINE      ---      ---       #661
      00FF2C42H   LINE      ---      ---       #662
      00FF2C52H   LINE      ---      ---       #664
      0000B64CH   SYMBOL    EDATA    BYTE      rssi
      ---         BLOCKEND  CODE     ---       LVL=2
      00FF2C62H   LINE      ---      ---       #665
      00FF2C62H   LINE      ---      ---       #668
      00FF2C68H   LINE      ---      ---       #670
      00FF2C71H   LINE      ---      ---       #673
      00FF2C79H   LINE      ---      ---       #674
      00FF2C81H   LINE      ---      ---       #675
      00FF2C89H   LINE      ---      ---       #676
      00FF2C91H   LINE      ---      ---       #677
      00FF2C9BH   LINE      ---      ---       #678
      00FF2C9BH   LINE      ---      ---       #682
      00FF2CADH   LINE      ---      ---       #685
      00FF2CADH   LINE      CODE     ---       #685
      ---         BLOCKEND  CODE     ---       LVL=0

      00FF8A50H   BLOCK     CODE     ---       LVL=0
      00FF8A50H   LINE      ---      ---       #689
      00FF8A52H   LINE      ---      ---       #690
      00FF8A52H   BLOCK     CODE     NEAR LAB  LVL=1
      00FF8A52H   LINE      ---      ---       #693
      00FF8A5DH   LINE      ---      ---       #695
      00FF8A68H   LINE      ---      ---       #697
      00FF8A6BH   LINE      ---      ---       #700
      00FF8A74H   LINE      ---      ---       #703
      00FF8A88H   LINE      ---      ---       #707
      00FF8A90H   LINE      ---      ---       #708
      00FF8A92H   LINE      ---      ---       #710
      00FF8A97H   LINE      ---      ---       #713
      00FF8AA1H   LINE      ---      ---       #715
      00FF8AC0H   LINE      ---      ---       #716
      00FF8AC8H   LINE      ---      ---       #717
      00FF8AC8H   LINE      ---      ---       #718
      00FF8ADDH   LINE      ---      ---       #722
      00FF8ADDH   LINE      ---      ---       #726
      00FF8AEBH   LINE      ---      ---       #727
      00FF8AF3H   LINE      ---      ---       #730
      00FF8AFBH   LINE      ---      ---       #733
      00FF8B10H   LINE      ---      ---       #734
      00FF8B13H   LINE      ---      ---       #735
      00FF8B15H   LINE      ---      ---       #736
      00FF8B18H   LINE      ---      ---       #737
      00FF8B18H   LINE      ---      ---       #738
      R11         REGSYM    ---      BYTE      retValue
      ---         BLOCKEND  CODE     ---       LVL=1
      00FF8B18H   LINE      ---      ---       #739
      00FF8B18H   LINE      CODE     ---       #739

      00FFA8BEH   BLOCK     CODE     ---       LVL=0
      00FFA8BEH   LINE      ---      ---       #741
      00FFA8C2H   LINE      ---      ---       #742
      00FFA8C2H   BLOCK     CODE     NEAR LAB  LVL=1
      00FFA8C2H   LINE      ---      ---       #743
      00FFA8CBH   LINE      ---      ---       #748
L251 LINKER/LOCATER V4.66.93.0                                                        07/01/2025  14:01:01  PAGE 124


      00FFA8CDH   LINE      ---      ---       #750
      00FFA8E1H   LINE      ---      ---       #751
      00FFA8E8H   LINE      ---      ---       #755
      00FFA8F5H   LINE      ---      ---       #757
      00FFA8FFH   LINE      ---      ---       #758
      00FFA8FFH   LINE      ---      ---       #759
      00FFA91FH   LINE      ---      ---       #760
      WR14        REGSYM    ---      WORD      bufferAddress_LOCAL
      REG=3       REGSYM    ---      ---       pOutput
      R13         REGSYM    ---      BYTE      i
      ---         BLOCKEND  CODE     ---       LVL=1
      00FFA92AH   LINE      ---      ---       #761
      00FFA92AH   LINE      CODE     ---       #761

      00FFA92FH   BLOCK     CODE     ---       LVL=0
      00FFA92FH   LINE      ---      ---       #767
      00FFA933H   LINE      ---      ---       #768
      00FFA933H   BLOCK     CODE     NEAR LAB  LVL=1
      00FFA933H   LINE      ---      ---       #770
      00FFA93AH   LINE      ---      ---       #773
      00FFA93CH   LINE      ---      ---       #778
      00FFA93EH   LINE      ---      ---       #780
      00FFA94AH   LINE      ---      ---       #781
      00FFA950H   LINE      ---      ---       #786
      00FFA95CH   LINE      ---      ---       #787
      00FFA965H   LINE      ---      ---       #789
      00FFA971H   LINE      ---      ---       #795
      00FFA97BH   LINE      ---      ---       #798
      00FFA988H   LINE      ---      ---       #802
      00FFA992H   LINE      ---      ---       #804
      00FFA995H   LINE      ---      ---       #805
      00FFA997H   LINE      ---      ---       #807
      00FFA9B0H   LINE      ---      ---       #808
      00FFA9BDH   LINE      ---      ---       #809
      00FFA9C3H   LINE      ---      ---       #810
      00FFA9C5H   LINE      ---      ---       #813
      00FFA9C7H   LINE      ---      ---       #815
      00FFA9EEH   LINE      ---      ---       #817
      00FFA9FBH   LINE      ---      ---       #818
      00FFA9FEH   LINE      ---      ---       #819
      00FFAA04H   LINE      ---      ---       #821
      00FFAA04H   LINE      ---      ---       #822
      00FFAA08H   LINE      ---      ---       #824
      00FFAA0BH   LINE      ---      ---       #825
      00FFAA0EH   LINE      ---      ---       #826
      00FFAA0EH   LINE      ---      ---       #845
      00FFAA10H   LINE      ---      ---       #847
      00FFAA29H   LINE      ---      ---       #848
      00FFAA36H   LINE      ---      ---       #849
      00FFAA3CH   LINE      ---      ---       #850
      00FFAA3CH   LINE      ---      ---       #855
      00FFAA40H   LINE      ---      ---       #858
      00FFAA42H   LINE      ---      ---       #859
      00FFAA4CH   LINE      ---      ---       #861
      00FFAA4FH   LINE      ---      ---       #862
      00FFAA51H   LINE      ---      ---       #865
      00FFAA53H   LINE      ---      ---       #867
      00FFAA6EH   LINE      ---      ---       #869
      00FFAA71H   LINE      ---      ---       #870
      00FFAA75H   LINE      ---      ---       #871
      00FFAA78H   LINE      ---      ---       #872
      00FFAA7EH   LINE      ---      ---       #874
      00FFAA7EH   LINE      ---      ---       #875
      00FFAA86H   LINE      ---      ---       #877
      00FFAA89H   LINE      ---      ---       #878
L251 LINKER/LOCATER V4.66.93.0                                                        07/01/2025  14:01:01  PAGE 125


      00FFAA8CH   LINE      ---      ---       #879
      00FFAA8CH   LINE      ---      ---       #895
      00FFAA90H   LINE      ---      ---       #898
      00FFAA92H   LINE      ---      ---       #899
      00FFAAA6H   LINE      ---      ---       #901
      00FFAAA9H   LINE      ---      ---       #902
      00FFAAABH   LINE      ---      ---       #905
      00FFAAADH   LINE      ---      ---       #907
      00FFAADAH   LINE      ---      ---       #910
      00FFAADEH   LINE      ---      ---       #911
      00FFAAE1H   LINE      ---      ---       #912
      00FFAAE7H   LINE      ---      ---       #914
      00FFAAE7H   LINE      ---      ---       #915
      00FFAAEBH   LINE      ---      ---       #917
      00FFAAEEH   LINE      ---      ---       #918
      00FFAAF1H   LINE      ---      ---       #919
      00FFAAF1H   LINE      ---      ---       #951
      00FFAAF4H   LINE      ---      ---       #953
      00FFAAF4H   LINE      ---      ---       #957
      00FFAAF6H   LINE      ---      ---       #958
      00FFAAF8H   LINE      ---      ---       #960
      00FFAB00H   LINE      ---      ---       #962
      00FFAB03H   LINE      ---      ---       #963
      00FFAB09H   LINE      ---      ---       #965
      00FFAB11H   LINE      ---      ---       #967
      00FFAB14H   LINE      ---      ---       #968
      00FFAB17H   LINE      ---      ---       #969
      00FFAB17H   LINE      ---      ---       #980
      00FFAB1DH   LINE      ---      ---       #983
      00FFAB21H   LINE      ---      ---       #984
      00FFAB25H   LINE      ---      ---       #985
      00FFAB2BH   LINE      ---      ---       #986
      00FFAB2FH   LINE      ---      ---       #991
      00FFAB31H   LINE      ---      ---       #992
      00FFAB3FH   LINE      ---      ---       #994
      00FFAB41H   LINE      ---      ---       #996
      00FFAB58H   LINE      ---      ---       #998
      00FFAB5BH   LINE      ---      ---       #999
      00FFAB61H   LINE      ---      ---       #1001
      00FFAB65H   LINE      ---      ---       #1003
      00FFAB68H   LINE      ---      ---       #1004
      00FFAB6BH   LINE      ---      ---       #1005
      00FFAB6BH   LINE      ---      ---       #1025
      00FFAB6BH   LINE      ---      ---       #1026
      00FFAB6BH   LINE      ---      ---       #1028
      00000000H   STKSYM    ---      BYTE      frameType
      R6          REGSYM    ---      BYTE      i
      R7          REGSYM    ---      BYTE      match_found
      FFFFFFFEH   STKSYM    ---      ---       is_pan_num
      ---         BLOCKEND  CODE     ---       LVL=1
      00FFAB6DH   LINE      ---      ---       #1029
      00FFAB6DH   LINE      CODE     ---       #1029

      00FF22BAH   BLOCK     CODE     ---       LVL=0
      00FF22BAH   LINE      ---      ---       #1062
      00FF22BCH   LINE      ---      ---       #1063
      00FF22BCH   BLOCK     CODE     NEAR LAB  LVL=1
      00FF22BCH   LINE      ---      ---       #1069
      00FF22BEH   LINE      ---      ---       #1072
      00FF22BEH   LINE      ---      ---       #1073
      00FF22C1H   LINE      ---      ---       #1078
      00FF22C4H   LINE      ---      ---       #1079
      00FF22C7H   LINE      ---      ---       #1087
      00FF22D3H   LINE      ---      ---       #1088
      00FF22D7H   LINE      ---      ---       #1089
L251 LINKER/LOCATER V4.66.93.0                                                        07/01/2025  14:01:01  PAGE 126


      00FF22D9H   LINE      ---      ---       #1090
      00FF22D9H   LINE      ---      ---       #1095
      00FF22DCH   LINE      ---      ---       #1098
      00FF22F3H   LINE      ---      ---       #1100
      00FF22FAH   LINE      ---      ---       #1103
      00FF22FDH   LINE      ---      ---       #1105
      00FF2301H   LINE      ---      ---       #1106
      00FF2303H   LINE      ---      ---       #1107
      00FF2303H   LINE      ---      ---       #1116
      00FF230DH   LINE      ---      ---       #1117
      00FF232BH   LINE      ---      ---       #1118
      00FF232DH   LINE      ---      ---       #1119
      00FF233DH   LINE      ---      ---       #1120
      00FF2340H   LINE      ---      ---       #1121
      00FF2340H   LINE      ---      ---       #1128
      00FF234BH   LINE      ---      ---       #1134
      00FF2351H   LINE      ---      ---       #1136
      00FF2356H   LINE      ---      ---       #1137
      00FF2356H   LINE      ---      ---       #1141
      00FF235CH   LINE      ---      ---       #1143
      00FF2362H   LINE      ---      ---       #1144
      00FF2364H   LINE      ---      ---       #1145
      00FF236BH   LINE      ---      ---       #1150
      00FF237FH   LINE      ---      ---       #1152
      00FF2389H   LINE      ---      ---       #1154
      00FF238CH   LINE      ---      ---       #1155
      00FF238CH   LINE      ---      ---       #1156
      00FF238EH   LINE      ---      ---       #1157
      00FF2393H   LINE      ---      ---       #1159
      00FF239AH   LINE      ---      ---       #1161
      00FF239DH   LINE      ---      ---       #1162
      00FF23A4H   LINE      ---      ---       #1163
      00FF23A6H   LINE      ---      ---       #1164
      00FF23A6H   LINE      ---      ---       #1165
      00FF23A6H   LINE      ---      ---       #1166
      00FF23A8H   LINE      ---      ---       #1167
      00FF23AFH   LINE      ---      ---       #1169
      00FF23B2H   LINE      ---      ---       #1170
      00FF23B9H   LINE      ---      ---       #1171
      00FF23BBH   LINE      ---      ---       #1172
      00FF23BBH   LINE      ---      ---       #1173
      00FF23BBH   LINE      ---      ---       #1174
      00FF23BDH   LINE      ---      ---       #1177
      00FF23C0H   LINE      ---      ---       #1178
      00FF23C0H   LINE      ---      ---       #1179
      00FF23C0H   LINE      ---      ---       #1180
      00FF23C2H   LINE      ---      ---       #1182
      00FF23CEH   LINE      ---      ---       #1187
      00FF23D1H   LINE      ---      ---       #1188
      00FF23D8H   LINE      ---      ---       #1189
      00FF23DEH   LINE      ---      ---       #1190
      00FF23E6H   LINE      ---      ---       #1191
      00FF23ECH   LINE      ---      ---       #1192
      00FF23EEH   LINE      ---      ---       #1195
      00FF23F1H   LINE      ---      ---       #1196
      00FF23F4H   LINE      ---      ---       #1197
      00FF23F4H   LINE      ---      ---       #1198
      00FF23F7H   LINE      ---      ---       #1199
      00FF23FAH   LINE      ---      ---       #1200
      00FF23FDH   LINE      ---      ---       #1201
      00FF2403H   LINE      ---      ---       #1202
      00FF2406H   LINE      ---      ---       #1203
      00FF240CH   LINE      ---      ---       #1204
      00FF240FH   LINE      ---      ---       #1205
      00FF2411H   LINE      ---      ---       #1208
L251 LINKER/LOCATER V4.66.93.0                                                        07/01/2025  14:01:01  PAGE 127


      00FF2414H   LINE      ---      ---       #1209
      00FF2417H   LINE      ---      ---       #1210
      00FF2417H   LINE      ---      ---       #1212
      00FF241DH   LINE      ---      ---       #1214
      00FF2421H   LINE      ---      ---       #1216
      00FF2425H   LINE      ---      ---       #1219
      00FF2428H   LINE      ---      ---       #1221
      00FF2432H   LINE      ---      ---       #1222
      00FF2438H   LINE      ---      ---       #1224
      00FF243CH   LINE      ---      ---       #1225
      00FF243EH   LINE      ---      ---       #1228
      00FF2442H   LINE      ---      ---       #1229
      00FF2442H   LINE      ---      ---       #1230
      00FF2444H   LINE      ---      ---       #1231
      00FF2444H   LINE      ---      ---       #1240
      00FF244EH   LINE      ---      ---       #1242
      00FF244EH   LINE      ---      ---       #1243
      00FF2450H   LINE      ---      ---       #1244
      00FF245AH   LINE      ---      ---       #1246
      00FF245EH   LINE      ---      ---       #1247
      00FF2460H   LINE      ---      ---       #1249
      00FF2464H   LINE      ---      ---       #1250
      00FF2466H   LINE      ---      ---       #1253
      00FF246DH   LINE      ---      ---       #1255
      00FF2470H   LINE      ---      ---       #1257
      00FF247AH   LINE      ---      ---       #1259
      00FF247DH   LINE      ---      ---       #1261
      00FF2493H   LINE      ---      ---       #1263
      00FF2496H   LINE      ---      ---       #1265
      00FF249CH   LINE      ---      ---       #1268
      00FF24A4H   LINE      ---      ---       #1269
      00FF24AAH   LINE      ---      ---       #1270
      00FF24AEH   LINE      ---      ---       #1272
      00FF24B4H   LINE      ---      ---       #1274
      00FF24BAH   LINE      ---      ---       #1276
      00FF24C5H   LINE      ---      ---       #1277
      00FF24C9H   LINE      ---      ---       #1278
      00FF24CBH   LINE      ---      ---       #1281
      00FF24D6H   LINE      ---      ---       #1282
      00FF24DAH   LINE      ---      ---       #1283
      00FF24DAH   LINE      ---      ---       #1284
      00FF24DCH   LINE      ---      ---       #1287
      00FF24EDH   LINE      ---      ---       #1288
      00FF24FAH   LINE      ---      ---       #1289
      00FF250AH   LINE      ---      ---       #1290
      00FF250AH   LINE      ---      ---       #1291
      00FF250AH   LINE      ---      ---       #1296
      00FF2510H   LINE      ---      ---       #1298
      00FF251AH   LINE      ---      ---       #1299
      R11         REGSYM    ---      BYTE      channelTmp
      R12         REGSYM    ---      BYTE      rx_data_len
      R13         REGSYM    ---      BYTE      drop_pkt
      R10         REGSYM    ---      BYTE      macRxInfo
      R14         REGSYM    ---      BYTE      isCrcPass
      R14         REGSYM    ---      BYTE      srcAddrType
      R5          REGSYM    ---      BYTE      listidx
      00FF251AH   BLOCK     CODE     NEAR LAB  LVL=2
      00FF251AH   LINE      ---      ---       #1302
      00FF2528H   LINE      ---      ---       #1304
      00FF2533H   LINE      ---      ---       #1305
      00FF2537H   LINE      ---      ---       #1307
      00FF2539H   LINE      ---      ---       #1308
      00FF253BH   LINE      ---      ---       #1310
      00FF253FH   LINE      ---      ---       #1312
      00FF2550H   LINE      ---      ---       #1313
L251 LINKER/LOCATER V4.66.93.0                                                        07/01/2025  14:01:01  PAGE 128


      00FF2552H   LINE      ---      ---       #1316
      00FF2563H   LINE      ---      ---       #1317
      00FF2563H   LINE      ---      ---       #1318
      00FF2571H   LINE      ---      ---       #1330
      00FF2579H   LINE      ---      ---       #1331
      00FF258CH   LINE      ---      ---       #1332
      00FF2594H   LINE      ---      ---       #1333
      00FF259CH   LINE      ---      ---       #1334
      R15         REGSYM    ---      BYTE      status
      ---         BLOCKEND  CODE     ---       LVL=2
      00FF25A4H   LINE      ---      ---       #1335
      00FF25A4H   LINE      ---      ---       #1340
      00FF25A7H   LINE      ---      ---       #1342
      00FF25ACH   LINE      ---      ---       #1346
      00FF25B5H   LINE      ---      ---       #1348
      00FF25B8H   LINE      ---      ---       #1350
      00FF25C8H   LINE      ---      ---       #1354
      00FF25E0H   LINE      ---      ---       #1356
      00FF25E6H   LINE      ---      ---       #1358
      00FF25E9H   LINE      ---      ---       #1360
      00FF25EDH   LINE      ---      ---       #1361
      00FF25EDH   LINE      ---      ---       #1364
      00FF25F0H   LINE      ---      ---       #1366
      00FF25F6H   LINE      ---      ---       #1367
      00FF25FCH   LINE      ---      ---       #1369
      00FF25FFH   LINE      ---      ---       #1372
      00FF261AH   LINE      ---      ---       #1373
      00FF2623H   LINE      ---      ---       #1376
      00FF262DH   LINE      ---      ---       #1378
      00FF2631H   LINE      ---      ---       #1379
      00FF2633H   LINE      ---      ---       #1381
      00FF2637H   LINE      ---      ---       #1383
      00FF2639H   LINE      ---      ---       #1387
      00FF263FH   LINE      ---      ---       #1389
      00FF2644H   LINE      ---      ---       #1390
      00FF264AH   LINE      ---      ---       #1391
      00FF264AH   LINE      ---      ---       #1394
      00FF2650H   LINE      ---      ---       #1397
      00FF265AH   LINE      ---      ---       #1399
      00FF265EH   LINE      ---      ---       #1400
      00FF2660H   LINE      ---      ---       #1401
      00FF266AH   LINE      ---      ---       #1403
      00FF266EH   LINE      ---      ---       #1404
      00FF2670H   LINE      ---      ---       #1406
      00FF2674H   LINE      ---      ---       #1407
      00FF2674H   LINE      ---      ---       #1409
      00FF2674H   LINE      ---      ---       #1410
      00FF2676H   LINE      ---      ---       #1413
      00FF2679H   LINE      ---      ---       #1415
      00FF267FH   LINE      ---      ---       #1416
      00FF2685H   LINE      ---      ---       #1418
      00FF2689H   LINE      ---      ---       #1422
      00FF268CH   LINE      ---      ---       #1425
      00FF2696H   LINE      ---      ---       #1427
      00FF269AH   LINE      ---      ---       #1428
      00FF269CH   LINE      ---      ---       #1430
      00FF26BBH   LINE      ---      ---       #1435
      00FF26BFH   LINE      ---      ---       #1436
      00FF26C1H   LINE      ---      ---       #1438
      00FF26C5H   LINE      ---      ---       #1440
      00FF26C5H   LINE      ---      ---       #1441
      00FF26C7H   LINE      ---      ---       #1444
      00FF26CAH   LINE      ---      ---       #1446
      00FF26D0H   LINE      ---      ---       #1447
      00FF26D6H   LINE      ---      ---       #1449
L251 LINKER/LOCATER V4.66.93.0                                                        07/01/2025  14:01:01  PAGE 129


      00FF26DAH   LINE      ---      ---       #1453
      00FF26DDH   LINE      ---      ---       #1456
      00FF26E7H   LINE      ---      ---       #1458
      00FF26EBH   LINE      ---      ---       #1459
      00FF26EDH   LINE      ---      ---       #1461
      00FF270CH   LINE      ---      ---       #1466
      00FF2710H   LINE      ---      ---       #1467
      00FF2712H   LINE      ---      ---       #1469
      00FF2718H   LINE      ---      ---       #1470
      00FF2718H   LINE      ---      ---       #1471
      00FF2718H   LINE      ---      ---       #1473
      00FF2718H   LINE      CODE     ---       #1473
      ---         BLOCKEND  CODE     ---       LVL=0

      00FF37B5H   BLOCK     CODE     ---       LVL=0
      00FF37B5H   LINE      ---      ---       #1476
      00FF37B5H   LINE      ---      ---       #1479
      00FF37BBH   LINE      ---      ---       #1482
      00FF37C1H   LINE      ---      ---       #1484
      00FF37C6H   LINE      ---      ---       #1485
      00FF37CCH   LINE      ---      ---       #1486
      00FF37CCH   LINE      ---      ---       #1489
      ---         BLOCKEND  ---      ---       LVL=0

      00FFA6C3H   BLOCK     CODE     ---       LVL=0
      00FFA6C3H   LINE      ---      ---       #1494
      00FFA6C3H   LINE      ---      ---       #1496
      ---         BLOCKEND  ---      ---       LVL=0

      00FFA07CH   BLOCK     CODE     ---       LVL=0
      00FFA07CH   LINE      ---      ---       #1498
      00FFA07EH   LINE      ---      ---       #1499
      00FFA07EH   BLOCK     CODE     NEAR LAB  LVL=1
      00FFA07EH   LINE      ---      ---       #1505
      00FFA08CH   LINE      ---      ---       #1507
      00FFA09AH   LINE      ---      ---       #1509
      00FFA09AH   LINE      ---      ---       #1510
      00FFA09AH   LINE      ---      ---       #1512
      00FFA0AEH   LINE      ---      ---       #1514
      00FFA0AEH   LINE      ---      ---       #1515
      00FFA0AEH   LINE      ---      ---       #1518
      00FFA0B1H   LINE      ---      ---       #1519
      00FFA0B4H   LINE      ---      ---       #1547
      0000B474H   SYMBOL    EDATA    LONG      rx_time_letf
      00FFA0B4H   BLOCK     CODE     NEAR LAB  LVL=2
      00FFA0B4H   LINE      ---      ---       #1549
      00FFA0BCH   LINE      ---      ---       #1550
      00FFA0C4H   LINE      ---      ---       #1551
      00FFA0CCH   LINE      ---      ---       #1552
      00FFA0D4H   LINE      ---      ---       #1553
      0000B478H   SYMBOL    EDATA    ---       cb
      ---         BLOCKEND  CODE     ---       LVL=2
      00FFA0DBH   BLOCK     CODE     NEAR LAB  LVL=2
      00FFA0DBH   LINE      ---      ---       #1554
      00FFA0DBH   LINE      ---      ---       #1563
      0000B478H   SYMBOL    EDATA    ---       rxScanCfg
      R15         REGSYM    ---      BYTE      channelTmp
      ---         BLOCKEND  CODE     ---       LVL=2
      00FFA0DBH   LINE      ---      ---       #1567
      00FFA0EBH   LINE      ---      ---       #1569
      00FFA0EDH   LINE      ---      ---       #1571
      00FFA105H   LINE      ---      ---       #1572
      00FFA10CH   LINE      ---      ---       #1573
      00FFA112H   LINE      ---      ---       #1574
      00FFA11AH   LINE      ---      ---       #1575
L251 LINKER/LOCATER V4.66.93.0                                                        07/01/2025  14:01:01  PAGE 130


      00FFA12BH   LINE      ---      ---       #1576
      00FFA135H   LINE      ---      ---       #1577
      00FFA145H   LINE      ---      ---       #1578
      00FFA156H   LINE      ---      ---       #1579
      00FFA160H   LINE      ---      ---       #1580
      00FFA173H   LINE      ---      ---       #1581
      00FFA179H   LINE      ---      ---       #1582
      00FFA17EH   LINE      ---      ---       #1583
      00FFA17EH   LINE      CODE     ---       #1583
      ---         BLOCKEND  CODE     ---       LVL=0

      00FF3502H   BLOCK     CODE     ---       LVL=0
      00FF3502H   LINE      ---      ---       #1717
      00FF3502H   LINE      ---      ---       #1718
      00FF3502H   BLOCK     CODE     NEAR LAB  LVL=1
      00FF3502H   LINE      ---      ---       #1719
      00FF3502H   LINE      ---      ---       #1731
      00FF350EH   LINE      ---      ---       #1733
      00FF350EH   LINE      ---      ---       #1735
      00FF3518H   LINE      ---      ---       #1737
      00FF351BH   LINE      ---      ---       #1740
      00FF351DH   LINE      ---      ---       #1741
      00FF3520H   LINE      ---      ---       #1742
      00FF3522H   LINE      ---      ---       #1743
      00FF3529H   LINE      ---      ---       #1765
      00FF352CH   LINE      ---      ---       #1767
      00FF352EH   LINE      ---      ---       #1768
      00FF3535H   LINE      ---      ---       #1770
      00FF3540H   LINE      ---      ---       #1771
      00FF3542H   LINE      ---      ---       #1772
      00FF3542H   LINE      ---      ---       #1784
      00FF3542H   LINE      ---      ---       #1787
      00FF3544H   LINE      ---      ---       #1797
      00FF354AH   LINE      ---      ---       #1799
      00FF354DH   LINE      ---      ---       #1814
      00FF354FH   LINE      ---      ---       #1826
      00FF3553H   LINE      ---      ---       #1827
      00FF3555H   LINE      ---      ---       #1828
      00FF355BH   LINE      ---      ---       #1830
      00FF355EH   LINE      ---      ---       #1832
      00FF3568H   LINE      ---      ---       #1834
      00FF356BH   LINE      ---      ---       #1835
      00FF356CH   LINE      ---      ---       #1836
      00FF356CH   LINE      ---      ---       #1838
      00FF3576H   LINE      ---      ---       #1840
      00FF3579H   LINE      ---      ---       #1841
      00FF357DH   LINE      ---      ---       #1842
      00FF357FH   LINE      ---      ---       #1843
      00FF357FH   LINE      ---      ---       #1845
      00FF3585H   LINE      ---      ---       #1847
      00FF358EH   LINE      ---      ---       #1848
      00FF358EH   LINE      ---      ---       #1850
      00FF3596H   LINE      ---      ---       #1851
      WR6         REGSYM    ---      WORD      macFunEventQueue
      0000B6A8H   SYMBOL    EDATA    BYTE      result
      ---         BLOCKEND  CODE     ---       LVL=1
      ---         BLOCKEND  CODE     ---       LVL=0

      00FFA6C4H   BLOCK     CODE     ---       LVL=0
      00FFA6C4H   LINE      ---      ---       #1895
      00FFA6C4H   LINE      ---      ---       #1896
      00FFA6C4H   BLOCK     CODE     NEAR LAB  LVL=1
      00FFA6C4H   LINE      ---      ---       #1897
      00FFA6C4H   LINE      ---      ---       #1899
      00FFA6C7H   LINE      ---      ---       #1900
L251 LINKER/LOCATER V4.66.93.0                                                        07/01/2025  14:01:01  PAGE 131


      00FFA6E5H   LINE      ---      ---       #1902
      00FFA6E5H   LINE      ---      ---       #1903
      00FFA6E5H   LINE      ---      ---       #1905
      00FFA6E8H   LINE      ---      ---       #1910
      00FFA6ECH   LINE      ---      ---       #1911
      00FFA6EEH   LINE      ---      ---       #1912
      00FFA6EEH   LINE      ---      ---       #1914
      00FFA6F1H   LINE      ---      ---       #1920
      00FFA6FDH   LINE      ---      ---       #1921
      00FFA6FFH   LINE      ---      ---       #1923
      00FFA703H   LINE      ---      ---       #1924
      00FFA705H   LINE      ---      ---       #1925
      00FFA705H   LINE      ---      ---       #1926
      00FFA709H   LINE      ---      ---       #1927
      00FFA70BH   LINE      ---      ---       #1928
      00FFA70BH   LINE      ---      ---       #1929
      00FFA70BH   LINE      ---      ---       #1930
      00FFA713H   LINE      ---      ---       #1931
      00FFA715H   LINE      ---      ---       #1932
      00FFA715H   LINE      ---      ---       #1933
      00FFA718H   LINE      ---      ---       #1934
      00FFA718H   LINE      ---      ---       #1935
      00FFA718H   LINE      ---      ---       #1936
      WR6         REGSYM    ---      WORD      macFunEventQueue
      ---         BLOCKEND  CODE     ---       LVL=1
      ---         BLOCKEND  CODE     ---       LVL=0

      00FFA75BH   BLOCK     CODE     ---       LVL=0
      00FFA75BH   LINE      ---      ---       #1940
      00FFA75BH   LINE      ---      ---       #1941
      00FFA75BH   BLOCK     CODE     NEAR LAB  LVL=1
      00FFA75BH   LINE      ---      ---       #1959
      00FFA75EH   LINE      ---      ---       #1960
      00FFA764H   LINE      ---      ---       #1962
      00FFA767H   LINE      ---      ---       #1963
      00FFA76AH   LINE      ---      ---       #1970
      00FFA76DH   LINE      ---      ---       #1973
      00FFA777H   LINE      ---      ---       #1975
      00FFA77FH   LINE      ---      ---       #1977
      00FFA783H   LINE      ---      ---       #1983
      00FFA783H   LINE      ---      ---       #1985
      00FFA78BH   LINE      ---      ---       #1986
      WR6         REGSYM    ---      WORD      macFunEventQueue
      ---         BLOCKEND  CODE     ---       LVL=1
      ---         BLOCKEND  CODE     ---       LVL=0

      00FFA78CH   BLOCK     CODE     ---       LVL=0
      00FFA78CH   LINE      ---      ---       #1990
      00FFA78CH   LINE      ---      ---       #2021
      ---         BLOCKEND  ---      ---       LVL=0

      00FFA78DH   BLOCK     CODE     ---       LVL=0
      00FFA78DH   LINE      ---      ---       #2023
      00FFA78DH   LINE      ---      ---       #2025
      00FFA790H   LINE      ---      ---       #2026
      00FFA793H   LINE      ---      ---       #2034
      00FFA796H   LINE      ---      ---       #2039
      00FFA79CH   LINE      ---      ---       #2041
      00FFA7A2H   LINE      ---      ---       #2042
      00FFA7A8H   LINE      ---      ---       #2043
      00FFA7B7H   LINE      ---      ---       #2044
      00FFA7C9H   LINE      ---      ---       #2045
      00FFA7D3H   LINE      ---      ---       #2046
      00FFA7D3H   LINE      ---      ---       #2048
      00FFA7D9H   LINE      ---      ---       #2050
L251 LINKER/LOCATER V4.66.93.0                                                        07/01/2025  14:01:01  PAGE 132


      00FFA7DFH   LINE      ---      ---       #2051
      00FFA7E4H   LINE      ---      ---       #2052
      00FFA7E4H   LINE      ---      ---       #2055
      00FFA7E7H   LINE      ---      ---       #2066
      00FFA7ECH   LINE      ---      ---       #2069
      ---         BLOCKEND  ---      ---       LVL=0

      00FFA7EDH   BLOCK     CODE     ---       LVL=0
      00FFA7EDH   LINE      ---      ---       #2071
      00FFA7EDH   LINE      ---      ---       #2073
      ---         BLOCKEND  ---      ---       LVL=0

      00FF9092H   BLOCK     CODE     ---       LVL=0
      00FF9092H   LINE      ---      ---       #2075
      00FF9092H   LINE      ---      ---       #2078
      00FF9099H   LINE      ---      ---       #2080
      00FF9099H   LINE      ---      ---       #2081
      00FF9099H   LINE      ---      ---       #2086
      00FF90A5H   LINE      ---      ---       #2087
      ---         BLOCKEND  ---      ---       LVL=0

      00FFA7EEH   BLOCK     CODE     ---       LVL=0
      00FFA7EEH   LINE      ---      ---       #2091
      00FFA7EEH   LINE      ---      ---       #2093
      00FFA7F5H   LINE      ---      ---       #2095
      00FFA803H   LINE      ---      ---       #2100
      00FFA80AH   LINE      ---      ---       #2101
      ---         BLOCKEND  ---      ---       LVL=0

      00FF966AH   BLOCK     CODE     ---       LVL=0
      00FF966AH   LINE      ---      ---       #2119
      00FF966AH   LINE      ---      ---       #2131
      00FF967AH   LINE      ---      ---       #2136
      00FF9681H   LINE      ---      ---       #2140
      00FF9687H   LINE      ---      ---       #2141
      00FF968BH   LINE      ---      ---       #2145
      00FF968DH   LINE      ---      ---       #2148
      00FF9693H   LINE      ---      ---       #2155
      00FF9696H   LINE      ---      ---       #2172
      00FF9696H   LINE      ---      ---       #2176
      00FF969FH   LINE      ---      ---       #2177
      00FF969FH   LINE      ---      ---       #2178
      ---         BLOCKEND  ---      ---       LVL=0
      00FFA17EH   LINE      ---      ---       #1587
      00FFA183H   LINE      ---      ---       #1589
      00FFA186H   LINE      ---      ---       #1592
      00FFA186H   LINE      ---      ---       #1594
      00FFA190H   LINE      ---      ---       #1596
      00FFA193H   LINE      ---      ---       #1597
      00FFA196H   LINE      ---      ---       #1598
      00FFA198H   LINE      ---      ---       #1599
      00FFA198H   LINE      ---      ---       #1602
      00FFA19EH   LINE      ---      ---       #1605
      00FFA1A6H   LINE      ---      ---       #1607
      00FFA1ACH   LINE      ---      ---       #1609
      00FFA1B2H   LINE      ---      ---       #1610
      00FFA1B6H   LINE      ---      ---       #1611
      00FFA1B8H   LINE      ---      ---       #1612
      00FFA1BAH   LINE      ---      ---       #1615
      00FFA1C3H   LINE      ---      ---       #1616
      00FFA1C3H   LINE      ---      ---       #1617
      00FFA1C5H   LINE      ---      ---       #1618
      00FFA1D0H   LINE      ---      ---       #1620
      00FFA1D5H   LINE      ---      ---       #1621
      00FFA1D8H   LINE      ---      ---       #1622
L251 LINKER/LOCATER V4.66.93.0                                                        07/01/2025  14:01:01  PAGE 133


      00FFA1D8H   LINE      ---      ---       #1626
      00FFA1E0H   LINE      ---      ---       #1628
      00FFA1F0H   LINE      ---      ---       #1631
      00FFA1F6H   LINE      ---      ---       #1633
      00FFA20BH   LINE      ---      ---       #1635
      00FFA211H   LINE      ---      ---       #1637
      00FFA211H   LINE      ---      ---       #1638
      00FFA213H   LINE      ---      ---       #1641
      00FFA213H   LINE      ---      ---       #1642
      00FFA213H   LINE      ---      ---       #1643
      00FFA215H   LINE      ---      ---       #1644
      00FFA215H   LINE      ---      ---       #1645
      00FFA215H   LINE      ---      ---       #1647
      00FFA21BH   LINE      ---      ---       #1649
      00FFA223H   LINE      ---      ---       #1651
      00FFA232H   LINE      ---      ---       #1652
      00FFA23AH   LINE      ---      ---       #1653
      00FFA23CH   LINE      ---      ---       #1656
      00FFA24BH   LINE      ---      ---       #1657
      00FFA251H   LINE      ---      ---       #1659
      00FFA259H   LINE      ---      ---       #1660
      00FFA25BH   LINE      ---      ---       #1663
      00FFA25EH   LINE      ---      ---       #1664
      00FFA25EH   LINE      ---      ---       #1665
      00FFA260H   LINE      ---      ---       #1666
      00FFA260H   LINE      ---      ---       #1667
      00FFA260H   LINE      ---      ---       #1668
      00FFA260H   LINE      ---      ---       #1672
      00FFA264H   LINE      ---      ---       #1673
      00FFA266H   LINE      ---      ---       #1674
      00FFA26CH   LINE      ---      ---       #1676
      00FFA26FH   LINE      ---      ---       #1677
      00FFA273H   LINE      ---      ---       #1678
      00FFA275H   LINE      ---      ---       #1679
      00FFA275H   LINE      ---      ---       #1684
      00FFA281H   LINE      ---      ---       #1686
      00FFA284H   LINE      ---      ---       #1687
      00FFA286H   LINE      ---      ---       #1690
      00FFA28FH   LINE      ---      ---       #1691
      00FFA28FH   LINE      ---      ---       #1698
      00FFA28FH   LINE      ---      ---       #1699
      00FFA291H   LINE      ---      ---       #1703
      00FFA29DH   LINE      ---      ---       #1704
      00FFA2A1H   LINE      ---      ---       #1706
      00FFA2A4H   LINE      ---      ---       #1710
      00FFA2A4H   LINE      ---      ---       #1712
      00FFA2B0H   LINE      ---      ---       #1714
      00FFA2B8H   LINE      ---      ---       #1715
      00FF2719H   LINE      ---      ---       #1474
      00FF2CBBH   LINE      ---      ---       #686

      ---         MODULE    ---      ---       mac_TarSchedule
      00FFAB72H   PUBLIC    CODE     ---       mac_Tar_SchInitHdlr
      00FF6BE8H   PUBLIC    CODE     ---       mac_Tar_SchConfigHdlr
      00FF6DEDH   PUBLIC    CODE     ---       mac_Tar_SchWaitCCADoneHdlr
      00FFAB73H   PUBLIC    CODE     ---       mac_Tar_SchWaitTxDoneHdlr
      00FFAC1BH   PUBLIC    CODE     ---       mac_Tar_SchWaitAckRxMHRHdlr
      00FF2176H   PUBLIC    CODE     ---       mac_Tar_SchWaitAckRxDoneHdlr
      00FF6A49H   PUBLIC    CODE     ---       mac_Tar_SchWaitNormalRxMsgHdlr
      00FFAC6EH   PUBLIC    CODE     ---       mac_Tar_SchWaitNormalAckDoneHdlr
      00FFACABH   PUBLIC    CODE     ---       mac_Tar_SchEndHdlr
      00FFACDBH   PUBLIC    CODE     ---       mac_Tar_SchReservedHdlr
      00FF90A6H   PUBLIC    CODE     ---       MAC_TarSchedule
      00FF47EFH   PUBLIC    CODE     ---       MAC_TarParInit
      00FF69ACH   PUBLIC    CODE     ---       MacTxFreeBmuData
L251 LINKER/LOCATER V4.66.93.0                                                        07/01/2025  14:01:01  PAGE 134


      00FF4047H   PUBLIC    CODE     ---       Mac_TxGetBmuData
      00FFACDCH   PUBLIC    CODE     ---       mac_org_tx_done_handler
      00FFACE3H   PUBLIC    CODE     ---       mac_org_cca_done_handler
      00FF8224H   PUBLIC    CODE     ---       MAC_TxHwSet
      00FF2047H   PUBLIC    CODE     ---       MAC_RxHwSet
      00FF48F5H   PUBLIC    CODE     ---       MAC_BackoffTimeCal
      00FFACFCH   PUBLIC    CODE     ---       MAC_AckFrameCheck
      00FF69CFH   PUBLIC    CODE     ---       MAC_TxDoneEventGen
      00FF48C9H   PUBLIC    CODE     ---       INTERCOM_BackoffTimeCal
      00FF6B5CH   PUBLIC    CODE     ---       INTERCOM_MaxCCATimeCal
      00FF6FA5H   PUBLIC    CODE     ---       MAC_TxTaskSet
      00FFAE2AH   PUBLIC    CODE     ---       mac_tar_check_data_requst
      00FF827FH   PUBLIC    CODE     ---       MAC_SecLbHwSet
      00FF6F94H   PUBLIC    CODE     ---       MAC_TxStart
      00FF283EH   PUBLIC    CODE     ---       MAC_WaitforRxTaskReady
      00FF27CEH   PUBLIC    CODE     ---       MAC_CcaStart
      00FFAEE6H   PUBLIC    CODE     ---       MAC_CcaStatusGet
      00FF27CAH   PUBLIC    CODE     ---       mac_tar_cca_setup
      0000A000H   PUBLIC    EDATA    INT       gMacTarState
      0000A002H   PUBLIC    EDATA    ---       gMacTxPar
      0000A033H   PUBLIC    EDATA    ---       gMacRxPar
      0000A0B9H   PUBLIC    EDATA    ---       gMacHdr
      0000A0FCH   PUBLIC    EDATA    ---       gMacBuf
      0000A934H   PUBLIC    EDATA    ---       gPhyStatus
      0000A939H   PUBLIC    EDATA    BYTE      gRetransmissionCount
      0000A93AH   PUBLIC    EDATA    BYTE      gCsmacaRetry
      0000A93BH   PUBLIC    EDATA    BYTE      gBackoffExpIdx
      0000A93CH   PUBLIC    EDATA    ---       gTar_ScheHandler_Entry
      000000A8H.7 SFRSYM    DATA     BIT       EA
      00000080H   SFRSYM    DATA     BYTE      P0

      00FF8217H   BLOCK     CODE     ---       LVL=0
      00FF8224H   LINE      ---      ---       #94
      00FF8230H   LINE      ---      ---       #95
      00FF8217H   SYMBOL    CODE     NEAR LAB  ?L?COM0027
      R11         REGSYM    ---      BYTE      bLocalTxQueue
      R10         REGSYM    ---      BYTE      txQueueIdx
      0000B676H   SYMBOL    EDATA    INT       aesLv
      WR12        REGSYM    ---      WORD      aDataLen
      WR14        REGSYM    ---      WORD      mDataLen
      00FF8230H   BLOCK     CODE     NEAR LAB  LVL=1
      00FF8230H   LINE      ---      ---       #99
      00FF8232H   LINE      ---      ---       #101
      00FF8238H   LINE      ---      ---       #102
      00FF8239H   LINE      ---      ---       #103
      00FF823BH   LINE      ---      ---       #106
      00FF8247H   LINE      ---      ---       #108
      00FF824DH   LINE      ---      ---       #109
      00FF8251H   LINE      ---      ---       #112
      00FF825AH   LINE      ---      ---       #113
      00FF825AH   LINE      ---      ---       #122
      00FF8260H   LINE      ---      ---       #124
      00FF8263H   LINE      ---      ---       #125
      00FF8263H   LINE      ---      ---       #128
      00FF827AH   LINE      ---      ---       #136
      0000B678H   SYMBOL    EDATA    BYTE      retValue
      ---         BLOCKEND  CODE     ---       LVL=1
      00FF827CH   LINE      ---      ---       #137
      00FF827CH   LINE      CODE     ---       #137

      00FF2044H   BLOCK     CODE     ---       LVL=0
      00FF2047H   LINE      ---      ---       #139
      00FF204FH   LINE      ---      ---       #140
      00FF2044H   SYMBOL    CODE     NEAR LAB  ?L?COM003C
      R7          REGSYM    ---      BYTE      bLocalRxQueue
L251 LINKER/LOCATER V4.66.93.0                                                        07/01/2025  14:01:01  PAGE 135


      WR14        REGSYM    ---      INT       aesLv
      00FF204FH   BLOCK     CODE     NEAR LAB  LVL=1
      00FF204FH   LINE      ---      ---       #144
      00FF2053H   LINE      ---      ---       #146
      00FF205BH   LINE      ---      ---       #147
      00FF205CH   LINE      ---      ---       #148
      00FF205EH   LINE      ---      ---       #151
      00FF2064H   LINE      ---      ---       #153
      00FF206AH   LINE      ---      ---       #155
      00FF206CH   LINE      ---      ---       #160
      00FF2075H   LINE      ---      ---       #161
      00FF2075H   LINE      ---      ---       #169
      00FF2079H   LINE      ---      ---       #171
      00FF207CH   LINE      ---      ---       #172
      00FF207CH   LINE      ---      ---       #175
      00FF2081H   LINE      ---      ---       #179
      00FF2098H   LINE      ---      ---       #180
      00FF209AH   LINE      ---      ---       #185
      00FF20B9H   LINE      ---      ---       #186
      00FF20B9H   LINE      ---      ---       #194
      R13         REGSYM    ---      BYTE      retValue
      ---         BLOCKEND  CODE     ---       LVL=1
      00FF20BBH   LINE      ---      ---       #195
      00FF20BBH   LINE      CODE     ---       #195

      00FF48F5H   BLOCK     CODE     ---       LVL=0
      00FF48F5H   LINE      ---      ---       #198
      00FF48F9H   LINE      ---      ---       #199
      REG=7       REGSYM    ---      ---       backoffDuration
      00FF48F9H   BLOCK     CODE     NEAR LAB  LVL=1
      00FF48F9H   LINE      ---      ---       #202
      00FF48FFH   LINE      ---      ---       #203
      00FF4914H   LINE      ---      ---       #204
      0000B6A9H   SYMBOL    EDATA    BYTE      randValue
      R7          REGSYM    ---      BYTE      backoffExp
      ---         BLOCKEND  CODE     ---       LVL=1
      00FF4926H   LINE      ---      ---       #205
      00FF4926H   LINE      CODE     ---       #205

      00FFACFCH   BLOCK     CODE     ---       LVL=0
      00FFACFCH   LINE      ---      ---       #210
      00FFACFEH   LINE      ---      ---       #211
      R5          REGSYM    ---      BYTE      dsn
      00FFACFEH   BLOCK     CODE     NEAR LAB  LVL=1
      00FFACFEH   LINE      ---      ---       #212
      00FFAD00H   LINE      ---      ---       #216
      00FFAD02H   LINE      ---      ---       #221
      00FFAD04H   LINE      ---      ---       #223
      00FFAD0BH   LINE      ---      ---       #224
      00FFAD11H   LINE      ---      ---       #228
      00FFAD1CH   LINE      ---      ---       #230
      00FFAD22H   LINE      ---      ---       #232
      00FFAD25H   LINE      ---      ---       #233
      00FFAD25H   LINE      ---      ---       #235
      00FFAD38H   LINE      ---      ---       #238
      00FFAD3EH   LINE      ---      ---       #240
      00FFAD40H   LINE      ---      ---       #242
      00FFAD65H   LINE      ---      ---       #244
      00FFAD6DH   LINE      ---      ---       #245
      00FFAD70H   LINE      ---      ---       #246
      00FFAD76H   LINE      ---      ---       #248
      00FFAD7AH   LINE      ---      ---       #250
      00FFAD7DH   LINE      ---      ---       #251
      00FFAD7FH   LINE      ---      ---       #252
      00FFAD7FH   LINE      ---      ---       #256
L251 LINKER/LOCATER V4.66.93.0                                                        07/01/2025  14:01:01  PAGE 136


      00FFAD81H   LINE      ---      ---       #258
      00FFAD98H   LINE      ---      ---       #259
      00FFADA0H   LINE      ---      ---       #260
      00FFADA6H   LINE      ---      ---       #261
      00FFADA6H   LINE      ---      ---       #263
      00FFADAFH   LINE      ---      ---       #265
      00FFADB6H   LINE      ---      ---       #267
      00FFADB8H   LINE      ---      ---       #268
      00FFADBAH   LINE      ---      ---       #270
      00FFADD0H   LINE      ---      ---       #271
      00FFADD3H   LINE      ---      ---       #272
      00FFADD9H   LINE      ---      ---       #273
      00FFADDDH   LINE      ---      ---       #275
      00FFADE0H   LINE      ---      ---       #276
      00FFADE2H   LINE      ---      ---       #277
      00FFADE4H   LINE      ---      ---       #281
      00FFADE6H   LINE      ---      ---       #282
      00FFADE8H   LINE      ---      ---       #284
      00FFAE15H   LINE      ---      ---       #286
      00FFAE18H   LINE      ---      ---       #287
      00FFAE1EH   LINE      ---      ---       #288
      00FFAE22H   LINE      ---      ---       #290
      00FFAE25H   LINE      ---      ---       #291
      00FFAE27H   LINE      ---      ---       #292
      00FFAE27H   LINE      ---      ---       #294
      00FFAE27H   LINE      ---      ---       #325
      00FFAE27H   LINE      ---      ---       #326
      R4          REGSYM    ---      BYTE      retValue
      R6          REGSYM    ---      BYTE      i
      R7          REGSYM    ---      BYTE      match_found
      0000B690H   SYMBOL    EDATA    ---       is_pan_num
      ---         BLOCKEND  CODE     ---       LVL=1
      00FFAE29H   LINE      ---      ---       #327
      00FFAE29H   LINE      CODE     ---       #327

      00FF69C4H   BLOCK     CODE     ---       LVL=0
      00FF69CFH   LINE      ---      ---       #331
      00FF69D3H   LINE      ---      ---       #332
      00FF69C4H   SYMBOL    CODE     NEAR LAB  ?L?COM0001
      R15         REGSYM    ---      BYTE      txState
      R7          REGSYM    ---      BYTE      localTxQueue
      R6          REGSYM    ---      BYTE      txQueueIdx
      00FF69D3H   BLOCK     CODE     NEAR LAB  LVL=1
      00FF69D3H   LINE      ---      ---       #334
      00FF69D3H   LINE      ---      ---       #335
      00FF69D6H   LINE      ---      ---       #337
      00FF69DAH   LINE      ---      ---       #339
      00FF69DEH   LINE      ---      ---       #340
      00FF69E0H   LINE      ---      ---       #343
      00FF69E8H   LINE      ---      ---       #344
      00FF69E8H   LINE      ---      ---       #347
      00FF6A01H   LINE      ---      ---       #349
      00FF6A01H   LINE      ---      ---       #350
      00FF6A0AH   LINE      ---      ---       #351
      00FF6A0CH   LINE      ---      ---       #352
      00FF6A0CH   LINE      ---      ---       #353
      00FF6A15H   LINE      ---      ---       #354
      00FF6A17H   LINE      ---      ---       #355
      00FF6A17H   LINE      ---      ---       #356
      00FF6A20H   LINE      ---      ---       #357
      00FF6A22H   LINE      ---      ---       #358
      00FF6A22H   LINE      ---      ---       #359
      00FF6A2BH   LINE      ---      ---       #360
      00FF6A2DH   LINE      ---      ---       #361
      00FF6A2DH   LINE      ---      ---       #362
L251 LINKER/LOCATER V4.66.93.0                                                        07/01/2025  14:01:01  PAGE 137


      00FF6A39H   LINE      ---      ---       #363
      00FF6A39H   LINE      ---      ---       #365
      00FF6A39H   LINE      ---      ---       #367
      00FF6A42H   LINE      ---      ---       #371
      00FF6A44H   LINE      ---      ---       #374
      R14         REGSYM    ---      BYTE      retValue
      ---         BLOCKEND  CODE     ---       LVL=1
      00FF6A46H   LINE      ---      ---       #375
      00FF6A46H   LINE      CODE     ---       #375

      00FF48C9H   BLOCK     CODE     ---       LVL=0
      00FF48C9H   LINE      ---      ---       #378
      00FF48CDH   LINE      ---      ---       #379
      REG=7       REGSYM    ---      ---       backoffDuration
      00FF48CDH   BLOCK     CODE     NEAR LAB  LVL=1
      00FF48CDH   LINE      ---      ---       #381
      00FF48D3H   LINE      ---      ---       #382
      00FF48D6H   LINE      ---      ---       #383
      00FF48E0H   LINE      ---      ---       #384
      00FF48E3H   LINE      ---      ---       #388
      0000B6AAH   SYMBOL    EDATA    BYTE      randValue
      ---         BLOCKEND  CODE     ---       LVL=1
      00FF48F2H   LINE      ---      ---       #390
      00FF48F2H   LINE      CODE     ---       #390

      00FF6B5CH   BLOCK     CODE     ---       LVL=0
      00FF6B5CH   LINE      ---      ---       #392
      00FF6B5CH   LINE      ---      ---       #393
      00FF6B5CH   BLOCK     CODE     NEAR LAB  LVL=1
      00FF6B5CH   LINE      ---      ---       #396
      00FF6B6FH   LINE      ---      ---       #400
      00FF6B80H   LINE      ---      ---       #402
      00FF6B96H   LINE      ---      ---       #404
      00FF6B9DH   LINE      ---      ---       #410
      00FF6BA5H   LINE      ---      ---       #415
      00FF6BA7H   LINE      ---      ---       #416
      00FF6BAFH   LINE      ---      ---       #421
      00FF6BBBH   LINE      ---      ---       #423
      00FF6BBBH   LINE      ---      ---       #424
      00FF6BC5H   LINE      ---      ---       #427
      00FF6BC9H   LINE      ---      ---       #435
      00FF6BCCH   LINE      ---      ---       #436
      00FF6BCCH   LINE      ---      ---       #439
      00FF6BCFH   LINE      ---      ---       #440
      00FF6BD7H   LINE      ---      ---       #442
      00FF6BD9H   LINE      ---      ---       #443
      00FF6BD9H   LINE      ---      ---       #447
      00FF6BE5H   LINE      ---      ---       #448
      00FF6BE7H   LINE      ---      ---       #449
      0000B64DH   SYMBOL    EDATA    ---       ihr
      ---         BLOCKEND  CODE     ---       LVL=1
      00FF6BE7H   LINE      ---      ---       #450
      00FF6BE7H   LINE      CODE     ---       #450

      00FF6FA5H   BLOCK     CODE     ---       LVL=0
      00FF6FA5H   LINE      ---      ---       #453
      00FF6FB1H   LINE      ---      ---       #455
      00FF6FB7H   LINE      ---      ---       #458
      00FF6FBEH   LINE      ---      ---       #461
      00FF6FC7H   LINE      ---      ---       #470
      00FF6FC9H   LINE      ---      ---       #474
      00FF6FD0H   LINE      ---      ---       #475
      00FF6FD0H   LINE      ---      ---       #476
      0000B679H   SYMBOL    EDATA    BYTE      ackRequest
      0000B67AH   SYMBOL    EDATA    WORD      interFrameSpace
L251 LINKER/LOCATER V4.66.93.0                                                        07/01/2025  14:01:01  PAGE 138


      DR12        REGSYM    ---      DWORD     ackWaitDuration
      ---         BLOCKEND  ---      ---       LVL=0

      00FFAE2AH   BLOCK     CODE     ---       LVL=0
      00FFAE2AH   LINE      ---      ---       #479
      00FFAE2EH   LINE      ---      ---       #480
      R10         REGSYM    ---      BYTE      qId
      00FFAE2EH   BLOCK     CODE     NEAR LAB  LVL=1
      00FFAE2EH   LINE      ---      ---       #482
      00FFAE31H   LINE      ---      ---       #484
      00FFAE37H   LINE      ---      ---       #485
      00FFAE43H   LINE      ---      ---       #487
      00FFAE54H   LINE      ---      ---       #489
      00FFAE61H   LINE      ---      ---       #490
      00FFAE6BH   LINE      ---      ---       #492
      00FFAE78H   LINE      ---      ---       #493
      00FFAE7BH   LINE      ---      ---       #494
      00FFAE7BH   LINE      ---      ---       #496
      00FFAE7FH   LINE      ---      ---       #497
      00FFAE82H   LINE      ---      ---       #498
      00FFAE88H   LINE      ---      ---       #499
      00FFAE8BH   LINE      ---      ---       #500
      00FFAE8BH   LINE      ---      ---       #502
      00FFAE8FH   LINE      ---      ---       #503
      00FFAE94H   LINE      ---      ---       #504
      00FFAE96H   LINE      ---      ---       #505
      00FFAE98H   LINE      ---      ---       #506
      00FFAE9AH   LINE      ---      ---       #507
      00FFAE9AH   LINE      ---      ---       #508
      00FFAEA0H   LINE      ---      ---       #509
      00FFAEA5H   LINE      ---      ---       #510
      00FFAEA8H   LINE      ---      ---       #511
      00FFAEAAH   LINE      ---      ---       #512
      00FFAEADH   LINE      ---      ---       #513
      00FFAEADH   LINE      ---      ---       #514
      00FFAEADH   LINE      ---      ---       #517
      00FFAEB2H   LINE      ---      ---       #518
      00FFAEC7H   LINE      ---      ---       #520
      00FFAEC7H   LINE      ---      ---       #521
      00FFAEC7H   LINE      ---      ---       #522
      00FFAEC7H   LINE      ---      ---       #523
      00FFAEC9H   LINE      ---      ---       #524
      00FFAECBH   LINE      ---      ---       #525
      00FFAECBH   LINE      ---      ---       #526
      00FFAECDH   LINE      ---      ---       #527
      00FFAECFH   LINE      ---      ---       #528
      00FFAECFH   LINE      ---      ---       #529
      00FFAED2H   LINE      ---      ---       #530
      00FFAED2H   LINE      ---      ---       #531
      00FFAED2H   LINE      ---      ---       #532
      00FFAED2H   LINE      ---      ---       #533
      00FFAED2H   LINE      ---      ---       #534
      00FFAED5H   LINE      ---      ---       #535
      00FFAED5H   LINE      ---      ---       #538
      0000B367H   SYMBOL    EDATA    ---       mhr
      R15         REGSYM    ---      BYTE      offset
      R6          REGSYM    ---      BYTE      dest_mode
      R7          REGSYM    ---      BYTE      src_mode
      ---         BLOCKEND  CODE     ---       LVL=1
      00FFAEE3H   LINE      ---      ---       #539
      00FFAEE3H   LINE      CODE     ---       #539

      00FF827FH   BLOCK     CODE     ---       LVL=0
      00FF827FH   LINE      ---      ---       #543
      00FF828BH   LINE      ---      ---       #544
L251 LINKER/LOCATER V4.66.93.0                                                        07/01/2025  14:01:01  PAGE 139


      0000B651H   SYMBOL    EDATA    INT       aesLv
      0000B653H   SYMBOL    EDATA    WORD      aDataLen
      WR12        REGSYM    ---      WORD      mDataLen
      00FF828BH   BLOCK     CODE     NEAR LAB  LVL=1
      00FF828BH   LINE      ---      ---       #548
      00FF8292H   LINE      ---      ---       #549
      00FF829CH   LINE      ---      ---       #550
      00FF829EH   LINE      ---      ---       #553
      00FF82A6H   LINE      ---      ---       #554
      00FF82ADH   LINE      ---      ---       #558
      00FF82D7H   LINE      ---      ---       #559
      00FF82DBH   LINE      ---      ---       #560
      00FF82DBH   LINE      ---      ---       #562
      R15         REGSYM    ---      BYTE      retValue
      ---         BLOCKEND  CODE     ---       LVL=1
      00FF82DCH   LINE      ---      ---       #563
      00FF82DCH   LINE      CODE     ---       #563

      00FF6F94H   BLOCK     CODE     ---       LVL=0
      00FF6F94H   LINE      ---      ---       #566
      00FF6F94H   LINE      ---      ---       #568
      00FF6F97H   LINE      ---      ---       #585
      ---         BLOCKEND  ---      ---       LVL=0

      00FF283EH   BLOCK     CODE     ---       LVL=0
      00FF283EH   LINE      ---      ---       #589
      00FF283EH   LINE      ---      ---       #590
      00FF283EH   BLOCK     CODE     NEAR LAB  LVL=1
      00FF283EH   LINE      ---      ---       #594
      00FF283EH   LINE      ---      ---       #595
      00FF2848H   LINE      ---      ---       #597
      R10         REGSYM    ---      BYTE      rfStateTmp
      ---         BLOCKEND  CODE     ---       LVL=1
      00FF284DH   LINE      ---      ---       #599
      00FF284DH   LINE      CODE     ---       #599

      00FF27CEH   BLOCK     CODE     ---       LVL=0
      00FF27CEH   LINE      ---      ---       #602
      00FF27CEH   LINE      ---      ---       #603
      00FF27CEH   BLOCK     CODE     NEAR LAB  LVL=1
      00FF27CEH   LINE      ---      ---       #605
      00FF27D4H   LINE      ---      ---       #607
      00FF27D7H   LINE      ---      ---       #609
      00FF27DDH   LINE      ---      ---       #613
      00FF27E3H   LINE      ---      ---       #615
      00FF27EAH   LINE      ---      ---       #616
      00FF27ECH   LINE      ---      ---       #619
      00FF27F3H   LINE      ---      ---       #621
      00FF27FCH   LINE      ---      ---       #622
      00FF2814H   LINE      ---      ---       #625
      00FF2820H   LINE      ---      ---       #627
      00FF2830H   LINE      ---      ---       #629
      00FF2836H   LINE      ---      ---       #630
      00FF2836H   LINE      ---      ---       #633
      00FF283CH   LINE      ---      ---       #635
      DR0         REGSYM    ---      DWORD     ccaTime
      0000B655H   SYMBOL    EDATA    DWORD     backoffDuration
      ---         BLOCKEND  CODE     ---       LVL=1
      ---         BLOCKEND  CODE     ---       LVL=0

      00FFAEE6H   BLOCK     CODE     ---       LVL=0
      00FFAEE6H   LINE      ---      ---       #644
      00FFAEEAH   LINE      ---      ---       #645
      00FFAEEAH   BLOCK     CODE     NEAR LAB  LVL=1
      00FFAEEAH   LINE      ---      ---       #649
L251 LINKER/LOCATER V4.66.93.0                                                        07/01/2025  14:01:01  PAGE 140


      00FFAEECH   LINE      ---      ---       #650
      00FFAEEEH   LINE      ---      ---       #651
      00FFAEF0H   LINE      ---      ---       #653
      00FFAEF7H   LINE      ---      ---       #654
      00FFAF03H   LINE      ---      ---       #655
      00FFAF0BH   LINE      ---      ---       #656
      00FFAF12H   LINE      ---      ---       #657
      00FFAF1CH   LINE      ---      ---       #662
      00FFAF22H   LINE      ---      ---       #663
      00FFAF25H   LINE      ---      ---       #668
      00FFAF37H   LINE      ---      ---       #671
      00FFAF3AH   LINE      ---      ---       #672
      00FFAF3AH   LINE      ---      ---       #676
      00FFAF4BH   LINE      ---      ---       #678
      00FFAF4BH   LINE      ---      ---       #679
      00FFAF4DH   LINE      ---      ---       #680
      00FFAF4FH   LINE      ---      ---       #681
      00FFAF4FH   LINE      ---      ---       #682
      00FFAF51H   LINE      ---      ---       #683
      00FFAF53H   LINE      ---      ---       #684
      00FFAF53H   LINE      ---      ---       #685
      00FFAF57H   LINE      ---      ---       #686
      00FFAF59H   LINE      ---      ---       #687
      00FFAF59H   LINE      ---      ---       #688
      00FFAF5DH   LINE      ---      ---       #689
      00FFAF5DH   LINE      ---      ---       #690
      00FFAF5DH   LINE      ---      ---       #691
      R5          REGSYM    ---      CHAR      ibRssi
      R7          REGSYM    ---      BYTE      cpmputeRssi
      R4          REGSYM    ---      BYTE      lnaGain
      R7          REGSYM    ---      BYTE      tiaGain
      R6          REGSYM    ---      BYTE      vgaGain
      R13         REGSYM    ---      BYTE      edState
      R14         REGSYM    ---      BYTE      csState
      R15         REGSYM    ---      BYTE      ccaStatus
      ---         BLOCKEND  CODE     ---       LVL=1
      00FFAF5FH   LINE      ---      ---       #692
      00FFAF5FH   LINE      CODE     ---       #692

      00FF47EFH   BLOCK     CODE     ---       LVL=0
      00FF47EFH   LINE      ---      ---       #696
      00FF47EFH   LINE      ---      ---       #699
      00FF47F4H   LINE      ---      ---       #700
      00FF47F8H   LINE      ---      ---       #701
      ---         BLOCKEND  ---      ---       LVL=0

      00FF69ACH   BLOCK     CODE     ---       LVL=0
      00FF69ACH   LINE      ---      ---       #742
      00FF69ACH   LINE      ---      ---       #747
      00FF69B3H   LINE      ---      ---       #749
      00FF69B9H   LINE      ---      ---       #750
      00FF69BFH   LINE      ---      ---       #751
      00FF69C3H   LINE      ---      ---       #752
      ---         BLOCKEND  ---      ---       LVL=0

      00FF4047H   BLOCK     CODE     ---       LVL=0
      00FF4047H   LINE      ---      ---       #754
      00FF4047H   LINE      ---      ---       #755
      00FF4047H   BLOCK     CODE     NEAR LAB  LVL=1
      00FF4047H   LINE      ---      ---       #758
      00FF404FH   LINE      ---      ---       #759
      00FF4055H   LINE      ---      ---       #763
      00FF4055H   LINE      ---      ---       #765
      00FF4055H   LINE      ---      ---       #767
      00FF4057H   LINE      ---      ---       #768
L251 LINKER/LOCATER V4.66.93.0                                                        07/01/2025  14:01:01  PAGE 141


      00FF405DH   LINE      ---      ---       #769
      00FF406EH   LINE      ---      ---       #770
      00FF4074H   LINE      ---      ---       #774
      00FF408CH   LINE      ---      ---       #777
      00FF408EH   LINE      ---      ---       #778
      00FF4091H   LINE      ---      ---       #779
      00FF4093H   LINE      ---      ---       #780
      00FF4096H   LINE      ---      ---       #781
      00FF4097H   LINE      ---      ---       #782
      00FF4097H   LINE      ---      ---       #788
      00FF409AH   LINE      ---      ---       #793
      00FF409CH   LINE      ---      ---       #795
      00FF409CH   LINE      ---      ---       #801
      00FF40A1H   LINE      ---      ---       #805
      00FF40A4H   LINE      ---      ---       #806
      00FF40A4H   LINE      ---      ---       #808
      00FF40AFH   LINE      ---      ---       #810
      00FF40B2H   LINE      ---      ---       #811
      00FF40B7H   LINE      ---      ---       #812
      00FF40B9H   LINE      ---      ---       #813
      00FF40BAH   LINE      ---      ---       #814
      00FF40BAH   LINE      ---      ---       #817
      00FF40C5H   LINE      ---      ---       #819
      00FF40C7H   LINE      ---      ---       #821
      00FF40CAH   LINE      ---      ---       #822
      00FF40CDH   LINE      ---      ---       #824
      00FF40DBH   LINE      ---      ---       #828
      00FF40E1H   LINE      ---      ---       #831
      00FF40E9H   LINE      ---      ---       #834
      00FF40EBH   LINE      ---      ---       #835
      R10         REGSYM    ---      BYTE      raaState
      ---         BLOCKEND  CODE     ---       LVL=1
      ---         BLOCKEND  CODE     ---       LVL=0

      00FF27CAH   BLOCK     CODE     ---       LVL=0
      00FF27CAH   LINE      ---      ---       #840
      00FF27CAH   LINE      ---      ---       #843
      00FF27CCH   LINE      ---      ---       #854
      ---         BLOCKEND  ---      ---       LVL=0

      00FFAB72H   BLOCK     CODE     ---       LVL=0
      00FFAB72H   LINE      ---      ---       #866
      00FFAB72H   LINE      ---      ---       #868
      ---         BLOCKEND  ---      ---       LVL=0

      00FF6BE8H   BLOCK     CODE     ---       LVL=0
      00FF6BE8H   LINE      ---      ---       #870
      00FF6BE8H   LINE      ---      ---       #871
      00FF6BE8H   BLOCK     CODE     NEAR LAB  LVL=1
      00FF6BE8H   LINE      ---      ---       #883
      00FF6BEBH   LINE      ---      ---       #884
      00FF6BEEH   LINE      ---      ---       #887
      00FF6BF6H   LINE      ---      ---       #889
      00FF6BFBH   LINE      ---      ---       #890
      00FF6BFEH   LINE      ---      ---       #891
      00FF6C05H   LINE      ---      ---       #893
      00FF6C16H   LINE      ---      ---       #894
      00FF6C19H   LINE      ---      ---       #895
      00FF6C25H   LINE      ---      ---       #896
      00FF6C2FH   LINE      ---      ---       #897
      00FF6C37H   LINE      ---      ---       #898
      00FF6C4AH   LINE      ---      ---       #899
      00FF6C4CH   LINE      ---      ---       #902
      00FF6C61H   LINE      ---      ---       #904
      00FF6C68H   LINE      ---      ---       #905
L251 LINKER/LOCATER V4.66.93.0                                                        07/01/2025  14:01:01  PAGE 142


      00FF6C6BH   LINE      ---      ---       #906
      00FF6C6DH   LINE      ---      ---       #907
      00FF6C7DH   LINE      ---      ---       #909
      00FF6C80H   LINE      ---      ---       #910
      00FF6C81H   LINE      ---      ---       #911
      00FF6C81H   LINE      ---      ---       #913
      00FF6C83H   LINE      ---      ---       #915
      00FF6C86H   LINE      ---      ---       #916
      00FF6C92H   LINE      ---      ---       #918
      00FF6C92H   LINE      ---      ---       #919
      00FF6C95H   LINE      ---      ---       #920
      00FF6C95H   LINE      ---      ---       #939
      R11         REGSYM    ---      BYTE      channelTmp
      0000B595H   SYMBOL    EDATA    ---       delay_time
      00FF6DB9H   SYMBOL    CODE     NEAR LAB  DONE?1940
      00FF6C95H   BLOCK     CODE     NEAR LAB  LVL=2
      00FF6C95H   LINE      ---      ---       #941
      00FF6C9DH   LINE      ---      ---       #942
      00FF6CA5H   LINE      ---      ---       #943
      00FF6CADH   LINE      ---      ---       #944
      00FF6CB5H   LINE      ---      ---       #945
      0000B597H   SYMBOL    EDATA    ---       cb
      ---         BLOCKEND  CODE     ---       LVL=2
      00FF6CBBH   LINE      ---      ---       #946
      00FF6CBBH   LINE      ---      ---       #948
      00FF6CC6H   LINE      ---      ---       #950
      00FF6CC6H   LINE      ---      ---       #951
      00FF6CC6H   LINE      ---      ---       #954
      00FF6CCCH   LINE      ---      ---       #956
      00FF6CDDH   LINE      ---      ---       #957
      00FF6CEAH   LINE      ---      ---       #958
      00FF6CFAH   LINE      ---      ---       #959
      00FF6CFAH   LINE      ---      ---       #969
      00FF6D08H   LINE      ---      ---       #972
      00FF6D0EH   LINE      ---      ---       #977
      00FF6D11H   LINE      ---      ---       #978
      00FF6D11H   LINE      ---      ---       #980
      00FF6D11H   LINE      ---      ---       #981
      00FF6D13H   LINE      ---      ---       #985
      00FF6D19H   LINE      ---      ---       #995
      00FF6D1BH   LINE      ---      ---       #998
      00FF6D1DH   LINE      ---      ---       #1001
      00FF6D22H   LINE      ---      ---       #1005
      00FF6D25H   LINE      ---      ---       #1008
      00FF6D27H   LINE      ---      ---       #1011
      00FF6D2BH   LINE      ---      ---       #1012
      00FF6D2DH   LINE      ---      ---       #1016
      00FF6D34H   LINE      ---      ---       #1020
      00FF6D3AH   LINE      ---      ---       #1022
      00FF6D3EH   LINE      ---      ---       #1024
      00FF6D3EH   LINE      ---      ---       #1025
      00FF6D3EH   LINE      ---      ---       #1028
      00FF6D41H   LINE      ---      ---       #1031
      00FF6D46H   LINE      ---      ---       #1036
      00FF6D4AH   LINE      ---      ---       #1038
      00FF6D4CH   LINE      ---      ---       #1041
      00FF6D4CH   LINE      ---      ---       #1042
      00FF6D4FH   LINE      ---      ---       #1045
      00FF6D55H   LINE      ---      ---       #1050
      00FF6D58H   LINE      ---      ---       #1051
      00FF6D58H   LINE      ---      ---       #1053
      00FF6D60H   LINE      ---      ---       #1054
      00FF6D60H   LINE      ---      ---       #1057
      00FF6D4CH   SYMBOL    CODE     NEAR LAB  DONE?1940?mac_TarSchedule
      00FF6D4CH   SYMBOL    CODE     NEAR LAB  DONE?1940?mac_TarSchedule
L251 LINKER/LOCATER V4.66.93.0                                                        07/01/2025  14:01:01  PAGE 143


      ---         BLOCKEND  CODE     ---       LVL=0

      00FF6DEDH   BLOCK     CODE     ---       LVL=0
      00FF6DEDH   LINE      ---      ---       #1064
      00FF6DEFH   LINE      ---      ---       #1065
      00FF6DEFH   BLOCK     CODE     NEAR LAB  LVL=1
      00FF6DEFH   LINE      ---      ---       #1066
      00FF6DEFH   LINE      ---      ---       #1067
      00FF6DEFH   LINE      ---      ---       #1071
      00FF6DF1H   LINE      ---      ---       #1074
      00FF6DF6H   LINE      ---      ---       #1075
      00FF6DFEH   LINE      ---      ---       #1077
      00FF6E00H   LINE      ---      ---       #1081
      00FF6E10H   LINE      ---      ---       #1083
      00FF6E12H   LINE      ---      ---       #1085
      00FF6E18H   LINE      ---      ---       #1087
      00FF6E1BH   LINE      ---      ---       #1089
      00FF6E1EH   LINE      ---      ---       #1090
      00FF6E20H   LINE      ---      ---       #1091
      00FF6E20H   LINE      ---      ---       #1094
      00FF6E25H   LINE      ---      ---       #1095
      00FF6E2AH   LINE      ---      ---       #1097
      00FF6E2DH   LINE      ---      ---       #1099
      00FF6E33H   LINE      ---      ---       #1101
      00FF6E39H   LINE      ---      ---       #1103
      00FF6E39H   LINE      ---      ---       #1104
      00FF6E3BH   LINE      ---      ---       #1106
      00FF6E45H   LINE      ---      ---       #1112
      00FF6E4BH   LINE      ---      ---       #1121
      00FF6E4EH   LINE      ---      ---       #1122
      00FF6E4EH   LINE      ---      ---       #1125
      00FF6E4EH   LINE      ---      ---       #1126
      00FF6E4EH   LINE      ---      ---       #1127
      00FF6E50H   LINE      ---      ---       #1128
      00FF6E50H   LINE      ---      ---       #1130
      00FF6E53H   LINE      ---      ---       #1133
      00FF6E56H   LINE      ---      ---       #1136
      00FF6E5EH   LINE      ---      ---       #1138
      00FF6E67H   LINE      ---      ---       #1139
      00FF6E69H   LINE      ---      ---       #1140
      00FF6E6FH   LINE      ---      ---       #1142
      00FF6E72H   LINE      ---      ---       #1144
      00FF6E82H   LINE      ---      ---       #1146
      00FF6E95H   LINE      ---      ---       #1150
      00FF6EA6H   LINE      ---      ---       #1152
      00FF6EBCH   LINE      ---      ---       #1153
      00FF6EC5H   LINE      ---      ---       #1162
      00FF6ED3H   LINE      ---      ---       #1164
      00FF6EDBH   LINE      ---      ---       #1165
      00FF6EDDH   LINE      ---      ---       #1175
      00FF6EDDH   LINE      ---      ---       #1176
      00FF6EDDH   LINE      ---      ---       #1177
      00FF6EDFH   LINE      ---      ---       #1178
      00FF6EE9H   LINE      ---      ---       #1186
      00FF6EF7H   LINE      ---      ---       #1188
      00FF6F03H   LINE      ---      ---       #1189
      00FF6F05H   LINE      ---      ---       #1193
      00FF6F08H   LINE      ---      ---       #1194
      00FF6F08H   LINE      ---      ---       #1195
      00FF6F08H   LINE      ---      ---       #1197
      00FF6F0CH   LINE      ---      ---       #1199
      00FF6F10H   LINE      ---      ---       #1208
      00FF6F13H   LINE      ---      ---       #1209
      00FF6F13H   LINE      ---      ---       #1212
      00FF6F16H   LINE      ---      ---       #1213
L251 LINKER/LOCATER V4.66.93.0                                                        07/01/2025  14:01:01  PAGE 144


      00FF6F1AH   LINE      ---      ---       #1214
      00FF6F1CH   LINE      ---      ---       #1215
      00FF6F1CH   LINE      ---      ---       #1218
      00FF6F26H   LINE      ---      ---       #1219
      00FF6F2EH   LINE      ---      ---       #1220
      00FF6F41H   LINE      ---      ---       #1221
      00FF6F41H   LINE      ---      ---       #1222
      00FF6F41H   LINE      ---      ---       #1225
      00FF6F44H   LINE      ---      ---       #1226
      00FF6F46H   LINE      ---      ---       #1230
      00FF6F4BH   LINE      ---      ---       #1234
      00FF6F4EH   LINE      ---      ---       #1237
      00FF6F50H   LINE      ---      ---       #1239
      00FF6F58H   LINE      ---      ---       #1240
      00FF6F5DH   LINE      ---      ---       #1243
      00FF6F61H   LINE      ---      ---       #1244
      00FF6F63H   LINE      ---      ---       #1246
      00FF6F69H   LINE      ---      ---       #1248
      00FF6F6CH   LINE      ---      ---       #1249
      00FF6F6FH   LINE      ---      ---       #1252
      00FF6F75H   LINE      ---      ---       #1253
      00FF6F7EH   LINE      ---      ---       #1266
      00FF6F84H   LINE      ---      ---       #1267
      00FF6F89H   LINE      ---      ---       #1270
      00FF6F91H   LINE      ---      ---       #1272
      WR14        REGSYM    ---      WORD      macFunEventQueue
      R12         REGSYM    ---      BYTE      ccaStatus
      0000B622H   SYMBOL    EDATA    BYTE      checkCCADrop
      0000B623H   SYMBOL    EDATA    ---       ihr
      R13         REGSYM    ---      BYTE      drop_tx
      ---         BLOCKEND  CODE     ---       LVL=1
      ---         BLOCKEND  CODE     ---       LVL=0

      00FFAB73H   BLOCK     CODE     ---       LVL=0
      00FFAB73H   LINE      ---      ---       #1276
      00FFAB73H   LINE      ---      ---       #1277
      00FFAB73H   BLOCK     CODE     NEAR LAB  LVL=1
      00FFAB73H   LINE      ---      ---       #1289
      00FFAB76H   LINE      ---      ---       #1290
      00FFAB7EH   LINE      ---      ---       #1292
      00FFAB81H   LINE      ---      ---       #1293
      00FFAB84H   LINE      ---      ---       #1295
      00FFAB9CH   LINE      ---      ---       #1302
      00FFABA4H   LINE      ---      ---       #1304
      00FFABA7H   LINE      ---      ---       #1307
      00FFABA7H   LINE      ---      ---       #1310
      00FFABADH   LINE      ---      ---       #1312
      00FFABB1H   LINE      ---      ---       #1314
      00FFABB3H   LINE      ---      ---       #1318
      00FFABB6H   LINE      ---      ---       #1325
      00FFABBDH   LINE      ---      ---       #1326
      00FFABC0H   LINE      ---      ---       #1327
      00FFABC0H   LINE      ---      ---       #1329
      00FFABCCH   LINE      ---      ---       #1331
      00FFABD4H   LINE      ---      ---       #1332
      00FFABDDH   LINE      ---      ---       #1333
      00FFABDEH   LINE      ---      ---       #1334
      00FFABDEH   LINE      ---      ---       #1337
      00FFABE3H   LINE      ---      ---       #1338
      00FFABE3H   LINE      ---      ---       #1342
      00FFABFEH   LINE      ---      ---       #1346
      00FFAC01H   LINE      ---      ---       #1349
      00FFAC09H   LINE      ---      ---       #1350
      00FFAC09H   LINE      ---      ---       #1352
      00FFAC09H   LINE      ---      ---       #1353
L251 LINKER/LOCATER V4.66.93.0                                                        07/01/2025  14:01:01  PAGE 145


      00FFAC13H   LINE      ---      ---       #1355
      00FFAC1AH   LINE      ---      ---       #1360
      WR6         REGSYM    ---      WORD      macFunEventQueue
      ---         BLOCKEND  CODE     ---       LVL=1
      ---         BLOCKEND  CODE     ---       LVL=0

      00FFAC1BH   BLOCK     CODE     ---       LVL=0
      00FFAC1BH   LINE      ---      ---       #1363
      00FFAC1BH   LINE      ---      ---       #1364
      00FFAC1BH   BLOCK     CODE     NEAR LAB  LVL=1
      00FFAC1BH   LINE      ---      ---       #1365
      00FFAC1BH   LINE      ---      ---       #1367
      00FFAC1EH   LINE      ---      ---       #1368
      00FFAC24H   LINE      ---      ---       #1370
      00FFAC27H   LINE      ---      ---       #1372
      00FFAC2FH   LINE      ---      ---       #1373
      00FFAC30H   LINE      ---      ---       #1374
      00FFAC36H   LINE      ---      ---       #1376
      00FFAC39H   LINE      ---      ---       #1379
      00FFAC43H   LINE      ---      ---       #1381
      00FFAC46H   LINE      ---      ---       #1383
      00FFAC4AH   LINE      ---      ---       #1384
      00FFAC4CH   LINE      ---      ---       #1387
      00FFAC4FH   LINE      ---      ---       #1391
      00FFAC56H   LINE      ---      ---       #1395
      00FFAC59H   LINE      ---      ---       #1398
      00FFAC5CH   LINE      ---      ---       #1400
      00FFAC64H   LINE      ---      ---       #1401
      00FFAC64H   LINE      ---      ---       #1402
      00FFAC6DH   LINE      ---      ---       #1403
      WR6         REGSYM    ---      WORD      macFunEventQueue
      ---         BLOCKEND  CODE     ---       LVL=1
      ---         BLOCKEND  CODE     ---       LVL=0

      00FF2176H   BLOCK     CODE     ---       LVL=0
      00FF2176H   LINE      ---      ---       #1406
      00FF2176H   LINE      ---      ---       #1407
      00FF2176H   BLOCK     CODE     NEAR LAB  LVL=1
      00FF2176H   LINE      ---      ---       #1408
      00FF2176H   LINE      ---      ---       #1410
      00FF2179H   LINE      ---      ---       #1411
      00FF2189H   LINE      ---      ---       #1412
      WR6         REGSYM    ---      WORD      macFunEventQueue
      00FF2189H   BLOCK     CODE     NEAR LAB  LVL=2
      00FF2189H   LINE      ---      ---       #1415
      00FF218CH   LINE      ---      ---       #1420
      00FF2195H   LINE      ---      ---       #1421
      00FF2199H   LINE      ---      ---       #1423
      00FF21A3H   LINE      ---      ---       #1424
      R11         REGSYM    ---      BYTE      macRxInfo
      00FF21A3H   BLOCK     CODE     NEAR LAB  LVL=3
      00FF21A3H   LINE      ---      ---       #1427
      00FF21A6H   LINE      ---      ---       #1431
      00FF21ABH   LINE      ---      ---       #1432
      00FF21B0H   LINE      ---      ---       #1437
      00FF21BDH   LINE      ---      ---       #1438
      00FF21C2H   LINE      ---      ---       #1443
      00FF21C5H   LINE      ---      ---       #1446
      00FF21D6H   LINE      ---      ---       #1447
      00FF21DCH   LINE      ---      ---       #1449
      00FF21E7H   LINE      ---      ---       #1459
      00FF21EBH   LINE      ---      ---       #1460
      00FF21EDH   LINE      ---      ---       #1461
      00FF21F5H   LINE      ---      ---       #1462
      00FF21F5H   LINE      ---      ---       #1463
L251 LINKER/LOCATER V4.66.93.0                                                        07/01/2025  14:01:01  PAGE 146


      00FF21F7H   LINE      ---      ---       #1467
      00FF21FCH   LINE      ---      ---       #1470
      00FF2204H   LINE      ---      ---       #1471
      00FF2207H   LINE      ---      ---       #1472
      00FF2207H   LINE      ---      ---       #1474
      00FF2213H   LINE      ---      ---       #1475
      R11         REGSYM    ---      BYTE      trx_state
      ---         BLOCKEND  CODE     ---       LVL=3
      00FF2213H   LINE      ---      ---       #1476
      00FF2213H   LINE      ---      ---       #1479
      00FF2218H   LINE      ---      ---       #1482
      00FF221BH   LINE      ---      ---       #1483
      00FF221BH   LINE      ---      ---       #1484
      00FF221DH   LINE      ---      ---       #1488
      00FF2222H   LINE      ---      ---       #1490
      00FF2225H   LINE      ---      ---       #1491
      00FF2225H   LINE      ---      ---       #1492
      00FF2228H   LINE      ---      ---       #1493
      00FF2234H   LINE      ---      ---       #1497
      00FF223EH   LINE      ---      ---       #1500
      00FF2242H   LINE      ---      ---       #1501
      00FF2244H   LINE      ---      ---       #1504
      00FF2247H   LINE      ---      ---       #1508
      00FF224EH   LINE      ---      ---       #1512
      00FF2251H   LINE      ---      ---       #1514
      00FF2259H   LINE      ---      ---       #1515
      00FF2259H   LINE      ---      ---       #1516
      00FF2259H   LINE      CODE     ---       #1516
      ---         BLOCKEND  CODE     ---       LVL=1
      00FF2262H   LINE      ---      ---       #1517
      00FF2262H   LINE      CODE     ---       #1517

      00FF6A49H   BLOCK     CODE     ---       LVL=0
      00FF6A49H   LINE      ---      ---       #1520
      00FF6A4BH   LINE      ---      ---       #1521
      00FF6A4BH   BLOCK     CODE     NEAR LAB  LVL=1
      00FF6A4BH   LINE      ---      ---       #1522
      00FF6A4BH   LINE      ---      ---       #1524
      00FF6A50H   LINE      ---      ---       #1525
      00FF6A53H   LINE      ---      ---       #1526
      00FF6A57H   LINE      ---      ---       #1527
      00FF6A5AH   LINE      ---      ---       #1528
      00FF6AE1H   LINE      ---      ---       #1530
      00FF6AE1H   LINE      ---      ---       #1531
      00FF6AE1H   LINE      ---      ---       #1532
      00FF6AE1H   LINE      ---      ---       #1533
      00FF6AE1H   LINE      ---      ---       #1534
      00FF6AE1H   LINE      ---      ---       #1535
      00FF6AE5H   LINE      ---      ---       #1536
      00FF6AE7H   LINE      ---      ---       #1537
      00FF6AE7H   LINE      ---      ---       #1538
      00FF6AEAH   LINE      ---      ---       #1539
      00FF6AECH   LINE      ---      ---       #1540
      00FF6AECH   LINE      ---      ---       #1541
      00FF6AECH   LINE      ---      ---       #1553
      00FF6AEFH   LINE      ---      ---       #1556
      00FF6AF6H   LINE      ---      ---       #1558
      00FF6AFCH   LINE      ---      ---       #1560
      00FF6B00H   LINE      ---      ---       #1562
      00FF6B00H   LINE      ---      ---       #1563
      00FF6B00H   LINE      ---      ---       #1566
      00FF6B03H   LINE      ---      ---       #1568
      00FF6B07H   LINE      ---      ---       #1569
      00FF6B09H   LINE      ---      ---       #1573
      00FF6B10H   LINE      ---      ---       #1575
L251 LINKER/LOCATER V4.66.93.0                                                        07/01/2025  14:01:01  PAGE 147


      00FF6B12H   LINE      ---      ---       #1579
      00FF6B12H   LINE      ---      ---       #1581
      00FF6B16H   LINE      ---      ---       #1582
      00FF6B16H   LINE      ---      ---       #1585
      00FF6B18H   LINE      ---      ---       #1587
      00FF6B18H   LINE      ---      ---       #1588
      00FF6B18H   LINE      ---      ---       #1589
      00FF6B18H   LINE      ---      ---       #1590
      00FF6B1BH   LINE      ---      ---       #1593
      00FF6B22H   LINE      ---      ---       #1595
      00FF6B28H   LINE      ---      ---       #1597
      00FF6B2CH   LINE      ---      ---       #1599
      00FF6B2CH   LINE      ---      ---       #1600
      00FF6B2CH   LINE      ---      ---       #1603
      00FF6B2FH   LINE      ---      ---       #1605
      00FF6B33H   LINE      ---      ---       #1606
      00FF6B35H   LINE      ---      ---       #1610
      00FF6B3CH   LINE      ---      ---       #1612
      00FF6B3EH   LINE      ---      ---       #1616
      00FF6B3EH   LINE      ---      ---       #1618
      00FF6B46H   LINE      ---      ---       #1619
      00FF6B46H   LINE      ---      ---       #1621
      00FF6B48H   LINE      ---      ---       #1622
      00FF6B48H   LINE      ---      ---       #1623
      00FF6B4DH   LINE      ---      ---       #1624
      00FF6B4DH   LINE      ---      ---       #1625
      00FF6B4DH   LINE      ---      ---       #1626
      WR14        REGSYM    ---      WORD      macFunEventQueue
      ---         BLOCKEND  CODE     ---       LVL=1
      00FF6B59H   LINE      ---      ---       #1627
      00FF6B59H   LINE      CODE     ---       #1627

      00FFAC6EH   BLOCK     CODE     ---       LVL=0
      00FFAC6EH   LINE      ---      ---       #1629
      00FFAC6EH   LINE      ---      ---       #1630
      00FFAC6EH   BLOCK     CODE     NEAR LAB  LVL=1
      00FFAC6EH   LINE      ---      ---       #1633
      00FFAC71H   LINE      ---      ---       #1634
      00FFAC74H   LINE      ---      ---       #1635
      00FFAC7AH   LINE      ---      ---       #1637
      00FFAC7DH   LINE      ---      ---       #1640
      00FFAC84H   LINE      ---      ---       #1642
      00FFAC8AH   LINE      ---      ---       #1644
      00FFAC8FH   LINE      ---      ---       #1646
      00FFAC8FH   LINE      ---      ---       #1647
      00FFAC8FH   LINE      ---      ---       #1650
      00FFAC92H   LINE      ---      ---       #1652
      00FFAC96H   LINE      ---      ---       #1653
      00FFAC98H   LINE      ---      ---       #1657
      00FFAC9FH   LINE      ---      ---       #1659
      00FFACA2H   LINE      ---      ---       #1664
      00FFACA2H   LINE      ---      ---       #1666
      00FFACAAH   LINE      ---      ---       #1667
      00FFACAAH   LINE      ---      ---       #1669
      WR6         REGSYM    ---      WORD      macFunEventQueue
      ---         BLOCKEND  CODE     ---       LVL=1
      ---         BLOCKEND  CODE     ---       LVL=0

      00FFACABH   BLOCK     CODE     ---       LVL=0
      00FFACABH   LINE      ---      ---       #1672
      00FFACABH   LINE      ---      ---       #1674
      00FFACAEH   LINE      ---      ---       #1705
      00FFACB3H   LINE      ---      ---       #1709
      00FFACB9H   LINE      ---      ---       #1710
      00FFACBFH   LINE      ---      ---       #1713
L251 LINKER/LOCATER V4.66.93.0                                                        07/01/2025  14:01:01  PAGE 148


      00FFACC4H   LINE      ---      ---       #1714
      00FFACC6H   LINE      ---      ---       #1718
      00FFACCCH   LINE      ---      ---       #1719
      00FFACD4H   LINE      ---      ---       #1720
      00FFACD4H   LINE      ---      ---       #1723
      ---         BLOCKEND  ---      ---       LVL=0

      00FFACDBH   BLOCK     CODE     ---       LVL=0
      00FFACDBH   LINE      ---      ---       #1732
      00FFACDBH   LINE      ---      ---       #1734
      ---         BLOCKEND  ---      ---       LVL=0

      00FF90A6H   BLOCK     CODE     ---       LVL=0
      00FF90A6H   LINE      ---      ---       #1736
      00FF90A6H   LINE      ---      ---       #1740
      00FF90ADH   LINE      ---      ---       #1742
      00FF90ADH   LINE      ---      ---       #1743
      00FF90ADH   LINE      ---      ---       #1748
      00FF90B9H   LINE      ---      ---       #1750
      ---         BLOCKEND  ---      ---       LVL=0

      00FFACE3H   BLOCK     CODE     ---       LVL=0
      00FFACE3H   LINE      ---      ---       #1752
      00FFACE3H   LINE      ---      ---       #1754
      00FFACF4H   LINE      ---      ---       #1755
      00FFACFBH   LINE      ---      ---       #1756
      ---         BLOCKEND  ---      ---       LVL=0

      00FFACDCH   BLOCK     CODE     ---       LVL=0
      00FFACDCH   LINE      ---      ---       #1760
      00FFACDCH   LINE      ---      ---       #1762
      ---         BLOCKEND  ---      ---       LVL=0
      00FF6D67H   LINE      ---      ---       #1062

      ---         MODULE    ---      ---       mac_cad

      ---         MODULE    ---      ---       mac_scheduler

      ---         MODULE    ---      ---       mac_RfeRx
      00FFAF64H   PUBLIC    CODE     ---       MAC_RfeRxDisable
      00FFAFADH   PUBLIC    CODE     ---       MAC_RfeRxRptGet
      00FF8B60H   PUBLIC    CODE     ---       MAC_RfeRxParInit
      00FF834FH   PUBLIC    CODE     ---       MAC_RfeRxSchedule
      00FF864EH   PUBLIC    CODE     ---       MAC_RfeRxAonTaskDisable
      00FF8724H   PUBLIC    CODE     ---       MAC_RfeSecLbHwSet
      00FF3D26H   PUBLIC    CODE     ---       MAC_RfeRxDataConfirm
      0000B40DH   PUBLIC    EDATA    INT       gMacRfeRxState
      0000B40FH   PUBLIC    EDATA    ---       gMacRfeRxCtrl
      0000B41EH   PUBLIC    EDATA    ---       gMacRfeRpt
      000000A8H.7 SFRSYM    DATA     BIT       EA
      00000080H   SFRSYM    DATA     BYTE      P0

      00FFAF64H   BLOCK     CODE     ---       LVL=0
      00FFAF64H   LINE      ---      ---       #55
      00FFAF68H   LINE      ---      ---       #57
      00FFAF6AH   LINE      ---      ---       #61
      00FFAF6DH   LINE      ---      ---       #62
      00FFAF88H   LINE      ---      ---       #63
      00FFAF8BH   LINE      ---      ---       #64
      00FFAF92H   LINE      ---      ---       #65
      00FFAF98H   LINE      ---      ---       #66
      00FFAF9FH   LINE      ---      ---       #67
      00FFAFA3H   LINE      ---      ---       #68
      00FFAFAAH   LINE      ---      ---       #69
      R15         REGSYM    ---      BYTE      bTxSecClr
L251 LINKER/LOCATER V4.66.93.0                                                        07/01/2025  14:01:01  PAGE 149


      ---         BLOCKEND  ---      ---       LVL=0

      00FF864EH   BLOCK     CODE     ---       LVL=0
      00FF864EH   LINE      ---      ---       #71
      00FF864EH   LINE      ---      ---       #73
      00FF8650H   LINE      ---      ---       #74
      00FF8656H   LINE      ---      ---       #75
      00FF865AH   LINE      ---      ---       #76
      00FF865CH   LINE      ---      ---       #77
      ---         BLOCKEND  ---      ---       LVL=0

      00FFAFADH   BLOCK     CODE     ---       LVL=0
      00FFAFADH   LINE      ---      ---       #79
      00FFAFADH   LINE      ---      ---       #81
      00FFAFB4H   LINE      ---      ---       #82
      00FFAFBFH   LINE      ---      ---       #83
      REG=3       REGSYM    ---      ---       pPassCnt
      REG=2       REGSYM    ---      ---       pFailCnt
      ---         BLOCKEND  ---      ---       LVL=0

      00FF8724H   BLOCK     CODE     ---       LVL=0
      00FF8724H   LINE      ---      ---       #85
      00FF8726H   LINE      ---      ---       #86
      WR8         REGSYM    ---      WORD      pktLen
      00FF8726H   BLOCK     CODE     NEAR LAB  LVL=1
      00FF8726H   LINE      ---      ---       #90
      00FF872AH   LINE      ---      ---       #91
      00FF872EH   LINE      ---      ---       #92
      00FF874FH   LINE      ---      ---       #93
      00FF8755H   LINE      ---      ---       #94
      00FF8757H   LINE      ---      ---       #95
      00FF875DH   LINE      ---      ---       #96
      00FF8763H   LINE      ---      ---       #98
      00FF8767H   LINE      ---      ---       #99
      00FF8769H   LINE      ---      ---       #101
      00FF876DH   LINE      ---      ---       #102
      00FF876FH   LINE      ---      ---       #103
      00FF8775H   LINE      ---      ---       #105
      00FF8779H   LINE      ---      ---       #106
      00FF877BH   LINE      ---      ---       #108
      00FF877FH   LINE      ---      ---       #109
      00FF877FH   LINE      ---      ---       #111
      WR4         REGSYM    ---      WORD      aDataLen
      WR2         REGSYM    ---      WORD      mDataLen
      WR6         REGSYM    ---      WORD      payloadLen
      R7          REGSYM    ---      BYTE      micLen
      ---         BLOCKEND  CODE     ---       LVL=1
      ---         BLOCKEND  CODE     ---       LVL=0

      00FF3D26H   BLOCK     CODE     ---       LVL=0
      00FF3D26H   LINE      ---      ---       #114
      00FF3D28H   LINE      ---      ---       #115
      00FF3D28H   BLOCK     CODE     NEAR LAB  LVL=1
      00FF3D28H   LINE      ---      ---       #120
      00FF3D3AH   LINE      ---      ---       #122
      00FF3D5FH   LINE      ---      ---       #123
      00FF3D66H   LINE      ---      ---       #126
      00FF3D6CH   LINE      ---      ---       #127
      00FF3D80H   LINE      ---      ---       #129
      00FF3D8EH   LINE      ---      ---       #131
      00FF3D96H   LINE      ---      ---       #133
      00FF3D9AH   LINE      ---      ---       #135
      00FF3DB7H   LINE      ---      ---       #136
      00FF3DBAH   LINE      ---      ---       #137
      00FF3DC0H   LINE      ---      ---       #138
L251 LINKER/LOCATER V4.66.93.0                                                        07/01/2025  14:01:01  PAGE 150


      00FF3DC2H   LINE      ---      ---       #141
      00FF3DD1H   LINE      ---      ---       #142
      00FF3DD5H   LINE      ---      ---       #144
      00FF3DE1H   LINE      ---      ---       #145
      00FF3DE4H   LINE      ---      ---       #146
      00FF3DEAH   LINE      ---      ---       #147
      00FF3DEAH   LINE      ---      ---       #148
      00FF3DEAH   LINE      ---      ---       #149
      R7          REGSYM    ---      BYTE      dataTemp
      0000B6ABH   SYMBOL    EDATA    BYTE      phrLenTemp
      WR12        REGSYM    ---      WORD      dataLenTemp
      WR14        REGSYM    ---      WORD      idx
      ---         BLOCKEND  CODE     ---       LVL=1
      00FF3DECH   LINE      ---      ---       #150
      00FF3DECH   LINE      CODE     ---       #150

      00FF8B60H   BLOCK     CODE     ---       LVL=0
      00FF8B60H   LINE      ---      ---       #152
      00FF8B6AH   LINE      ---      ---       #154
      00FF8B6FH   LINE      ---      ---       #155
      00FF8B75H   LINE      ---      ---       #156
      00FF8B7BH   LINE      ---      ---       #157
      00FF8B7FH   LINE      ---      ---       #158
      00FF8B83H   LINE      ---      ---       #159
      00FF8B87H   LINE      ---      ---       #160
      00FF8B91H   LINE      ---      ---       #161
      00FF8B9BH   LINE      ---      ---       #163
      00FF8B9FH   LINE      ---      ---       #164
      00FF8BA3H   LINE      ---      ---       #165
      00FF8BA7H   LINE      ---      ---       #171
      00FF8BABH   LINE      ---      ---       #173
      00FF8BB3H   LINE      ---      ---       #174
      00FF8BC2H   LINE      ---      ---       #175
      00FF8BD0H   LINE      ---      ---       #176
      R1          REGSYM    ---      BYTE      pktType
      R2          REGSYM    ---      BYTE      queueType
      R3          REGSYM    ---      BYTE      rxType
      R10         REGSYM    ---      BYTE      ackEnable
      WR8         REGSYM    ---      WORD      ackInterval
      ---         BLOCKEND  ---      ---       LVL=0

      00FF834FH   BLOCK     CODE     ---       LVL=0
      00FF834FH   LINE      ---      ---       #179
      00FF8351H   LINE      ---      ---       #180
      00FF8351H   BLOCK     CODE     NEAR LAB  LVL=1
      00FF8351H   LINE      ---      ---       #181
      00FF8351H   LINE      ---      ---       #185
      00FF835CH   LINE      ---      ---       #187
      00FF835CH   LINE      ---      ---       #188
      00FF835CH   LINE      ---      ---       #191
      00FF838CH   LINE      ---      ---       #193
      00FF838CH   LINE      ---      ---       #194
      00FF838FH   LINE      ---      ---       #196
      WR6         REGSYM    ---      WORD      macFunEventQueue
      R15         REGSYM    ---      BYTE      retValue
      00FF838FH   BLOCK     CODE     NEAR LAB  LVL=2
      00FF838FH   LINE      ---      ---       #198
      00FF8397H   LINE      ---      ---       #199
      00FF839FH   LINE      ---      ---       #200
      00FF83A7H   LINE      ---      ---       #201
      00FF83AFH   LINE      ---      ---       #202
      0000B5F0H   SYMBOL    EDATA    ---       cb
      ---         BLOCKEND  CODE     ---       LVL=2
      00FF83B6H   LINE      ---      ---       #203
      00FF83B6H   LINE      ---      ---       #206
L251 LINKER/LOCATER V4.66.93.0                                                        07/01/2025  14:01:01  PAGE 151


      00FF83B9H   LINE      ---      ---       #209
      00FF83CFH   LINE      ---      ---       #211
      00FF83D3H   LINE      ---      ---       #214
      00FF83D3H   LINE      ---      ---       #215
      00FF83D5H   LINE      ---      ---       #218
      00FF83DBH   LINE      ---      ---       #219
      00FF83E1H   LINE      ---      ---       #221
      00FF83E6H   LINE      ---      ---       #240
      00FF83ECH   LINE      ---      ---       #243
      00FF83F2H   LINE      ---      ---       #245
      00FF83F4H   LINE      ---      ---       #246
      00FF83F9H   LINE      ---      ---       #247
      00FF83F9H   LINE      ---      ---       #251
      00FF83FFH   LINE      ---      ---       #252
      00FF8408H   LINE      ---      ---       #253
      00FF840EH   LINE      ---      ---       #255
      00FF8410H   LINE      ---      ---       #256
      00FF8415H   LINE      ---      ---       #257
      00FF8415H   LINE      ---      ---       #260
      00FF8419H   LINE      ---      ---       #261
      00FF8419H   LINE      ---      ---       #286
      00FF841BH   LINE      ---      ---       #288
      00FF841BH   LINE      ---      ---       #289
      00FF841EH   LINE      ---      ---       #290
      00FF8424H   LINE      ---      ---       #292
      00FF8427H   LINE      ---      ---       #293
      00FF842BH   LINE      ---      ---       #296
      00FF842BH   LINE      ---      ---       #297
      00FF842DH   LINE      ---      ---       #298
      00FF8433H   LINE      ---      ---       #300
      00FF843AH   LINE      ---      ---       #301
      00FF843DH   LINE      ---      ---       #302
      00FF8441H   LINE      ---      ---       #303
      00FF8443H   LINE      ---      ---       #304
      00FF844BH   LINE      ---      ---       #306
      00FF844EH   LINE      ---      ---       #307
      00FF8452H   LINE      ---      ---       #310
      00FF8452H   LINE      ---      ---       #311
      00FF8452H   LINE      ---      ---       #330
      00FF8454H   LINE      ---      ---       #332
      00FF8454H   LINE      ---      ---       #333
      00FF8457H   LINE      ---      ---       #334
      00FF845FH   LINE      ---      ---       #336
      00FF8462H   LINE      ---      ---       #339
      00FF8483H   LINE      ---      ---       #342
      00FF8494H   LINE      ---      ---       #343
      00FF8497H   LINE      ---      ---       #346
      00FF849DH   LINE      ---      ---       #348
      00FF84B1H   LINE      ---      ---       #352
      00FF84B9H   LINE      ---      ---       #355
      00FF84BFH   LINE      ---      ---       #357
      00FF84C1H   LINE      ---      ---       #358
      00FF84C7H   LINE      ---      ---       #359
      00FF84C7H   LINE      ---      ---       #362
      00FF84D1H   LINE      ---      ---       #365
      00FF84D3H   LINE      ---      ---       #366
      00FF84D9H   LINE      ---      ---       #369
      00FF84DDH   LINE      ---      ---       #372
      00FF84DDH   LINE      ---      ---       #373
      00FF84DDH   LINE      ---      ---       #374
      00FF84DFH   LINE      ---      ---       #378
      00FF84E3H   LINE      ---      ---       #381
      00FF84E3H   LINE      ---      ---       #382
      00FF84E3H   LINE      ---      ---       #383
      00FF84E3H   LINE      ---      ---       #384
L251 LINKER/LOCATER V4.66.93.0                                                        07/01/2025  14:01:01  PAGE 152


      00FF84E5H   LINE      ---      ---       #386
      00FF84E5H   LINE      ---      ---       #387
      00FF84E8H   LINE      ---      ---       #388
      00FF84F0H   LINE      ---      ---       #390
      00FF84F3H   LINE      ---      ---       #393
      00FF84FAH   LINE      ---      ---       #396
      00FF84FEH   LINE      ---      ---       #399
      00FF84FEH   LINE      ---      ---       #400
      00FF84FEH   LINE      ---      ---       #401
      00FF8500H   LINE      ---      ---       #403
      00FF8500H   LINE      ---      ---       #406
      00FF8503H   LINE      ---      ---       #408
      00FF8512H   LINE      ---      ---       #410
      00FF8518H   LINE      ---      ---       #411
      00FF851DH   LINE      ---      ---       #413
      00FF8520H   LINE      ---      ---       #414
      00FF852AH   LINE      ---      ---       #415
      00FF8543H   LINE      ---      ---       #416
      00FF8545H   LINE      ---      ---       #417
      00FF854AH   LINE      ---      ---       #420
      00FF8550H   LINE      ---      ---       #421
      00FF8553H   LINE      ---      ---       #423
      00FF8558H   LINE      ---      ---       #424
      00FF855BH   LINE      ---      ---       #425
      00FF8565H   LINE      ---      ---       #426
      00FF8567H   LINE      ---      ---       #429
      00FF856AH   LINE      ---      ---       #430
      00FF8574H   LINE      ---      ---       #431
      00FF8574H   LINE      ---      ---       #434
      00FF857AH   LINE      ---      ---       #435
      00FF857DH   LINE      ---      ---       #437
      00FF8584H   LINE      ---      ---       #440
      00FF858AH   LINE      ---      ---       #443
      00FF8596H   LINE      ---      ---       #445
      00FF8598H   LINE      ---      ---       #446
      00FF859EH   LINE      ---      ---       #447
      00FF859EH   LINE      ---      ---       #450
      00FF85A0H   LINE      ---      ---       #453
      00FF85A6H   LINE      ---      ---       #456
      00FF85A8H   LINE      ---      ---       #457
      00FF85B9H   LINE      ---      ---       #458
      00FF85BDH   LINE      ---      ---       #461
      00FF85D1H   LINE      ---      ---       #462
      00FF85D9H   LINE      ---      ---       #464
      00FF85E0H   LINE      ---      ---       #467
      00FF85E4H   LINE      ---      ---       #468
      00FF85E6H   LINE      ---      ---       #472
      00FF85EAH   LINE      ---      ---       #473
      00FF85EAH   LINE      ---      ---       #474
      00FF85ECH   LINE      ---      ---       #478
      00FF85F4H   LINE      ---      ---       #481
      00FF85F7H   LINE      ---      ---       #482
      00FF85F7H   LINE      ---      ---       #483
      00FF85F9H   LINE      ---      ---       #485
      00FF85F9H   LINE      ---      ---       #486
      00FF85FCH   LINE      ---      ---       #487
      00FF8602H   LINE      ---      ---       #489
      00FF8605H   LINE      ---      ---       #492
      00FF8616H   LINE      ---      ---       #493
      00FF8619H   LINE      ---      ---       #496
      00FF8626H   LINE      ---      ---       #499
      00FF862EH   LINE      ---      ---       #502
      00FF8632H   LINE      ---      ---       #505
      00FF8638H   LINE      ---      ---       #506
      00FF8638H   LINE      ---      ---       #507
L251 LINKER/LOCATER V4.66.93.0                                                        07/01/2025  14:01:01  PAGE 153


      00FF863AH   LINE      ---      ---       #509
      00FF863AH   LINE      ---      ---       #511
      00FF863DH   LINE      ---      ---       #514
      00FF8640H   LINE      ---      ---       #519
      00FF8648H   LINE      ---      ---       #520
      00FF8648H   LINE      ---      ---       #522
      00FF8648H   LINE      ---      ---       #523
      00FF8648H   LINE      ---      ---       #525
      00FF8648H   LINE      ---      ---       #527
      00FF8648H   LINE      CODE     ---       #527
      ---         BLOCKEND  CODE     ---       LVL=0
      00FF864BH   LINE      ---      ---       #528

      ---         MODULE    ---      ---       mac_RfeTx
      00FF8918H   PUBLIC    CODE     ---       MAC_RfeTxParInit
      00FF1544H   PUBLIC    CODE     ---       MAC_RfeTxSchedule
      00FFA462H   PUBLIC    CODE     ---       MAC_RfeTxTaskSet
      00FFAFC0H   PUBLIC    CODE     ---       MAC_RfeTxPktLenUpdate
      00FFB033H   PUBLIC    CODE     ---       MAC_RfeTxHwSecSet
      00FF8BD1H   PUBLIC    CODE     ---       MAC_RfeDataGen
      0000B498H   PUBLIC    EDATA    INT       gMacRfeTxState
      0000B49AH   PUBLIC    EDATA    ---       gMacRfeTxCtrl
      00FF1013H   PUBLIC    HCONST   ---       MACRfeDataType
      00FF1019H   PUBLIC    HCONST   ---       MACRfePrbs9
      00000080H   SFRSYM    DATA     BYTE      P0

      00FFA462H   BLOCK     CODE     ---       LVL=0
      00FFA462H   LINE      ---      ---       #58
      00FFA464H   LINE      ---      ---       #60
      00FFA46AH   LINE      ---      ---       #63
      00FFA46EH   LINE      ---      ---       #64
      00FFA48AH   LINE      ---      ---       #66
      00FFA49EH   LINE      ---      ---       #67
      00FFA49EH   LINE      ---      ---       #71
      R10         REGSYM    ---      BYTE      bRtcAutoEn
      ---         BLOCKEND  ---      ---       LVL=0

      00FFAFC0H   BLOCK     CODE     ---       LVL=0
      00FFAFC0H   LINE      ---      ---       #75
      00FFAFC0H   LINE      ---      ---       #77
      00FFAFCCH   LINE      ---      ---       #78
      00FFAFFDH   LINE      ---      ---       #80
      00FFB00CH   LINE      ---      ---       #81
      00FFB00EH   LINE      ---      ---       #84
      00FFB026H   LINE      ---      ---       #85
      00FFB02AH   LINE      ---      ---       #86
      00FFB032H   LINE      ---      ---       #87
      00FFB032H   LINE      ---      ---       #88
      ---         BLOCKEND  ---      ---       LVL=0

      00FFB033H   BLOCK     CODE     ---       LVL=0
      00FFB033H   LINE      ---      ---       #91
      00FFB035H   LINE      ---      ---       #92
      00FFB035H   BLOCK     CODE     NEAR LAB  LVL=1
      00FFB035H   LINE      ---      ---       #95
      00FFB044H   LINE      ---      ---       #97
      00FFB046H   LINE      ---      ---       #98
      00FFB04AH   LINE      ---      ---       #99
      00FFB04CH   LINE      ---      ---       #102
      00FFB050H   LINE      ---      ---       #103
      00FFB054H   LINE      ---      ---       #104
      00FFB05AH   LINE      ---      ---       #105
      00FFB062H   LINE      ---      ---       #106
      00FFB068H   LINE      ---      ---       #107
      00FFB06EH   LINE      ---      ---       #108
L251 LINKER/LOCATER V4.66.93.0                                                        07/01/2025  14:01:01  PAGE 154


      00FFB06EH   LINE      ---      ---       #110
      WR12        REGSYM    ---      WORD      aDataLen
      WR14        REGSYM    ---      WORD      mDataLen
      ---         BLOCKEND  CODE     ---       LVL=1
      00FFB080H   LINE      ---      ---       #111
      00FFB080H   LINE      CODE     ---       #111

      00FF8BD1H   BLOCK     CODE     ---       LVL=0
      00FF8BD1H   LINE      ---      ---       #113
      00FF8BDBH   LINE      ---      ---       #114
      REG=6       REGSYM    ---      ---       pbuf
      WR14        REGSYM    ---      WORD      len
      0000B692H   SYMBOL    EDATA    BYTE      dataType
      00FF8BDBH   BLOCK     CODE     NEAR LAB  LVL=1
      00FF8BDBH   LINE      ---      ---       #117
      00FF8BE1H   LINE      ---      ---       #120
      00FF8BE4H   LINE      ---      ---       #121
      00FF8C1AH   LINE      ---      ---       #122
      00FF8C22H   LINE      ---      ---       #123
      00FF8C3BH   LINE      ---      ---       #124
      00FF8C3FH   LINE      ---      ---       #125
      00FF8C3FH   LINE      ---      ---       #126
      00FF8C48H   LINE      ---      ---       #128
      00FF8C62H   LINE      ---      ---       #129
      00FF8C66H   LINE      ---      ---       #130
      00FF8C66H   LINE      ---      ---       #135
      0000B693H   SYMBOL    EDATA    BYTE      idx
      ---         BLOCKEND  CODE     ---       LVL=1
      00FF8C67H   LINE      ---      ---       #136
      00FF8C67H   LINE      CODE     ---       #136

      00FF8918H   BLOCK     CODE     ---       LVL=0
      00FF8918H   LINE      ---      ---       #138
      00FF8920H   LINE      ---      ---       #140
      00FF8925H   LINE      ---      ---       #141
      00FF892BH   LINE      ---      ---       #142
      00FF892FH   LINE      ---      ---       #143
      00FF8933H   LINE      ---      ---       #144
      00FF8939H   LINE      ---      ---       #145
      00FF893EH   LINE      ---      ---       #146
      00FF8945H   LINE      ---      ---       #147
      00FF8949H   LINE      ---      ---       #148
      00FF894FH   LINE      ---      ---       #149
      00FF8953H   LINE      ---      ---       #152
      00FF895BH   LINE      ---      ---       #153
      00FF898FH   LINE      ---      ---       #154
      00FF899DH   LINE      ---      ---       #155
      00FF89ABH   LINE      ---      ---       #158
      00FF89AEH   LINE      ---      ---       #159
      WR2         REGSYM    ---      WORD      txTarget
      WR4         REGSYM    ---      WORD      txStepSize
      R14         REGSYM    ---      BYTE      pktType
      R15         REGSYM    ---      BYTE      pktPhrType
      ---         BLOCKEND  ---      ---       LVL=0

      00FF1544H   BLOCK     CODE     ---       LVL=0
      00FF1544H   LINE      ---      ---       #161
      00FF1544H   LINE      ---      ---       #162
      00FF1544H   BLOCK     CODE     NEAR LAB  LVL=1
      00FF1544H   LINE      ---      ---       #163
      00FF1544H   LINE      ---      ---       #167
      00FF154FH   LINE      ---      ---       #169
      00FF154FH   LINE      ---      ---       #170
      00FF154FH   LINE      ---      ---       #173
      00FF1571H   LINE      ---      ---       #175
L251 LINKER/LOCATER V4.66.93.0                                                        07/01/2025  14:01:01  PAGE 155


      00FF1571H   LINE      ---      ---       #177
      00FF1574H   LINE      ---      ---       #179
      WR6         REGSYM    ---      WORD      macFunEventQueue
      R11         REGSYM    ---      BYTE      retValue
      00FF1574H   BLOCK     CODE     NEAR LAB  LVL=2
      00FF1574H   LINE      ---      ---       #181
      00FF157CH   LINE      ---      ---       #182
      00FF1584H   LINE      ---      ---       #183
      00FF158CH   LINE      ---      ---       #184
      00FF1594H   LINE      ---      ---       #185
      0000B57DH   SYMBOL    EDATA    ---       cb
      ---         BLOCKEND  CODE     ---       LVL=2
      00FF159BH   BLOCK     CODE     NEAR LAB  LVL=2
      00FF159BH   LINE      ---      ---       #186
      00FF159BH   LINE      ---      ---       #188
      00FF15ABH   LINE      ---      ---       #192
      00FF15AEH   LINE      ---      ---       #196
      00FF15AEH   LINE      ---      ---       #197
      00FF15B0H   LINE      ---      ---       #201
      00FF15DAH   LINE      ---      ---       #207
      00FF15DDH   LINE      ---      ---       #210
      00FF15ECH   LINE      ---      ---       #212
      00FF15EEH   LINE      ---      ---       #215
      00FF15F2H   LINE      ---      ---       #216
      00FF15F4H   LINE      ---      ---       #219
      00FF15FAH   LINE      ---      ---       #221
      00FF15FFH   LINE      ---      ---       #240
      00FF1605H   LINE      ---      ---       #243
      00FF1606H   LINE      ---      ---       #244
      00FF1608H   LINE      ---      ---       #245
      00FF160EH   LINE      ---      ---       #247
      00FF1613H   LINE      ---      ---       #250
      00FF1619H   LINE      ---      ---       #253
      00FF161EH   LINE      ---      ---       #254
      00FF1620H   LINE      ---      ---       #255
      00FF162CH   LINE      ---      ---       #258
      00FF162EH   LINE      ---      ---       #259
      00FF162EH   LINE      ---      ---       #262
      00FF1634H   LINE      ---      ---       #263
      00FF1637H   LINE      ---      ---       #266
      00FF163BH   LINE      ---      ---       #267
      00FF163BH   LINE      ---      ---       #268
      00FF163BH   LINE      ---      ---       #269
      00FF163DH   LINE      ---      ---       #271
      00FF163DH   LINE      ---      ---       #272
      00FF1640H   LINE      ---      ---       #273
      00FF1648H   LINE      ---      ---       #276
      00FF164BH   LINE      ---      ---       #279
      00FF165CH   LINE      ---      ---       #280
      00FF165EH   LINE      ---      ---       #282
      00FF1664H   LINE      ---      ---       #285
      00FF166AH   LINE      ---      ---       #288
      00FF1671H   LINE      ---      ---       #291
      00FF167FH   LINE      ---      ---       #294
      00FF1682H   LINE      ---      ---       #295
      00FF1682H   LINE      ---      ---       #298
      00FF168CH   LINE      ---      ---       #301
      00FF1699H   LINE      ---      ---       #304
      00FF169CH   LINE      ---      ---       #307
      00FF16A2H   LINE      ---      ---       #308
      00FF16A8H   LINE      ---      ---       #310
      00FF16ACH   LINE      ---      ---       #311
      00FF16ACH   LINE      ---      ---       #312
      00FF16AEH   LINE      ---      ---       #314
      00FF16AEH   LINE      ---      ---       #315
L251 LINKER/LOCATER V4.66.93.0                                                        07/01/2025  14:01:01  PAGE 156


      00FF16B1H   LINE      ---      ---       #316
      00FF16B9H   LINE      ---      ---       #319
      00FF16BFH   LINE      ---      ---       #322
      00FF16D0H   LINE      ---      ---       #323
      00FF16D2H   LINE      ---      ---       #327
      00FF16DDH   LINE      ---      ---       #329
      00FF16E7H   LINE      ---      ---       #330
      00FF16EAH   LINE      ---      ---       #331
      00FF16ECH   LINE      ---      ---       #333
      0000B585H   SYMBOL    EDATA    ---       ackContent
      ---         BLOCKEND  CODE     ---       LVL=2
      00FF16ECH   LINE      ---      ---       #337
      00FF16FCH   LINE      ---      ---       #338
      00FF170CH   LINE      ---      ---       #340
      00FF1716H   LINE      ---      ---       #341
      00FF1719H   LINE      ---      ---       #342
      00FF171BH   LINE      ---      ---       #345
      00FF1725H   LINE      ---      ---       #346
      00FF1728H   LINE      ---      ---       #347
      00FF1728H   LINE      CODE     ---       #347
      ---         BLOCKEND  CODE     ---       LVL=0
      00FF1728H   LINE      ---      ---       #348
      00FF1728H   LINE      ---      ---       #352
      00FF172FH   LINE      ---      ---       #354
      00FF1735H   LINE      ---      ---       #357
      00FF1739H   LINE      ---      ---       #358
      00FF173BH   LINE      ---      ---       #359
      00FF1741H   LINE      ---      ---       #362
      00FF1747H   LINE      ---      ---       #364
      00FF174AH   LINE      ---      ---       #367
      00FF174CH   LINE      ---      ---       #371
      00FF1752H   LINE      ---      ---       #374
      00FF1756H   LINE      ---      ---       #375
      00FF1756H   LINE      ---      ---       #376
      00FF1758H   LINE      ---      ---       #378
      00FF1758H   LINE      ---      ---       #380
      00FF175BH   LINE      ---      ---       #385
      00FF1763H   LINE      ---      ---       #386
      00FF1765H   LINE      ---      ---       #388
      00FF1765H   LINE      ---      ---       #390
      00FF1768H   LINE      ---      ---       #399
      00FF1768H   LINE      ---      ---       #401
      00FF1768H   LINE      ---      ---       #402
      00FF1768H   LINE      ---      ---       #403
      00FF1768H   LINE      ---      ---       #405
      00FF176BH   LINE      ---      ---       #406

      ---         MODULE    ---      ---       mac_DtmRx

      ---         MODULE    ---      ---       mac_DtmTx

      ---         MODULE    ---      ---       mac_htrp_control
      00FF9C05H   PUBLIC    CODE     ---       mac_htrp_ctrl_set_channel_map_from_bmu
      00FFB083H   PUBLIC    CODE     ---       mac_htrp_ctrl_get_channel
      00FF7ACFH   PUBLIC    CODE     ---       mac_htrp_ctrl_increase_channel_index
      00FFB09BH   PUBLIC    CODE     ---       mac_htrp_ctrl_clear_pkt_cnt
      00FFB0C0H   PUBLIC    CODE     ---       mac_htrp_ctrl_increase_pkt_cnt
      00FF79E1H   PUBLIC    CODE     ---       mac_htrp_ctrl_increase_slot_index
      00FFB122H   PUBLIC    CODE     ---       mac_htrp_ctrl_slot_sync
      00FF1FB7H   PUBLIC    CODE     ---       mac_htrp_ctrl_channel_set
      00FFB14CH   PUBLIC    CODE     ---       mac_htrp_ctrl_increase_cur_block
      00FF9B7CH   PUBLIC    CODE     ---       mac_htrp_set_sec_para
      00FF9B73H   PUBLIC    CODE     ---       mac_htrp_set_disable
      00FF6FD3H   PUBLIC    CODE     ---       mac_htrp_send_tx_done
      00FF34B6H   PUBLIC    CODE     ---       mac_htrp_reg_isr_cb
L251 LINKER/LOCATER V4.66.93.0                                                        07/01/2025  14:01:01  PAGE 157


      00FF2778H   PUBLIC    CODE     ---       mac_htrp_isr_tx_done_handler
      00FFB1FAH   PUBLIC    CODE     ---       mac_htrp_isr_rx_done_handler
      00FFB21EH   PUBLIC    CODE     ---       mac_htrp_check_rx_valid
      00FF27B3H   PUBLIC    CODE     ---       mac_htrp_set_rx_sw_queue
      00FF792BH   PUBLIC    CODE     ---       mac_htrp_update_lrx_buf_status
      00FF3BE0H   PUBLIC    CODE     ---       mac_htrp_relay_data_to_sw_rxq
      00FF3C63H   PUBLIC    CODE     ---       mac_htrp_get_rx_sw_queue_wo_addr
      00FF1FF7H   PUBLIC    CODE     ---       mac_htrp_set_rx_hw_queue
      00FF1FECH   PUBLIC    CODE     ---       mac_htrp_set_rx_queue
      00FF3CB2H   PUBLIC    CODE     ---       mac_htrp_clear_rx_queue
      00FF9B58H   PUBLIC    CODE     ---       mac_htrp_reset_rx_conn_status
      00FFB26FH   PUBLIC    CODE     ---       mac_htrp_check_rx_conn_status
      00FF34BFH   PUBLIC    CODE     ---       mac_htrp_get_tx_data
      00FF33C8H   PUBLIC    CODE     ---       mac_htrp_set_tx_queue
      00FFB28EH   PUBLIC    CODE     ---       mac_htrp_clear_tx_queue
      00FFB2A3H   PUBLIC    CODE     ---       mac_htrp_ctrl_init
      00FFB2C6H   PUBLIC    CODE     ---       mac_htrp_sleep_init
      00FFB2E7H   PUBLIC    CODE     ---       mac_htrp_rtc_isr_handler
      00FF3618H   PUBLIC    CODE     ---       mac_htrp_is_allow_sleep_state
      00FFB2EDH   PUBLIC    CODE     ---       mac_htrp_sleep_ctrl
      00FF4A90H   PUBLIC    CODE     ---       mac_htrp_ready_to_sleep
      0000B0DEH   PUBLIC    EDATA    ---       g_mac_htrp_ctrl
      0000B210H   PUBLIC    EDATA    BYTE      g_mac_htrp_rx_commit_type
      0000B211H   PUBLIC    EDATA    ---       g_mac_htrp_tx_local_data
      0000B217H   PUBLIC    EDATA    ---       gMac_htrp_tx_done_hdl
      0000B219H   PUBLIC    EDATA    ---       gMac_htrp_rx_done_hdl
      000000A8H.7 SFRSYM    DATA     BIT       EA
      00000080H   SFRSYM    DATA     BYTE      P0

      00FF9C05H   BLOCK     CODE     ---       LVL=0
      00FF9C05H   LINE      ---      ---       #87
      00FF9C0BH   LINE      ---      ---       #88
      REG=0       REGSYM    ---      ---       map
      R9          REGSYM    ---      BYTE      start
      R10         REGSYM    ---      BYTE      length
      00FF9C0BH   BLOCK     CODE     NEAR LAB  LVL=1
      00FF9C0BH   LINE      ---      ---       #90
      00FF9C17H   LINE      ---      ---       #91
      00FF9C19H   LINE      ---      ---       #92
      00FF9C19H   LINE      ---      ---       #94
      00FF9C1DH   LINE      ---      ---       #95
      00FF9C3FH   LINE      ---      ---       #96
      00FF9C45H   LINE      ---      ---       #98
      00FF9C4FH   LINE      ---      ---       #100
      R8          REGSYM    ---      BYTE      count
      ---         BLOCKEND  CODE     ---       LVL=1
      00FF9C51H   LINE      ---      ---       #101
      00FF9C51H   LINE      CODE     ---       #101

      00FFB083H   BLOCK     CODE     ---       LVL=0
      00FFB083H   LINE      ---      ---       #103
      00FFB085H   LINE      ---      ---       #105
      00FFB08DH   LINE      ---      ---       #106
      R6          REGSYM    ---      BYTE      index
      ---         BLOCKEND  ---      ---       LVL=0

      00FF7AC2H   BLOCK     CODE     ---       LVL=0
      00FF7ACFH   LINE      ---      ---       #108
      00FF7ACFH   LINE      ---      ---       #109
      00FF7AC2H   SYMBOL    CODE     NEAR LAB  ?L?COM0035
      R7          REGSYM    ---      BYTE      count
      00FF7ACFH   BLOCK     CODE     NEAR LAB  LVL=1
      00FF7ACFH   LINE      ---      ---       #110
      00FF7AD9H   LINE      ---      ---       #111
      00FF7AE1H   LINE      ---      ---       #112
L251 LINKER/LOCATER V4.66.93.0                                                        07/01/2025  14:01:01  PAGE 158


      00FF7AEAH   LINE      ---      ---       #113
      00FF7AECH   LINE      ---      ---       #114
      00FF7AF0H   LINE      ---      ---       #115
      R7          REGSYM    ---      BYTE      temp_count
      ---         BLOCKEND  CODE     ---       LVL=1
      00FF7AF0H   LINE      ---      ---       #116
      00FF7AF0H   LINE      CODE     ---       #116

      00FFB08EH   BLOCK     CODE     ---       LVL=0
      00FFB09BH   LINE      ---      ---       #117
      00FFB09BH   LINE      ---      ---       #119
      00FFB0A7H   LINE      ---      ---       #120
      00FFB0B3H   LINE      ---      ---       #121
      00FFB08EH   SYMBOL    CODE     NEAR LAB  ?L?COM0037
      ---         BLOCKEND  ---      ---       LVL=0

      00FFB0C0H   BLOCK     CODE     ---       LVL=0
      00FFB0C0H   LINE      ---      ---       #124
      00FFB0C2H   LINE      ---      ---       #125
      R3          REGSYM    ---      BYTE      crc_flag
      00FFB0C2H   BLOCK     CODE     NEAR LAB  LVL=1
      00FFB0C2H   LINE      ---      ---       #126
      00FFB0C6H   LINE      ---      ---       #128
      00FFB0D7H   LINE      ---      ---       #129
      00FFB0DBH   LINE      ---      ---       #130
      00FFB0ECH   LINE      ---      ---       #133
      00FFB0FAH   LINE      ---      ---       #134
      00FFB10CH   LINE      ---      ---       #135
      00FFB116H   LINE      ---      ---       #136
      00FFB121H   LINE      ---      ---       #137
      R6          REGSYM    ---      BYTE      ch_idx
      ---         BLOCKEND  CODE     ---       LVL=1
      ---         BLOCKEND  CODE     ---       LVL=0

      00FF79DCH   BLOCK     CODE     ---       LVL=0
      00FF79E1H   LINE      ---      ---       #141
      00FF79E1H   LINE      ---      ---       #142
      00FF79DCH   SYMBOL    CODE     NEAR LAB  ?L?COM0030
      R7          REGSYM    ---      BYTE      count
      00FF79E1H   BLOCK     CODE     NEAR LAB  LVL=1
      00FF79E1H   LINE      ---      ---       #143
      00FF79EBH   LINE      ---      ---       #145
      00FF79F0H   LINE      ---      ---       #146
      00FF79FBH   LINE      ---      ---       #147
      00FF79FDH   LINE      ---      ---       #148
      00FF7A01H   LINE      ---      ---       #149
      R7          REGSYM    ---      BYTE      temp_count
      ---         BLOCKEND  CODE     ---       LVL=1
      00FF7A01H   LINE      ---      ---       #150
      00FF7A01H   LINE      CODE     ---       #150

      00FFB122H   BLOCK     CODE     ---       LVL=0
      00FFB122H   LINE      ---      ---       #152
      00FFB122H   LINE      ---      ---       #153
      00FFB122H   BLOCK     CODE     NEAR LAB  LVL=1
      00FFB122H   LINE      ---      ---       #154
      00FFB12FH   LINE      ---      ---       #155
      00FFB138H   LINE      ---      ---       #157
      00FFB147H   LINE      ---      ---       #158
      00FFB14AH   LINE      ---      ---       #159
      DR4         REGSYM    ---      DWORD     phr
      R7          REGSYM    ---      BYTE      slot_cnt
      ---         BLOCKEND  CODE     ---       LVL=1
      00FFB14BH   LINE      ---      ---       #160
      00FFB14BH   LINE      CODE     ---       #160
L251 LINKER/LOCATER V4.66.93.0                                                        07/01/2025  14:01:01  PAGE 159



      00FF1FB7H   BLOCK     CODE     ---       LVL=0
      00FF1FB7H   LINE      ---      ---       #162
      00FF1FB7H   LINE      ---      ---       #165
      00FF1FCAH   LINE      ---      ---       #170
      ---         BLOCKEND  ---      ---       LVL=0

      00FFB14CH   BLOCK     CODE     ---       LVL=0
      00FFB14CH   LINE      ---      ---       #174
      00FFB14CH   LINE      ---      ---       #175
      R7          REGSYM    ---      BYTE      count
      00FFB14CH   BLOCK     CODE     NEAR LAB  LVL=1
      00FFB14CH   LINE      ---      ---       #176
      00FFB156H   LINE      ---      ---       #177
      00FFB15EH   LINE      ---      ---       #178
      00FFB167H   LINE      ---      ---       #179
      00FFB169H   LINE      ---      ---       #180
      00FFB16DH   LINE      ---      ---       #181
      R7          REGSYM    ---      BYTE      temp_count
      ---         BLOCKEND  CODE     ---       LVL=1
      00FFB16DH   LINE      ---      ---       #182
      00FFB16DH   LINE      CODE     ---       #182

      00FF9B7CH   BLOCK     CODE     ---       LVL=0
      00FF9B7CH   LINE      ---      ---       #184
      00FF9B82H   LINE      ---      ---       #186
      00FF9B8DH   LINE      ---      ---       #187
      00FF9B9AH   LINE      ---      ---       #188
      REG=2       REGSYM    ---      ---       nonce
      REG=7       REGSYM    ---      ---       key
      ---         BLOCKEND  ---      ---       LVL=0

      00FF9B68H   BLOCK     CODE     ---       LVL=0
      00FF9B73H   LINE      ---      ---       #190
      00FF9B73H   LINE      ---      ---       #192
      00FF9B75H   LINE      ---      ---       #193
      00FF9B79H   LINE      ---      ---       #194
      00FF9B7BH   LINE      ---      ---       #195
      00FF9B68H   SYMBOL    CODE     NEAR LAB  ?L?COM0039
      R11         REGSYM    ---      BYTE      is_disable
      ---         BLOCKEND  ---      ---       LVL=0

      00FF6FD3H   BLOCK     CODE     ---       LVL=0
      00FF6FD3H   LINE      ---      ---       #197
      00FF6FD3H   LINE      ---      ---       #199
      00FF6FDCH   LINE      ---      ---       #200
      ---         BLOCKEND  ---      ---       LVL=0

      00FF34B6H   BLOCK     CODE     ---       LVL=0
      00FF34B6H   LINE      ---      ---       #203
      00FF34B6H   LINE      ---      ---       #205
      00FF34BAH   LINE      ---      ---       #206
      00FF34BEH   LINE      ---      ---       #207
      REG=3       REGSYM    ---      ---       tx
      REG=2       REGSYM    ---      ---       rx
      ---         BLOCKEND  ---      ---       LVL=0

      00FF2778H   BLOCK     CODE     ---       LVL=0
      00FF2778H   LINE      ---      ---       #209
      00FF2778H   LINE      ---      ---       #211
      00FF277BH   LINE      ---      ---       #213
      00FF2781H   LINE      ---      ---       #214
      00FF2788H   LINE      ---      ---       #215
      00FF278FH   LINE      ---      ---       #216
      00FF2793H   LINE      ---      ---       #217
L251 LINKER/LOCATER V4.66.93.0                                                        07/01/2025  14:01:01  PAGE 160


      00FF2795H   LINE      ---      ---       #218
      00FF2798H   LINE      ---      ---       #219
      00FF279EH   LINE      ---      ---       #220
      00FF279EH   LINE      ---      ---       #222
      00FF27A6H   LINE      ---      ---       #223
      00FF27ACH   LINE      ---      ---       #224
      00FF27ACH   LINE      ---      ---       #226
      00FF27B2H   LINE      ---      ---       #227
      00FF27B2H   LINE      ---      ---       #228
      ---         BLOCKEND  ---      ---       LVL=0

      00FFB1FAH   BLOCK     CODE     ---       LVL=0
      00FFB1FAH   LINE      ---      ---       #230
      00FFB1FAH   LINE      ---      ---       #232
      00FFB1FDH   LINE      ---      ---       #234
      00FFB203H   LINE      ---      ---       #236
      00FFB20BH   LINE      ---      ---       #237
      00FFB211H   LINE      ---      ---       #238
      00FFB211H   LINE      ---      ---       #240
      00FFB215H   LINE      ---      ---       #241
      00FFB217H   LINE      ---      ---       #242
      ---         BLOCKEND  ---      ---       LVL=0

      00FFB21EH   BLOCK     CODE     ---       LVL=0
      00FFB21EH   LINE      ---      ---       #246
      00FFB21EH   LINE      ---      ---       #247
      00FFB21EH   BLOCK     CODE     NEAR LAB  LVL=1
      00FFB21EH   LINE      ---      ---       #249
      00FFB220H   LINE      ---      ---       #250
      00FFB22AH   LINE      ---      ---       #252
      00FFB238H   LINE      ---      ---       #254
      00FFB23EH   LINE      ---      ---       #256
      00FFB24CH   LINE      ---      ---       #258
      00FFB250H   LINE      ---      ---       #259
      00FFB254H   LINE      ---      ---       #260
      00FFB256H   LINE      ---      ---       #261
      00FFB258H   LINE      ---      ---       #262
      00FFB262H   LINE      ---      ---       #263
      00FFB262H   LINE      ---      ---       #264
      00FFB262H   LINE      ---      ---       #267
      00FFB26AH   LINE      ---      ---       #268
      00FFB26DH   LINE      ---      ---       #269
      00FFB26DH   LINE      ---      ---       #270
      R7          REGSYM    ---      BYTE      is_crc_pass
      R10         REGSYM    ---      BYTE      sec_err
      R6          REGSYM    ---      BYTE      crc_err
      ---         BLOCKEND  CODE     ---       LVL=1
      00FFB26EH   LINE      ---      ---       #271
      00FFB26EH   LINE      CODE     ---       #271

      00FF27B3H   BLOCK     CODE     ---       LVL=0
      00FF27B3H   LINE      ---      ---       #274
      00FF27B3H   LINE      ---      ---       #276
      00FF27B6H   LINE      ---      ---       #277
      ---         BLOCKEND  ---      ---       LVL=0

      00FF792BH   BLOCK     CODE     ---       LVL=0
      00FF792BH   LINE      ---      ---       #280
      00FF792BH   LINE      ---      ---       #283
      00FF792DH   LINE      ---      ---       #284
      ---         BLOCKEND  ---      ---       LVL=0

      00FF3C63H   BLOCK     CODE     ---       LVL=0
      00FF3C63H   LINE      ---      ---       #287
      00FF3C63H   LINE      ---      ---       #289
L251 LINKER/LOCATER V4.66.93.0                                                        07/01/2025  14:01:01  PAGE 161


      ---         BLOCKEND  ---      ---       LVL=0

      00FF3BE0H   BLOCK     CODE     ---       LVL=0
      00FF3BE0H   LINE      ---      ---       #292
      00FF3BE2H   LINE      ---      ---       #293
      00FF3BE2H   BLOCK     CODE     NEAR LAB  LVL=1
      00FF3BE2H   LINE      ---      ---       #294
      00FF3BE6H   LINE      ---      ---       #300
      00FF3BEAH   LINE      ---      ---       #302
      00FF3BEEH   LINE      ---      ---       #305
      00FF3BF1H   LINE      ---      ---       #306
      00FF3C08H   LINE      ---      ---       #307
      00FF3C15H   LINE      ---      ---       #310
      00FF3C1DH   LINE      ---      ---       #311
      00FF3C46H   LINE      ---      ---       #316
      00FF3C4EH   LINE      ---      ---       #324
      00FF3C50H   LINE      ---      ---       #327
      00FF3C59H   LINE      ---      ---       #329
      REG=6       REGSYM    ---      ---       hwLrxBuf
      REG=7       REGSYM    ---      ---       swShareBufWo
      R10         REGSYM    ---      BYTE      pktLen
      0000B627H   SYMBOL    EDATA    ---       rxPhyStatus
      ---         BLOCKEND  CODE     ---       LVL=1
      00FF3C60H   LINE      ---      ---       #330
      00FF3C60H   LINE      CODE     ---       #330

      00FF1FF7H   BLOCK     CODE     ---       LVL=0
      00FF1FF7H   LINE      ---      ---       #333
      00FF1FF7H   LINE      ---      ---       #335
      00FF2001H   LINE      ---      ---       #336
      00FF2004H   LINE      ---      ---       #337
      00FF2018H   LINE      ---      ---       #338
      00FF201EH   LINE      ---      ---       #341
      00FF2027H   LINE      ---      ---       #342
      00FF2028H   LINE      ---      ---       #343
      00FF202BH   LINE      ---      ---       #344
      00FF2040H   LINE      ---      ---       #345
      00FF2043H   LINE      ---      ---       #346
      00FF2043H   LINE      ---      ---       #348
      ---         BLOCKEND  ---      ---       LVL=0

      00FF1FE8H   BLOCK     CODE     ---       LVL=0
      00FF1FECH   LINE      ---      ---       #350
      00FF1FEEH   LINE      ---      ---       #353
      00FF1FF2H   LINE      ---      ---       #355
      00FF1FF5H   LINE      ---      ---       #356
      00FF1FF5H   LINE      ---      ---       #362
      00FF1FE8H   SYMBOL    CODE     NEAR LAB  ?L?COM0044
      R7          REGSYM    ---      BYTE      queue_type
      ---         BLOCKEND  ---      ---       LVL=0

      00FF3CAEH   BLOCK     CODE     ---       LVL=0
      00FF3CB2H   LINE      ---      ---       #366
      00FF3CB6H   LINE      ---      ---       #368
      00FF3CBDH   LINE      ---      ---       #369
      00FF3CC4H   LINE      ---      ---       #370
      00FF3CC9H   LINE      ---      ---       #372
      00FF3CCCH   LINE      ---      ---       #377
      00FF3CCEH   LINE      ---      ---       #378
      00FF3CAEH   SYMBOL    CODE     NEAR LAB  ?L?COM0051
      R15         REGSYM    ---      BYTE      queue_type
      00FF3CD3H   BLOCK     CODE     NEAR LAB  LVL=1
      00FF3CD3H   LINE      ---      ---       #381
      00FF3CE2H   LINE      ---      ---       #382
      00FF3CECH   LINE      ---      ---       #385
L251 LINKER/LOCATER V4.66.93.0                                                        07/01/2025  14:01:01  PAGE 162


      00FF3CF1H   LINE      ---      ---       #390
      00FF3CF3H   LINE      ---      ---       #392
      00FF3CF5H   LINE      ---      ---       #398
      00FF3CFEH   LINE      ---      ---       #400
      00FF3D01H   LINE      ---      ---       #401
      00FF3D01H   LINE      ---      ---       #403
      00FF3D04H   LINE      ---      ---       #404
      00FF3D06H   LINE      ---      ---       #405
      00FF3D0FH   LINE      ---      ---       #406
      00FF3D12H   LINE      ---      ---       #407
      00FF3D12H   LINE      ---      ---       #408
      0000B694H   SYMBOL    EDATA    ---       phr
      ---         BLOCKEND  CODE     ---       LVL=1
      00FF3D14H   LINE      ---      ---       #410
      00FF3D16H   LINE      ---      ---       #411
      00FF3D1CH   LINE      ---      ---       #412
      00FF3D1FH   LINE      ---      ---       #413
      00FF3D23H   LINE      ---      ---       #414
      00FF3D23H   LINE      ---      ---       #415
      00FF3D23H   LINE      CODE     ---       #415

      00FF9B58H   BLOCK     CODE     ---       LVL=0
      00FF9B58H   LINE      ---      ---       #417
      00FF9B58H   LINE      ---      ---       #419
      00FF9B5DH   LINE      ---      ---       #420
      00FF9B63H   LINE      ---      ---       #421
      00FF9B67H   LINE      ---      ---       #422
      ---         BLOCKEND  ---      ---       LVL=0

      00FFB26FH   BLOCK     CODE     ---       LVL=0
      00FFB26FH   LINE      ---      ---       #424
      00FFB26FH   LINE      ---      ---       #426
      00FFB279H   LINE      ---      ---       #427
      00FFB27BH   LINE      ---      ---       #428
      00FFB283H   LINE      ---      ---       #429
      00FFB289H   LINE      ---      ---       #430
      00FFB289H   LINE      ---      ---       #432
      00FFB28DH   LINE      ---      ---       #433
      ---         BLOCKEND  ---      ---       LVL=0

      00FF34BFH   BLOCK     CODE     ---       LVL=0
      00FF34BFH   LINE      ---      ---       #435
      00FF34BFH   LINE      ---      ---       #436
      00FF34BFH   BLOCK     CODE     NEAR LAB  LVL=1
      00FF34BFH   LINE      ---      ---       #439
      00FF34CAH   LINE      ---      ---       #443
      00FF34CDH   LINE      ---      ---       #445
      00FF34D1H   LINE      ---      ---       #446
      00FF34D4H   LINE      ---      ---       #447
      WR6         REGSYM    ---      WORD      macIntEventQueue
      ---         BLOCKEND  CODE     ---       LVL=1
      ---         BLOCKEND  CODE     ---       LVL=0

      00FF33C6H   BLOCK     CODE     ---       LVL=0
      00FF33C8H   LINE      ---      ---       #451
      00FF33C8H   LINE      ---      ---       #452
      00FF33C6H   SYMBOL    CODE     NEAR LAB  ?L?COM003B
      00FF33C8H   BLOCK     CODE     NEAR LAB  LVL=1
      00FF33C8H   LINE      ---      ---       #456
      00FF33D0H   LINE      ---      ---       #457
      00FF33D3H   LINE      ---      ---       #458
      00FF33D9H   LINE      ---      ---       #459
      00FF33DCH   LINE      ---      ---       #461
      00FF33E2H   LINE      ---      ---       #465
      00FF33E5H   LINE      ---      ---       #466
L251 LINKER/LOCATER V4.66.93.0                                                        07/01/2025  14:01:01  PAGE 163


      00FF33EBH   LINE      ---      ---       #468
      00FF33F9H   LINE      ---      ---       #472
      00FF3415H   LINE      ---      ---       #474
      00FF342FH   LINE      ---      ---       #475
      00FF3432H   LINE      ---      ---       #476
      00FF3432H   LINE      ---      ---       #477
      00FF3440H   LINE      ---      ---       #478
      00FF3441H   LINE      ---      ---       #479
      00FF3449H   LINE      ---      ---       #481
      00FF345BH   LINE      ---      ---       #485
      00FF3471H   LINE      ---      ---       #487
      00FF3487H   LINE      ---      ---       #488
      00FF348AH   LINE      ---      ---       #489
      00FF348AH   LINE      ---      ---       #490
      00FF34ACH   LINE      ---      ---       #491
      00FF34B2H   LINE      ---      ---       #492
      00FF34B5H   LINE      ---      ---       #493
      0000B696H   SYMBOL    EDATA    ---       phr
      ---         BLOCKEND  CODE     ---       LVL=1
      00FF34B5H   LINE      ---      ---       #494
      00FF34B5H   LINE      CODE     ---       #494

      00FFB28EH   BLOCK     CODE     ---       LVL=0
      00FFB28EH   LINE      ---      ---       #496
      00FFB28EH   LINE      ---      ---       #498
      00FFB294H   LINE      ---      ---       #499
      00FFB297H   LINE      ---      ---       #503
      00FFB29AH   LINE      ---      ---       #505
      00FFB29AH   LINE      ---      ---       #506
      00FFB29DH   LINE      ---      ---       #507
      00FFB2A2H   LINE      ---      ---       #508
      00FFB2A2H   LINE      ---      ---       #509
      WR6         REGSYM    ---      WORD      funEvent
      ---         BLOCKEND  ---      ---       LVL=0

      00FFB2A3H   BLOCK     CODE     ---       LVL=0
      00FFB2A3H   LINE      ---      ---       #511
      00FFB2A3H   LINE      ---      ---       #513
      00FFB2AFH   LINE      ---      ---       #514
      00FFB2BBH   LINE      ---      ---       #515
      00FFB2C1H   LINE      ---      ---       #516
      00FFB2C5H   LINE      ---      ---       #517
      ---         BLOCKEND  ---      ---       LVL=0

      00FFB2C6H   BLOCK     CODE     ---       LVL=0
      00FFB2C6H   LINE      ---      ---       #519
      00FFB2C6H   LINE      ---      ---       #521
      00FFB2CDH   LINE      ---      ---       #522
      00FFB2D2H   LINE      ---      ---       #523
      00FFB2DAH   LINE      ---      ---       #524
      00FFB2E6H   LINE      ---      ---       #525
      ---         BLOCKEND  ---      ---       LVL=0

      00FFB2E7H   BLOCK     CODE     ---       LVL=0
      00FFB2E7H   LINE      ---      ---       #527
      00FFB2E7H   LINE      ---      ---       #529
      00FFB2ECH   LINE      ---      ---       #530
      ---         BLOCKEND  ---      ---       LVL=0

      00FF3618H   BLOCK     CODE     ---       LVL=0
      00FF3618H   LINE      ---      ---       #532
      00FF361AH   LINE      ---      ---       #534
      00FF3620H   LINE      ---      ---       #536
      00FF3623H   LINE      ---      ---       #537
      00FF3623H   LINE      ---      ---       #539
L251 LINKER/LOCATER V4.66.93.0                                                        07/01/2025  14:01:01  PAGE 164


      00FF362CH   LINE      ---      ---       #541
      00FF3638H   LINE      ---      ---       #544
      00FF363CH   LINE      ---      ---       #545
      00FF363CH   LINE      ---      ---       #547
      00FF3641H   LINE      ---      ---       #549
      00FF364DH   LINE      ---      ---       #552
      00FF3651H   LINE      ---      ---       #553
      00FF3651H   LINE      ---      ---       #556
      00FF3652H   LINE      ---      ---       #557
      ---         BLOCKEND  ---      ---       LVL=0

      00FFB2EDH   BLOCK     CODE     ---       LVL=0
      00FFB2EDH   LINE      ---      ---       #559
      00FFB2EFH   LINE      ---      ---       #560
      00FFB2EFH   BLOCK     CODE     NEAR LAB  LVL=1
      00FFB2EFH   LINE      ---      ---       #563
      00FFB2F5H   LINE      ---      ---       #565
      00FFB2F5H   LINE      ---      ---       #566
      00FFB2F5H   LINE      ---      ---       #572
      00FFB304H   LINE      ---      ---       #576
      00FFB30EH   LINE      ---      ---       #577
      00FFB31EH   LINE      ---      ---       #579
      00FFB326H   LINE      ---      ---       #580
      00FFB32CH   LINE      ---      ---       #581
      DR12        REGSYM    ---      DWORD     nextAnchor
      ---         BLOCKEND  CODE     ---       LVL=1
      00FFB32CH   LINE      ---      ---       #583
      00FFB32CH   LINE      CODE     ---       #583

      00FF4A90H   BLOCK     CODE     ---       LVL=0
      00FF4A90H   LINE      ---      ---       #585
      00FF4A90H   LINE      ---      ---       #587
      00FF4A94H   LINE      ---      ---       #588
      ---         BLOCKEND  ---      ---       LVL=0

      ---         MODULE    ---      ---       mac_htrp_rx
      00FF1F80H   PUBLIC    CODE     ---       mac_htrp_rx_set_state
      00FF3655H   PUBLIC    CODE     ---       mac_htrp_rx_get_state
      00FF1BB5H   PUBLIC    CODE     ---       mac_htrp_rx_handler
      00FFB32FH   PUBLIC    CODE     ---       mac_htrp_rx_init
      00FF7D28H   PUBLIC    CODE     ---       mac_htrp_rx_cal_drift_time
      00FF1AFCH   PUBLIC    CODE     ---       mac_htrp_rx_set_rf_task
      00FF7D95H   PUBLIC    CODE     ---       mac_htrp_rx_set_next_task_and_channel
      00FF7E56H   PUBLIC    CODE     ---       mac_htrp_rx_burst_rx_done
      00FFB358H   PUBLIC    CODE     ---       mac_htrp_rx_slot_rx_done
      00FF7FEAH   PUBLIC    CODE     ---       mac_htrp_rx_slot_tx_done
      00FF7AF1H   PUBLIC    CODE     ---       mac_htrp_rx_set_period_next_task
      00FF7F88H   PUBLIC    CODE     ---       mac_htrp_rx_period_rx_done
      00FFB44FH   PUBLIC    CODE     ---       mac_htrp_rx_period_tx_done
      0000B67CH   PUBLIC    EDATA    BYTE      g_mac_htrp_rx_state
      0000B67DH   PUBLIC    EDATA    BYTE      g_mac_htrp_rx_set_ch_time
      0000B67EH   PUBLIC    EDATA    BYTE      g_mac_htrp_rx_sync_time
      00000080H   SFRSYM    DATA     BYTE      P0

      00FF1F80H   BLOCK     CODE     ---       LVL=0
      00FF1F80H   LINE      ---      ---       #114
      00FF1F80H   LINE      ---      ---       #116
      00FF1F84H   LINE      ---      ---       #117
      R11         REGSYM    ---      BYTE      state
      ---         BLOCKEND  ---      ---       LVL=0

      00FF3655H   BLOCK     CODE     ---       LVL=0
      00FF3655H   LINE      ---      ---       #119
      00FF3655H   LINE      ---      ---       #121
      00FF3659H   LINE      ---      ---       #122
L251 LINKER/LOCATER V4.66.93.0                                                        07/01/2025  14:01:01  PAGE 165


      ---         BLOCKEND  ---      ---       LVL=0

      00FF7D0DH   BLOCK     CODE     ---       LVL=0
      00FF7D28H   LINE      ---      ---       #124
      00FF7D28H   LINE      ---      ---       #126
      00FF7D36H   LINE      ---      ---       #127
      00FF7D39H   LINE      ---      ---       #128
      00FF7D45H   LINE      ---      ---       #129
      00FF7D4EH   LINE      ---      ---       #141
      00FF7D6DH   LINE      ---      ---       #142
      00FF7D6DH   LINE      ---      ---       #143
      00FF7D72H   LINE      ---      ---       #144
      00FF7D72H   LINE      ---      ---       #145
      00FF7D72H   LINE      ---      ---       #146
      00FF7D94H   LINE      ---      ---       #147
      00FF7D94H   LINE      ---      ---       #148
      00FF7D0DH   SYMBOL    CODE     NEAR LAB  ?L?COM000D
      ---         BLOCKEND  ---      ---       LVL=0

      00FF1AF8H   BLOCK     CODE     ---       LVL=0
      00FF1AFCH   LINE      ---      ---       #150
      00FF1B04H   LINE      ---      ---       #151
      00FF1AF8H   SYMBOL    CODE     NEAR LAB  ?L?COM0045
      R13         REGSYM    ---      BYTE      need_tx
      REG=7       REGSYM    ---      ---       time
      00FF1B04H   BLOCK     CODE     NEAR LAB  LVL=1
      00FF1B04H   LINE      ---      ---       #155
      00FF1B0AH   LINE      ---      ---       #156
      00FF1B0FH   LINE      ---      ---       #157
      00FF1B15H   LINE      ---      ---       #158
      00FF1B19H   LINE      ---      ---       #159
      00FF1B1FH   LINE      ---      ---       #160
      00FF1B33H   LINE      ---      ---       #161
      00FF1B35H   LINE      ---      ---       #162
      00FF1B3AH   LINE      ---      ---       #163
      00FF1B40H   LINE      ---      ---       #164
      00FF1B40H   LINE      ---      ---       #165
      00FF1B4CH   LINE      ---      ---       #166
      00FF1B58H   LINE      ---      ---       #167
      00FF1B60H   LINE      ---      ---       #169
      00FF1B64H   LINE      ---      ---       #170
      00FF1B6AH   LINE      ---      ---       #171
      00FF1B6FH   LINE      ---      ---       #172
      00FF1B73H   LINE      ---      ---       #173
      00FF1B77H   LINE      ---      ---       #174
      00FF1B7DH   LINE      ---      ---       #175
      00FF1B83H   LINE      ---      ---       #176
      00FF1B87H   LINE      ---      ---       #177
      00FF1B8FH   LINE      ---      ---       #178
      00FF1B8FH   LINE      ---      ---       #180
      00FF1B93H   LINE      ---      ---       #182
      00FF1B99H   LINE      ---      ---       #183
      00FF1B9CH   LINE      ---      ---       #184
      00FF1B9EH   LINE      ---      ---       #185
      00FF1BA1H   LINE      ---      ---       #186
      00FF1BA4H   LINE      ---      ---       #187
      00FF1BA4H   LINE      ---      ---       #188
      DR8         REGSYM    ---      LONG      rtc
      0000B53DH   SYMBOL    EDATA    ---       taskControl
      ---         BLOCKEND  CODE     ---       LVL=1
      00FF1BB0H   LINE      ---      ---       #189
      00FF1BB0H   LINE      CODE     ---       #189

      00FF7D95H   BLOCK     CODE     ---       LVL=0
      00FF7D95H   LINE      ---      ---       #193
L251 LINKER/LOCATER V4.66.93.0                                                        07/01/2025  14:01:01  PAGE 166


      00FF7D9FH   LINE      ---      ---       #194
      0000B4CAH   SYMBOL    EDATA    BYTE      need_tx
      0000B4CBH   SYMBOL    EDATA    DWORD     rtc
      00FF7D9FH   BLOCK     CODE     NEAR LAB  LVL=1
      00FF7D9FH   LINE      ---      ---       #195
      00FF7DC2H   LINE      ---      ---       #199
      00FF7DD9H   LINE      ---      ---       #200
      00FF7DECH   LINE      ---      ---       #201
      00FF7E01H   LINE      ---      ---       #202
      00FF7E05H   LINE      ---      ---       #203
      00FF7E05H   LINE      ---      ---       #205
      00FF7E08H   LINE      ---      ---       #206
      00FF7E0EH   LINE      ---      ---       #208
      00FF7E16H   LINE      ---      ---       #209
      00FF7E20H   LINE      ---      ---       #210
      00FF7E40H   LINE      ---      ---       #211
      00FF7E4BH   LINE      ---      ---       #212
      DR12        REGSYM    ---      DWORD     now
      R9          REGSYM    ---      BYTE      count
      0000B4CFH   SYMBOL    EDATA    ---       time
      ---         BLOCKEND  CODE     ---       LVL=1
      00FF7E53H   LINE      ---      ---       #213
      00FF7E53H   LINE      CODE     ---       #213

      00FF7E56H   BLOCK     CODE     ---       LVL=0
      00FF7E56H   LINE      ---      ---       #215
      00FF7E56H   LINE      ---      ---       #216
      00FF7E56H   BLOCK     CODE     NEAR LAB  LVL=1
      00FF7E56H   LINE      ---      ---       #217
      00FF7E6EH   LINE      ---      ---       #219
      00FF7E71H   LINE      ---      ---       #222
      00FF7E78H   LINE      ---      ---       #224
      00FF7E7AH   LINE      ---      ---       #225
      DR4         REGSYM    ---      DWORD     rtc
      ---         BLOCKEND  CODE     ---       LVL=1
      ---         BLOCKEND  CODE     ---       LVL=0

      00FFB358H   BLOCK     CODE     ---       LVL=0
      00FFB358H   LINE      ---      ---       #229
      00FFB35AH   LINE      ---      ---       #230
      00FFB35AH   BLOCK     CODE     NEAR LAB  LVL=1
      00FFB35AH   LINE      ---      ---       #231
      00FFB372H   LINE      ---      ---       #233
      00FFB375H   LINE      ---      ---       #235
      00FFB37BH   LINE      ---      ---       #237
      00FFB37FH   LINE      ---      ---       #240
      00FFB386H   LINE      ---      ---       #242
      00FFB389H   LINE      ---      ---       #243
      DR12        REGSYM    ---      DWORD     rtc
      ---         BLOCKEND  CODE     ---       LVL=1
      ---         BLOCKEND  CODE     ---       LVL=0

      00FF7FEAH   BLOCK     CODE     ---       LVL=0
      00FF7FEAH   LINE      ---      ---       #247
      00FF7FEAH   LINE      ---      ---       #249
      ---         BLOCKEND  ---      ---       LVL=0

      00FF7AF1H   BLOCK     CODE     ---       LVL=0
      00FF7AF1H   LINE      ---      ---       #252
      00FF7AF9H   LINE      ---      ---       #253
      DR12        REGSYM    ---      DWORD     sync_time
      0000B589H   SYMBOL    EDATA    BYTE      is_timeout
      00FF7AF9H   BLOCK     CODE     NEAR LAB  LVL=1
      00FF7AF9H   LINE      ---      ---       #254
      00FF7AFEH   LINE      ---      ---       #255
L251 LINKER/LOCATER V4.66.93.0                                                        07/01/2025  14:01:01  PAGE 167


      00FF7AFEH   LINE      ---      ---       #256
      00FF7AFEH   LINE      ---      ---       #259
      00FF7B1CH   LINE      ---      ---       #260
      00FF7B1CH   LINE      ---      ---       #261
      00FF7B2AH   LINE      ---      ---       #262
      00FF7B3BH   LINE      ---      ---       #263
      00FF7B4CH   LINE      ---      ---       #264
      00FF7B52H   LINE      ---      ---       #265
      00FF7B54H   LINE      ---      ---       #266
      00FF7B60H   LINE      ---      ---       #267
      00FF7B6BH   LINE      ---      ---       #268
      00FF7B6BH   LINE      ---      ---       #269
      00FF7B7FH   LINE      ---      ---       #270
      00FF7B87H   LINE      ---      ---       #271
      00FF7B90H   LINE      ---      ---       #272
      00FF7B92H   LINE      ---      ---       #273
      00FF7BA7H   LINE      ---      ---       #274
      00FF7BADH   LINE      ---      ---       #275
      00FF7BADH   LINE      ---      ---       #276
      DR24        REGSYM    ---      DWORD     now
      0000B58AH   SYMBOL    EDATA    BYTE      count
      R11         REGSYM    ---      BYTE      ch_count
      DR24        REGSYM    ---      DWORD     diff
      0000B58BH   SYMBOL    EDATA    ---       time
      00FF7BAFH   BLOCK     CODE     NEAR LAB  LVL=2
      00FF7BAFH   LINE      ---      ---       #277
      00FF7BBAH   LINE      ---      ---       #278
      00FF7BCEH   LINE      ---      ---       #279
      R7          REGSYM    ---      BYTE      diff_count
      ---         BLOCKEND  CODE     ---       LVL=2
      00FF7BD4H   BLOCK     CODE     NEAR LAB  LVL=2
      00FF7BD4H   LINE      ---      ---       #280
      00FF7BD4H   LINE      ---      ---       #281
      00FF7BD6H   LINE      ---      ---       #282
      00FF7BEFH   LINE      ---      ---       #283
      00FF7BF8H   LINE      ---      ---       #284
      00FF7BFAH   LINE      ---      ---       #285
      R7          REGSYM    ---      BYTE      diff_count
      ---         BLOCKEND  CODE     ---       LVL=2
      00FF7BFCH   LINE      ---      ---       #286
      00FF7C07H   LINE      ---      ---       #287
      00FF7C1BH   LINE      ---      ---       #288
      00FF7C1BH   LINE      CODE     ---       #288
      ---         BLOCKEND  CODE     ---       LVL=0

      00FF7F88H   BLOCK     CODE     ---       LVL=0
      00FF7F88H   LINE      ---      ---       #337
      00FF7F8AH   LINE      ---      ---       #338
      00FF7F8AH   BLOCK     CODE     NEAR LAB  LVL=1
      00FF7F8AH   LINE      ---      ---       #339
      00FF7FA1H   LINE      ---      ---       #341
      DR12        REGSYM    ---      DWORD     rtc
      00FF7FA6H   BLOCK     CODE     NEAR LAB  LVL=2
      00FF7FA6H   LINE      ---      ---       #342
      00FF7FB3H   LINE      ---      ---       #344
      00FF7FCDH   LINE      ---      ---       #349
      DR4         REGSYM    ---      DWORD     phr
      R3          REGSYM    ---      BYTE      blk_num
      ---         BLOCKEND  CODE     ---       LVL=2
      00FF7FD1H   LINE      ---      ---       #350
      00FF7FD1H   LINE      ---      ---       #352
      00FF7FD6H   LINE      ---      ---       #355
      00FF7FDDH   LINE      ---      ---       #357
      00FF7FDFH   LINE      ---      ---       #358
      00FF7FDFH   LINE      CODE     ---       #358
L251 LINKER/LOCATER V4.66.93.0                                                        07/01/2025  14:01:01  PAGE 168


      ---         BLOCKEND  CODE     ---       LVL=0

      00FFB44FH   BLOCK     CODE     ---       LVL=0
      00FFB44FH   LINE      ---      ---       #362
      00FFB44FH   LINE      ---      ---       #363
      00FFB44FH   BLOCK     CODE     NEAR LAB  LVL=1
      00FFB44FH   LINE      ---      ---       #366
      00FFB452H   LINE      ---      ---       #367
      00FFB458H   LINE      ---      ---       #369
      00FFB460H   LINE      ---      ---       #370
      00FFB46AH   LINE      ---      ---       #371
      00FFB48BH   LINE      ---      ---       #372
      0000B59FH   SYMBOL    EDATA    ---       time
      ---         BLOCKEND  CODE     ---       LVL=1
      ---         BLOCKEND  CODE     ---       LVL=0

      00FF1BB5H   BLOCK     CODE     ---       LVL=0
      00FF1BB5H   LINE      ---      ---       #375
      00FF1BB7H   LINE      ---      ---       #376
      00FF1BB7H   BLOCK     CODE     NEAR LAB  LVL=1
      00FF1BB7H   LINE      ---      ---       #377
      00FF1BB9H   LINE      ---      ---       #379
      00FF1BD7H   LINE      ---      ---       #380
      00FF1BD7H   LINE      ---      ---       #381
      WR14        REGSYM    ---      WORD      macFunEventQueue
      00FF1BD7H   BLOCK     CODE     NEAR LAB  LVL=2
      00FF1BD7H   LINE      ---      ---       #384
      00FF1BDAH   LINE      ---      ---       #385
      00FF1BDDH   LINE      ---      ---       #392
      00FF1BDFH   LINE      ---      ---       #394
      00FF1BF1H   LINE      ---      ---       #396
      00FF1C25H   LINE      ---      ---       #398
      00FF1C2DH   LINE      ---      ---       #399
      00FF1C33H   LINE      ---      ---       #400
      00FF1C3BH   LINE      ---      ---       #401
      00FF1C41H   LINE      ---      ---       #403
      00FF1C47H   LINE      ---      ---       #404
      00FF1C4AH   LINE      ---      ---       #406
      00FF1C4AH   LINE      ---      ---       #408
      00FF1C50H   LINE      ---      ---       #409
      00FF1C63H   LINE      ---      ---       #411
      00FF1C72H   LINE      ---      ---       #412
      00FF1C72H   LINE      ---      ---       #413
      00FF1C78H   LINE      ---      ---       #414
      00FF1C7AH   LINE      ---      ---       #416
      00FF1C7AH   LINE      ---      ---       #417
      00FF1C82H   LINE      ---      ---       #418
      00FF1C84H   LINE      ---      ---       #420
      00FF1C84H   LINE      ---      ---       #421
      00FF1C8FH   LINE      ---      ---       #422
      00FF1C8FH   LINE      ---      ---       #424
      00FF1C8FH   LINE      ---      ---       #425
      00FF1C95H   LINE      ---      ---       #426
      00FF1CB7H   LINE      ---      ---       #427
      00FF1CC2H   LINE      ---      ---       #429
      00FF1CC9H   LINE      ---      ---       #431
      00FF1CCFH   LINE      ---      ---       #433
      00FF1CD6H   LINE      ---      ---       #435
      0000B3D0H   SYMBOL    EDATA    ---       cb
      0000B3D8H   SYMBOL    EDATA    ---       time
      ---         BLOCKEND  CODE     ---       LVL=2
      00FF1CD8H   BLOCK     CODE     NEAR LAB  LVL=2
      00FF1CD8H   LINE      ---      ---       #437
      00FF1CDAH   LINE      ---      ---       #439
      00FF1CDAH   LINE      ---      ---       #440
L251 LINKER/LOCATER V4.66.93.0                                                        07/01/2025  14:01:01  PAGE 169


      00FF1CDFH   LINE      ---      ---       #441
      00FF1CE7H   LINE      ---      ---       #443
      00FF1CEAH   LINE      ---      ---       #445
      00FF1CF1H   LINE      ---      ---       #446
      00FF1CF6H   LINE      ---      ---       #448
      00FF1D00H   LINE      ---      ---       #452
      00FF1D05H   LINE      ---      ---       #453
      00FF1D08H   LINE      ---      ---       #454
      00FF1D0AH   LINE      ---      ---       #455
      00FF1D0CH   LINE      ---      ---       #456
      00FF1D10H   LINE      ---      ---       #457
      00FF1D10H   LINE      ---      ---       #458
      00FF1D12H   LINE      ---      ---       #459
      00FF1D12H   LINE      ---      ---       #461
      00FF1D19H   LINE      ---      ---       #463
      00FF1D30H   LINE      ---      ---       #464
      00FF1D30H   LINE      ---      ---       #465
      00FF1D32H   LINE      ---      ---       #470
      00FF1D48H   LINE      ---      ---       #471
      00FF1D4BH   LINE      ---      ---       #472
      00FF1D4BH   LINE      ---      ---       #475
      00FF1D52H   LINE      ---      ---       #476
      00FF1D57H   LINE      ---      ---       #477
      00FF1D5AH   LINE      ---      ---       #478
      00FF1D5AH   LINE      ---      ---       #480
      00FF1D5EH   LINE      ---      ---       #482
      00FF1D68H   LINE      ---      ---       #483
      00FF1D6AH   LINE      ---      ---       #484
      00FF1D70H   LINE      ---      ---       #485
      00FF1D76H   LINE      ---      ---       #486
      00FF1D79H   LINE      ---      ---       #487
      00FF1D7BH   LINE      ---      ---       #488
      00FF1D7DH   LINE      ---      ---       #489
      00FF1D81H   LINE      ---      ---       #490
      00FF1D81H   LINE      ---      ---       #491
      00FF1D84H   LINE      ---      ---       #492
      00FF1D8EH   LINE      ---      ---       #493
      00FF1D99H   LINE      ---      ---       #494
      00FF1D9DH   LINE      ---      ---       #495
      00FF1DA0H   LINE      ---      ---       #496
      00FF1DA0H   LINE      ---      ---       #497
      00FF1DA2H   LINE      ---      ---       #499
      00FF1DA2H   LINE      ---      ---       #500
      00FF1DA7H   LINE      ---      ---       #501
      00FF1DADH   LINE      ---      ---       #503
      00FF1DB1H   LINE      ---      ---       #505
      00FF1DB4H   LINE      ---      ---       #507
      00FF1DB7H   LINE      ---      ---       #509
      00FF1DC6H   LINE      ---      ---       #510
      00FF1DC8H   LINE      ---      ---       #511
      00FF1DCAH   LINE      ---      ---       #512
      00FF1DCCH   LINE      ---      ---       #513
      00FF1DCEH   LINE      ---      ---       #514
      00FF1DCEH   LINE      ---      ---       #515
      00FF1DD8H   LINE      ---      ---       #516
      0000B3E2H   SYMBOL    EDATA    DWORD     rtc
      0000B3E6H   SYMBOL    EDATA    ---       time
      ---         BLOCKEND  CODE     ---       LVL=2
      00FF1DE0H   BLOCK     CODE     NEAR LAB  LVL=2
      00FF1DE0H   LINE      ---      ---       #520
      00FF1DF1H   LINE      ---      ---       #521
      00FF1DF1H   LINE      ---      ---       #522
      00FF1DFFH   LINE      ---      ---       #523
      00FF1E01H   LINE      ---      ---       #524
      00FF1E07H   LINE      ---      ---       #526
L251 LINKER/LOCATER V4.66.93.0                                                        07/01/2025  14:01:01  PAGE 170


      00FF1E0FH   LINE      ---      ---       #527
      00FF1E19H   LINE      ---      ---       #528
      00FF1E3AH   LINE      ---      ---       #529
      00FF1E3BH   LINE      ---      ---       #530
      00FF1E3BH   LINE      ---      ---       #531
      00FF1E3DH   LINE      ---      ---       #533
      00FF1E3DH   LINE      ---      ---       #534
      00FF1E40H   LINE      ---      ---       #535
      00FF1E49H   LINE      ---      ---       #536
      00FF1E4BH   LINE      ---      ---       #538
      00FF1E4BH   LINE      ---      ---       #539
      00FF1E59H   LINE      ---      ---       #540
      00FF1E5CH   LINE      ---      ---       #541
      00FF1E5EH   LINE      ---      ---       #542
      00FF1E64H   LINE      ---      ---       #544
      00FF1E6CH   LINE      ---      ---       #545
      00FF1E76H   LINE      ---      ---       #546
      00FF1E97H   LINE      ---      ---       #547
      00FF1E9FH   LINE      ---      ---       #548
      00FF1EA7H   LINE      ---      ---       #549
      00FF1EA7H   LINE      ---      ---       #550
      00FF1EA7H   LINE      ---      ---       #552
      00FF1EAAH   LINE      ---      ---       #553
      00FF1EACH   LINE      ---      ---       #555
      00FF1EB6H   LINE      ---      ---       #556
      DR4         REGSYM    ---      DWORD     rtc
      ---         BLOCKEND  CODE     ---       LVL=2
      00FF1EBAH   LINE      ---      ---       #557
      00FF1EBCH   LINE      ---      ---       #558
      00FF1EC0H   LINE      ---      ---       #559
      00FF1EC0H   LINE      ---      ---       #560
      00FF1EC8H   LINE      ---      ---       #561
      00FF1ECCH   LINE      ---      ---       #563
      00FF1ECFH   LINE      ---      ---       #564
      00FF1ECFH   LINE      CODE     ---       #564
      ---         BLOCKEND  CODE     ---       LVL=0

      00FFB32FH   BLOCK     CODE     ---       LVL=0
      00FFB32FH   LINE      ---      ---       #1093
      00FFB331H   LINE      ---      ---       #1094
      00FFB331H   BLOCK     CODE     NEAR LAB  LVL=1
      00FFB331H   LINE      ---      ---       #1095
      00FFB331H   LINE      ---      ---       #1097
      00FFB335H   LINE      ---      ---       #1100
      00FFB33BH   LINE      ---      ---       #1101
      REG=7       REGSYM    ---      ---       pRxSwqBlk
      ---         BLOCKEND  CODE     ---       LVL=1
      00FFB355H   LINE      ---      ---       #1105
      00FFB355H   LINE      CODE     ---       #1105
      00FF1ED1H   LINE      ---      ---       #565
      00FF1ED4H   LINE      ---      ---       #566
      00FF1EE5H   LINE      ---      ---       #567
      00FF1EE8H   LINE      ---      ---       #568
      00FF1EE8H   LINE      ---      ---       #571
      00FF1EEFH   LINE      ---      ---       #572
      00FF1EF2H   LINE      ---      ---       #573
      00FF1EF6H   LINE      ---      ---       #574
      00FF1EF6H   LINE      ---      ---       #576
      00FF1EF8H   LINE      ---      ---       #578
      00FF1EF8H   LINE      ---      ---       #579
      00FF1EFDH   LINE      ---      ---       #580
      00FF1F09H   LINE      ---      ---       #582
      00FF1F0CH   LINE      ---      ---       #583
      00FF1F11H   LINE      ---      ---       #585
      00FF1F13H   LINE      ---      ---       #587
L251 LINKER/LOCATER V4.66.93.0                                                        07/01/2025  14:01:01  PAGE 171


      00FF1F17H   LINE      ---      ---       #588
      00FF1F19H   LINE      ---      ---       #589
      00FF1F19H   LINE      ---      ---       #590
      00FF1F1BH   LINE      ---      ---       #592
      00FF1F1BH   LINE      ---      ---       #593
      00FF1F24H   LINE      ---      ---       #594
      00FF1F27H   LINE      ---      ---       #595
      00FF1F33H   LINE      ---      ---       #598
      00FF1F39H   LINE      ---      ---       #600
      00FF1F41H   LINE      ---      ---       #602
      00FF1F44H   LINE      ---      ---       #603
      00FF1F47H   LINE      ---      ---       #604
      00FF1F47H   LINE      ---      ---       #605
      00FF1F4CH   LINE      ---      ---       #606
      00FF1F4EH   LINE      ---      ---       #607
      00FF1F56H   LINE      ---      ---       #609
      00FF1F59H   LINE      ---      ---       #610
      00FF1F5CH   LINE      ---      ---       #611
      00FF1F5CH   LINE      ---      ---       #613
      00FF1F5FH   LINE      ---      ---       #614
      00FF1F61H   LINE      ---      ---       #616
      00FF1F64H   LINE      ---      ---       #618
      00FF1F6AH   LINE      ---      ---       #620
      00FF1F6DH   LINE      ---      ---       #621
      00FF1F6DH   LINE      ---      ---       #622
      00FF1F70H   LINE      ---      ---       #624
      00FF1F73H   LINE      ---      ---       #625
      00FF1F77H   LINE      ---      ---       #627
      00FF1F77H   LINE      ---      ---       #628
      00FF1F77H   LINE      ---      ---       #630
      00FF1F7AH   LINE      ---      ---       #632
      00FF1F7DH   LINE      ---      ---       #633
      00FF7C2EH   LINE      ---      ---       #289
      00FF7C2EH   LINE      ---      ---       #290
      00FF7C2EH   LINE      ---      ---       #291
      00FF7C36H   LINE      ---      ---       #292
      00FF7C38H   LINE      ---      ---       #294
      00FF7C4AH   LINE      ---      ---       #295
      00FF7C68H   LINE      ---      ---       #301
      00FF7C6CH   LINE      ---      ---       #302
      00FF7C70H   LINE      ---      ---       #303
      00FF7C73H   LINE      ---      ---       #304
      00FF7C87H   LINE      ---      ---       #305
      00FF7CA5H   LINE      ---      ---       #311
      00FF7CAAH   LINE      ---      ---       #312
      00FF7CAEH   LINE      ---      ---       #313
      00FF7CB1H   LINE      ---      ---       #314
      00FF7CB3H   LINE      ---      ---       #315
      00FF7CC1H   LINE      ---      ---       #316
      00FF7CDFH   LINE      ---      ---       #322
      00FF7CEEH   LINE      ---      ---       #323
      00FF7CEEH   LINE      ---      ---       #324
      00FF7CF0H   LINE      ---      ---       #325
      00FF7CF3H   LINE      ---      ---       #326
      00FF7CF6H   LINE      ---      ---       #327
      00FF7CFCH   LINE      ---      ---       #329
      00FF7D00H   LINE      ---      ---       #330
      00FF7D00H   LINE      ---      ---       #331
      00FF7D03H   LINE      ---      ---       #332
      00FF7D03H   LINE      ---      ---       #334
      00FF7D0AH   LINE      ---      ---       #335

      ---         MODULE    ---      ---       mac_htrp_tx
      00FF33C1H   PUBLIC    CODE     ---       mac_htrp_tx_set_state
      00FF3613H   PUBLIC    CODE     ---       mac_htrp_tx_get_state
L251 LINKER/LOCATER V4.66.93.0                                                        07/01/2025  14:01:01  PAGE 172


      00FF3169H   PUBLIC    CODE     ---       mac_htrp_tx_handler
      00FFB49EH   PUBLIC    CODE     ---       mac_htrp_tx_init
      00FF7EC7H   PUBLIC    CODE     ---       mac_htrp_tx_set_rf_task
      00FF7E7BH   PUBLIC    CODE     ---       mac_htrp_tx_burst_tx_done
      00FFB1F1H   PUBLIC    CODE     ---       mac_htrp_tx_slot_tx_done
      00FF793BH   PUBLIC    CODE     ---       mac_htrp_tx_slot_rx_done
      00FFB16EH   PUBLIC    CODE     ---       mac_htrp_tx_period_burst_tx_done
      00FF7A02H   PUBLIC    CODE     ---       mac_htrp_tx_period_burst_rx_done
      0000B698H   PUBLIC    EDATA    BYTE      g_mac_htrp_tx_state
      0000B699H   PUBLIC    EDATA    BYTE      g_mac_htrp_tx_set_ch_time
      00000080H   SFRSYM    DATA     BYTE      P0

      00FF33C1H   BLOCK     CODE     ---       LVL=0
      00FF33C1H   LINE      ---      ---       #93
      00FF33C1H   LINE      ---      ---       #95
      00FF33C5H   LINE      ---      ---       #96
      R11         REGSYM    ---      BYTE      state
      ---         BLOCKEND  ---      ---       LVL=0

      00FF3613H   BLOCK     CODE     ---       LVL=0
      00FF3613H   LINE      ---      ---       #98
      00FF3613H   LINE      ---      ---       #100
      00FF3617H   LINE      ---      ---       #101
      ---         BLOCKEND  ---      ---       LVL=0

      00FF7EC7H   BLOCK     CODE     ---       LVL=0
      00FF7EC7H   LINE      ---      ---       #103
      00FF7ECFH   LINE      ---      ---       #104
      R13         REGSYM    ---      BYTE      need_rx
      REG=7       REGSYM    ---      ---       time
      00FF7ECFH   BLOCK     CODE     NEAR LAB  LVL=1
      00FF7ECFH   LINE      ---      ---       #108
      00FF7ED5H   LINE      ---      ---       #109
      00FF7EDAH   LINE      ---      ---       #110
      00FF7EDEH   LINE      ---      ---       #111
      00FF7EE2H   LINE      ---      ---       #112
      00FF7EE8H   LINE      ---      ---       #113
      00FF7EFEH   LINE      ---      ---       #114
      00FF7F00H   LINE      ---      ---       #115
      00FF7F05H   LINE      ---      ---       #116
      00FF7F0BH   LINE      ---      ---       #117
      00FF7F0BH   LINE      ---      ---       #118
      00FF7F11H   LINE      ---      ---       #119
      00FF7F1DH   LINE      ---      ---       #120
      00FF7F26H   LINE      ---      ---       #122
      00FF7F2AH   LINE      ---      ---       #123
      00FF7F30H   LINE      ---      ---       #124
      00FF7F35H   LINE      ---      ---       #125
      00FF7F3BH   LINE      ---      ---       #126
      00FF7F40H   LINE      ---      ---       #127
      00FF7F46H   LINE      ---      ---       #128
      00FF7F52H   LINE      ---      ---       #129
      00FF7F58H   LINE      ---      ---       #130
      00FF7F61H   LINE      ---      ---       #131
      00FF7F61H   LINE      ---      ---       #133
      00FF7F66H   LINE      ---      ---       #135
      00FF7F6CH   LINE      ---      ---       #136
      00FF7F6FH   LINE      ---      ---       #137
      00FF7F71H   LINE      ---      ---       #138
      00FF7F74H   LINE      ---      ---       #139
      00FF7F77H   LINE      ---      ---       #140
      00FF7F77H   LINE      ---      ---       #141
      DR8         REGSYM    ---      LONG      rtc
      0000B54BH   SYMBOL    EDATA    ---       taskControl
      ---         BLOCKEND  CODE     ---       LVL=1
L251 LINKER/LOCATER V4.66.93.0                                                        07/01/2025  14:01:01  PAGE 173


      00FF7F83H   LINE      ---      ---       #142
      00FF7F83H   LINE      CODE     ---       #142

      00FF7E7BH   BLOCK     CODE     ---       LVL=0
      00FF7E7BH   LINE      ---      ---       #145
      00FF7E7DH   LINE      ---      ---       #146
      00FF7E7DH   BLOCK     CODE     NEAR LAB  LVL=1
      00FF7E7DH   LINE      ---      ---       #149
      00FF7E7FH   LINE      ---      ---       #153
      00FF7E85H   LINE      ---      ---       #155
      00FF7E8FH   LINE      ---      ---       #156
      00FF7E97H   LINE      ---      ---       #157
      00FF7EA1H   LINE      ---      ---       #158
      00FF7EB9H   LINE      ---      ---       #159
      00FF7EC0H   LINE      ---      ---       #160
      DR12        REGSYM    ---      DWORD     rtc
      0000B5A9H   SYMBOL    EDATA    ---       time
      ---         BLOCKEND  CODE     ---       LVL=1
      00FF7EC4H   LINE      ---      ---       #161
      00FF7EC4H   LINE      CODE     ---       #161

      00FFB1F1H   BLOCK     CODE     ---       LVL=0
      00FFB1F1H   LINE      ---      ---       #163
      00FFB1F1H   LINE      ---      ---       #165
      00FFB1F4H   LINE      ---      ---       #167
      ---         BLOCKEND  ---      ---       LVL=0

      00FF793BH   BLOCK     CODE     ---       LVL=0
      00FF793BH   LINE      ---      ---       #170
      00FF793DH   LINE      ---      ---       #171
      00FF793DH   BLOCK     CODE     NEAR LAB  LVL=1
      00FF793DH   LINE      ---      ---       #172
      00FF7960H   LINE      ---      ---       #177
      00FF796AH   LINE      ---      ---       #178
      00FF7971H   LINE      ---      ---       #179
      00FF798AH   LINE      ---      ---       #180
      00FF798CH   LINE      ---      ---       #183
      00FF7992H   LINE      ---      ---       #185
      00FF7992H   LINE      ---      ---       #187
      00FF7994H   LINE      ---      ---       #191
      00FF799AH   LINE      ---      ---       #193
      00FF79A2H   LINE      ---      ---       #194
      00FF79ACH   LINE      ---      ---       #195
      00FF79C4H   LINE      ---      ---       #196
      00FF79CCH   LINE      ---      ---       #197
      00FF79D0H   LINE      ---      ---       #200
      00FF79D7H   LINE      ---      ---       #202
      00FF79D9H   LINE      ---      ---       #203
      0000B4D9H   SYMBOL    EDATA    DWORD     now
      DR12        REGSYM    ---      DWORD     rtc
      0000B4DDH   SYMBOL    EDATA    BYTE      count
      0000B4DEH   SYMBOL    EDATA    ---       time
      ---         BLOCKEND  CODE     ---       LVL=1
      ---         BLOCKEND  CODE     ---       LVL=0

      00FFB16EH   BLOCK     CODE     ---       LVL=0
      00FFB16EH   LINE      ---      ---       #207
      00FFB170H   LINE      ---      ---       #209
      00FFB184H   LINE      ---      ---       #210
      00FFB187H   LINE      ---      ---       #211
      00FFB18AH   LINE      ---      ---       #212
      00FFB196H   BLOCK     CODE     NEAR LAB  LVL=1
      00FFB196H   LINE      ---      ---       #215
      00FFB199H   LINE      ---      ---       #217
      00FFB19CH   LINE      ---      ---       #221
L251 LINKER/LOCATER V4.66.93.0                                                        07/01/2025  14:01:01  PAGE 174


      00FFB1A2H   LINE      ---      ---       #223
      00FFB1ACH   LINE      ---      ---       #224
      00FFB1B4H   LINE      ---      ---       #225
      00FFB1BEH   LINE      ---      ---       #226
      00FFB1D6H   LINE      ---      ---       #227
      00FFB1DFH   LINE      ---      ---       #228
      DR12        REGSYM    ---      DWORD     rtc
      0000B5B3H   SYMBOL    EDATA    ---       time
      ---         BLOCKEND  CODE     ---       LVL=1
      00FFB1E3H   LINE      ---      ---       #230
      00FFB1E5H   LINE      ---      ---       #231
      00FFB1E8H   LINE      ---      ---       #232
      00FFB1EAH   LINE      ---      ---       #233
      00FFB1EAH   LINE      ---      ---       #234
      00FFB1EEH   LINE      ---      ---       #235
      00FFB1EEH   LINE      CODE     ---       #235

      00FF7A02H   BLOCK     CODE     ---       LVL=0
      00FF7A02H   LINE      ---      ---       #237
      00FF7A04H   LINE      ---      ---       #238
      00FF7A04H   BLOCK     CODE     NEAR LAB  LVL=1
      00FF7A04H   LINE      ---      ---       #240
      00FF7A27H   LINE      ---      ---       #244
      00FF7A44H   LINE      ---      ---       #245
      00FF7A4DH   LINE      ---      ---       #246
      00FF7A66H   LINE      ---      ---       #247
      00FF7A68H   LINE      ---      ---       #250
      00FF7A6EH   LINE      ---      ---       #252
      00FF7A6EH   LINE      ---      ---       #253
      00FF7A70H   LINE      ---      ---       #257
      00FF7A76H   LINE      ---      ---       #259
      00FF7A7EH   LINE      ---      ---       #260
      00FF7A88H   LINE      ---      ---       #261
      00FF7AA0H   LINE      ---      ---       #262
      00FF7AB2H   LINE      ---      ---       #263
      00FF7AB6H   LINE      ---      ---       #266
      00FF7ABDH   LINE      ---      ---       #268
      00FF7ABFH   LINE      ---      ---       #269
      DR12        REGSYM    ---      DWORD     rtc
      0000B4E8H   SYMBOL    EDATA    DWORD     now
      0000B4ECH   SYMBOL    EDATA    BYTE      count
      0000B4EDH   SYMBOL    EDATA    ---       time
      ---         BLOCKEND  CODE     ---       LVL=1
      ---         BLOCKEND  CODE     ---       LVL=0

      00FF3169H   BLOCK     CODE     ---       LVL=0
      00FF3169H   LINE      ---      ---       #273
      00FF316BH   LINE      ---      ---       #274
      00FF316BH   BLOCK     CODE     NEAR LAB  LVL=1
      00FF316BH   LINE      ---      ---       #275
      00FF316BH   LINE      ---      ---       #277
      00FF3183H   LINE      ---      ---       #278
      00FF3183H   LINE      ---      ---       #280
      00FF3186H   LINE      ---      ---       #282
      00FF3189H   LINE      ---      ---       #287
      00FF319BH   LINE      ---      ---       #289
      00FF319EH   LINE      ---      ---       #291
      WR14        REGSYM    ---      WORD      macFunEventQueue
      00FF319EH   BLOCK     CODE     NEAR LAB  LVL=2
      00FF319EH   LINE      ---      ---       #293
      00FF31A6H   LINE      ---      ---       #294
      00FF31ACH   LINE      ---      ---       #295
      00FF31B4H   LINE      ---      ---       #296
      00FF31BAH   LINE      ---      ---       #297
      0000B486H   SYMBOL    EDATA    ---       cb
L251 LINKER/LOCATER V4.66.93.0                                                        07/01/2025  14:01:01  PAGE 175


      ---         BLOCKEND  CODE     ---       LVL=2
      00FF31C1H   BLOCK     CODE     NEAR LAB  LVL=2
      00FF31C1H   LINE      ---      ---       #298
      00FF31C1H   LINE      ---      ---       #300
      00FF31C7H   LINE      ---      ---       #301
      00FF31CAH   LINE      ---      ---       #303
      00FF31CAH   LINE      ---      ---       #305
      00FF31CCH   LINE      ---      ---       #307
      00FF31DFH   LINE      ---      ---       #308
      00FF31DFH   LINE      ---      ---       #309
      DR12        REGSYM    ---      DWORD     rtc
      0000B48EH   SYMBOL    EDATA    ---       time
      ---         BLOCKEND  CODE     ---       LVL=2
      00FF31DFH   BLOCK     CODE     NEAR LAB  LVL=2
      00FF31DFH   LINE      ---      ---       #312
      00FF31E7H   LINE      ---      ---       #313
      00FF31F0H   LINE      ---      ---       #314
      00FF31F8H   LINE      ---      ---       #315
      00FF3202H   LINE      ---      ---       #316
      00FF321AH   LINE      ---      ---       #317
      00FF321FH   LINE      ---      ---       #318
      DR12        REGSYM    ---      DWORD     rtc
      0000B48EH   SYMBOL    EDATA    ---       time
      ---         BLOCKEND  CODE     ---       LVL=2
      00FF321FH   BLOCK     CODE     NEAR LAB  LVL=2
      00FF321FH   LINE      ---      ---       #320
      00FF3221H   LINE      ---      ---       #321
      00FF3221H   LINE      ---      ---       #322
      DR12        REGSYM    ---      DWORD     rtc
      0000B48EH   SYMBOL    EDATA    ---       time
      ---         BLOCKEND  CODE     ---       LVL=2
      00FF3221H   BLOCK     CODE     NEAR LAB  LVL=2
      00FF3221H   LINE      ---      ---       #325
      00FF322BH   LINE      ---      ---       #326
      00FF3234H   LINE      ---      ---       #327
      00FF323CH   LINE      ---      ---       #328
      00FF3246H   LINE      ---      ---       #329
      00FF325EH   LINE      ---      ---       #330
      00FF326EH   LINE      ---      ---       #331
      DR4         REGSYM    ---      DWORD     rtc
      ---         BLOCKEND  CODE     ---       LVL=2
      00FF326EH   LINE      ---      ---       #333
      00FF3270H   LINE      ---      ---       #334
      00FF3270H   LINE      ---      ---       #335
      00FF3270H   LINE      CODE     ---       #335
      ---         BLOCKEND  CODE     ---       LVL=0

      00FFB49EH   BLOCK     CODE     ---       LVL=0
      00FFB49EH   LINE      ---      ---       #763
      00FFB49EH   LINE      ---      ---       #765
      00FFB4A3H   LINE      ---      ---       #766
      ---         BLOCKEND  ---      ---       LVL=0
      00FF3270H   LINE      ---      ---       #338
      00FF327AH   LINE      ---      ---       #339
      00FF3283H   LINE      ---      ---       #340
      00FF328BH   LINE      ---      ---       #341
      00FF3295H   LINE      ---      ---       #342
      00FF32ADH   LINE      ---      ---       #343
      00FF32B6H   LINE      ---      ---       #344
      00FF32BAH   LINE      ---      ---       #346
      00FF32BCH   LINE      ---      ---       #347
      00FF32BCH   LINE      ---      ---       #348
      00FF32BFH   LINE      ---      ---       #349
      00FF32BFH   LINE      ---      ---       #350
      00FF32BFH   LINE      ---      ---       #352
L251 LINKER/LOCATER V4.66.93.0                                                        07/01/2025  14:01:01  PAGE 176


      00FF32C3H   LINE      ---      ---       #354
      00FF32C9H   LINE      ---      ---       #356
      00FF32CBH   LINE      ---      ---       #358
      00FF32CBH   LINE      ---      ---       #359
      00FF32CFH   LINE      ---      ---       #360
      00FF32DBH   LINE      ---      ---       #363
      00FF32DEH   LINE      ---      ---       #365
      00FF32E3H   LINE      ---      ---       #367
      00FF32F2H   LINE      ---      ---       #368
      00FF32F4H   LINE      ---      ---       #369
      00FF32F6H   LINE      ---      ---       #370
      00FF32F6H   LINE      ---      ---       #371
      00FF32F8H   LINE      ---      ---       #372
      00FF32FCH   LINE      ---      ---       #373
      00FF32FFH   LINE      ---      ---       #374
      00FF32FFH   LINE      ---      ---       #376
      00FF3307H   LINE      ---      ---       #377
      00FF330AH   LINE      ---      ---       #378
      00FF330EH   LINE      ---      ---       #379
      00FF3314H   LINE      ---      ---       #380
      00FF3317H   LINE      ---      ---       #381
      00FF331AH   LINE      ---      ---       #382
      00FF331CH   LINE      ---      ---       #383
      00FF331FH   LINE      ---      ---       #384
      00FF332EH   LINE      ---      ---       #385
      00FF3330H   LINE      ---      ---       #386
      00FF3330H   LINE      ---      ---       #388
      00FF3332H   LINE      ---      ---       #390
      00FF3332H   LINE      ---      ---       #391
      00FF3336H   LINE      ---      ---       #392
      00FF3342H   LINE      ---      ---       #394
      00FF3345H   LINE      ---      ---       #396
      00FF334BH   LINE      ---      ---       #397
      00FF334EH   LINE      ---      ---       #398
      00FF3356H   LINE      ---      ---       #399
      00FF3359H   LINE      ---      ---       #400
      00FF335CH   LINE      ---      ---       #401
      00FF3360H   LINE      ---      ---       #402
      00FF3369H   LINE      ---      ---       #403
      00FF336CH   LINE      ---      ---       #404
      00FF3373H   LINE      ---      ---       #405
      00FF3376H   LINE      ---      ---       #406
      00FF3376H   LINE      ---      ---       #409
      00FF3378H   LINE      ---      ---       #412
      00FF337CH   LINE      ---      ---       #413
      00FF337CH   LINE      ---      ---       #414
      00FF337CH   LINE      ---      ---       #415
      00FF337EH   LINE      ---      ---       #417
      00FF337EH   LINE      ---      ---       #418
      00FF3381H   LINE      ---      ---       #419
      00FF3384H   LINE      ---      ---       #421
      00FF3387H   LINE      ---      ---       #422
      00FF338EH   LINE      ---      ---       #423
      00FF3394H   LINE      ---      ---       #424
      00FF3399H   LINE      ---      ---       #425
      00FF33A1H   LINE      ---      ---       #427
      00FF33A1H   LINE      ---      ---       #428
      00FF33A1H   LINE      ---      ---       #429
      00FF33A3H   LINE      ---      ---       #431
      00FF33A5H   LINE      ---      ---       #432
      00FF33A8H   LINE      ---      ---       #433
      00FF33A8H   LINE      ---      ---       #434
      00FF33ABH   LINE      ---      ---       #436
      00FF33AEH   LINE      ---      ---       #438
      00FF33B1H   LINE      ---      ---       #439
L251 LINKER/LOCATER V4.66.93.0                                                        07/01/2025  14:01:01  PAGE 177


      00FF33B5H   LINE      ---      ---       #440
      00FF33B8H   LINE      ---      ---       #441
      00FF33B8H   LINE      ---      ---       #442
      00FF33B8H   LINE      ---      ---       #444
      00FF33BBH   LINE      ---      ---       #446
      00FF33BEH   LINE      ---      ---       #447

      ---         MODULE    ---      ---       mac_srcmatch
      00FF2D30H   PUBLIC    CODE     ---       MAC_SrcMatch_EnableStatusGet
      00FF2D5FH   PUBLIC    CODE     ---       MAC_SrcMatch_ListFind
      00FF5FC0H   PUBLIC    CODE     ---       MAC_SrcMatch_ListFindIdx
      00FFB4A4H   PUBLIC    CODE     ---       MAC_SrcMatch_ListInit
      00FF5C0EH   PUBLIC    CODE     ---       MAC_SrcMatch_Enable
      00FFB50CH   PUBLIC    CODE     ---       MAC_SrcMatch_ListClear
      00FFB78FH   PUBLIC    CODE     ---       MAC_SrcMatch_ListAdd
      00FF5FA2H   PUBLIC    CODE     ---       MAC_SrcMatch_ListModify
      00FFB7B0H   PUBLIC    CODE     ---       MAC_SrcMatch_ListFindShort?_
      00FFB394H   PUBLIC    CODE     ---       MAC_SrcMatch_ListFindExtended?_
      00FFB845H   PUBLIC    CODE     ---       MAC_SrcMatch_ListAddShort
      00FFB957H   PUBLIC    CODE     ---       MAC_SrcMatch_ListAddExtended
      00FFB8E6H   PUBLIC    CODE     ---       MAC_SrcMatch_ListModifyShort
      00FFB9FBH   PUBLIC    CODE     ---       MAC_SrcMatch_ListModifyExtended
      0000A950H   PUBLIC    EDATA    ---       gMacSrcCtrl
      0000AC65H   PUBLIC    EDATA    ---       MacSrcFindEntry
      0000AC69H   PUBLIC    EDATA    ---       MacSrcAddEntry
      0000AC6DH   PUBLIC    EDATA    ---       MacSrcModifyEntry

      00FFB4A4H   BLOCK     CODE     ---       LVL=0
      00FFB4A4H   LINE      ---      ---       #53
      00FFB4A4H   LINE      ---      ---       #54
      00FFB4A4H   BLOCK     CODE     NEAR LAB  LVL=1
      00FFB4A4H   LINE      ---      ---       #55
      00FFB4A9H   LINE      ---      ---       #59
      00FFB4ADH   LINE      ---      ---       #60
      00FFB4B1H   LINE      ---      ---       #61
      00FFB4B3H   LINE      ---      ---       #63
      00FFB4C1H   LINE      ---      ---       #64
      00FFB4C9H   LINE      ---      ---       #65
      00FFB4D0H   LINE      ---      ---       #66
      00FFB4D2H   LINE      ---      ---       #68
      00FFB4E5H   LINE      ---      ---       #69
      00FFB4F2H   LINE      ---      ---       #70
      00FFB504H   LINE      ---      ---       #71
      0000B6ACH   SYMBOL    EDATA    BYTE      listIdx
      R7          REGSYM    ---      BYTE      i
      ---         BLOCKEND  CODE     ---       LVL=1
      00FFB50BH   LINE      ---      ---       #83
      00FFB50BH   LINE      CODE     ---       #83

      00FF5C0EH   BLOCK     CODE     ---       LVL=0
      00FF5C0EH   LINE      ---      ---       #86
      00FF5C12H   LINE      ---      ---       #87
      R15         REGSYM    ---      BYTE      Enable
      00FF5C12H   BLOCK     CODE     NEAR LAB  LVL=1
      00FF5C12H   LINE      ---      ---       #89
      00FF5C15H   LINE      ---      ---       #91
      R7          REGSYM    ---      BYTE      Pannum
      ---         BLOCKEND  CODE     ---       LVL=1
      00FF5C1BH   LINE      ---      ---       #95
      00FF5C1BH   LINE      CODE     ---       #95

      00FF2D30H   BLOCK     CODE     ---       LVL=0
      00FF2D30H   LINE      ---      ---       #98
      00FF2D32H   LINE      ---      ---       #99
      00FF2D32H   BLOCK     CODE     NEAR LAB  LVL=1
L251 LINKER/LOCATER V4.66.93.0                                                        07/01/2025  14:01:01  PAGE 178


      00FF2D32H   LINE      ---      ---       #103
      00FF2D38H   LINE      ---      ---       #105
      00FF2D3CH   LINE      ---      ---       #106
      00FF2D3EH   LINE      ---      ---       #109
      00FF2D42H   LINE      ---      ---       #110
      00FF2D42H   LINE      ---      ---       #112
      R15         REGSYM    ---      BYTE      Pannum
      ---         BLOCKEND  CODE     ---       LVL=1
      00FF2D48H   LINE      ---      ---       #116
      00FF2D48H   LINE      CODE     ---       #116

      00FFB50CH   BLOCK     CODE     ---       LVL=0
      00FFB50CH   LINE      ---      ---       #120
      00FFB514H   LINE      ---      ---       #121
      R14         REGSYM    ---      BYTE      all
      R15         REGSYM    ---      BYTE      type
      REG=6       REGSYM    ---      ---       addr
      00FFB514H   BLOCK     CODE     NEAR LAB  LVL=1
      00FFB514H   LINE      ---      ---       #122
      00FFB519H   LINE      ---      ---       #123
      00FFB520H   LINE      ---      ---       #125
      00FFB526H   LINE      ---      ---       #127
      00FFB52AH   LINE      ---      ---       #129
      00FFB53DH   LINE      ---      ---       #130
      00FFB540H   LINE      ---      ---       #132
      00FFB557H   LINE      ---      ---       #133
      00FFB569H   LINE      ---      ---       #134
      00FFB56BH   LINE      ---      ---       #135
      00FFB572H   LINE      ---      ---       #137
      00FFB585H   LINE      ---      ---       #138
      00FFB58CH   LINE      ---      ---       #140
      00FFB5A3H   LINE      ---      ---       #141
      00FFB5B5H   LINE      ---      ---       #142
      00FFB5B7H   LINE      ---      ---       #146
      00FFB5C9H   LINE      ---      ---       #148
      00FFB5CFH   LINE      ---      ---       #150
      00FFB5E3H   LINE      ---      ---       #152
      00FFB5E3H   LINE      ---      ---       #153
      00FFB600H   LINE      ---      ---       #154
      00FFB602H   LINE      ---      ---       #155
      00FFB602H   LINE      ---      ---       #156
      00FFB61FH   LINE      ---      ---       #157
      00FFB621H   LINE      ---      ---       #158
      00FFB621H   LINE      ---      ---       #159
      00FFB63EH   LINE      ---      ---       #160
      00FFB640H   LINE      ---      ---       #161
      00FFB640H   LINE      ---      ---       #162
      00FFB65DH   LINE      ---      ---       #163
      00FFB65DH   LINE      ---      ---       #165
      00FFB65DH   LINE      ---      ---       #166
      00FFB65DH   LINE      ---      ---       #167
      00FFB65DH   LINE      ---      ---       #169
      00FFB676H   LINE      ---      ---       #171
      00FFB6AAH   LINE      ---      ---       #172
      00FFB6ACH   LINE      ---      ---       #174
      00FFB6B3H   LINE      ---      ---       #176
      00FFB6C7H   LINE      ---      ---       #178
      00FFB6C7H   LINE      ---      ---       #179
      00FFB6E4H   LINE      ---      ---       #180
      00FFB6E6H   LINE      ---      ---       #181
      00FFB6E6H   LINE      ---      ---       #182
      00FFB703H   LINE      ---      ---       #183
      00FFB705H   LINE      ---      ---       #184
      00FFB705H   LINE      ---      ---       #185
      00FFB722H   LINE      ---      ---       #186
L251 LINKER/LOCATER V4.66.93.0                                                        07/01/2025  14:01:01  PAGE 179


      00FFB724H   LINE      ---      ---       #187
      00FFB724H   LINE      ---      ---       #188
      00FFB741H   LINE      ---      ---       #189
      00FFB741H   LINE      ---      ---       #191
      00FFB741H   LINE      ---      ---       #192
      00FFB741H   LINE      ---      ---       #193
      00FFB741H   LINE      ---      ---       #195
      00FFB758H   LINE      ---      ---       #197
      00FFB78CH   LINE      ---      ---       #198
      00FFB78CH   LINE      ---      ---       #200
      00FFB78CH   LINE      ---      ---       #201
      0000B69AH   SYMBOL    EDATA    BYTE      listIdx
      0000B69BH   SYMBOL    EDATA    BYTE      Pannum
      ---         BLOCKEND  CODE     ---       LVL=1
      00FFB78CH   LINE      ---      ---       #202
      00FFB78CH   LINE      CODE     ---       #202

      00FFB7B0H   BLOCK     CODE     ---       LVL=0
      00FFB7B0H   LINE      ---      ---       #205
      00FFB7B8H   LINE      ---      ---       #206
      REG=3       REGSYM    ---      ---       addr
      00FFB7B8H   BLOCK     CODE     NEAR LAB  LVL=1
      00FFB7B8H   LINE      ---      ---       #210
      00FFB7BAH   LINE      ---      ---       #213
      00FFB7C0H   LINE      ---      ---       #215
      00FFB7C4H   LINE      ---      ---       #216
      00FFB7C6H   LINE      ---      ---       #219
      00FFB7CBH   LINE      ---      ---       #220
      00FFB7CBH   LINE      ---      ---       #222
      00FFB7DFH   LINE      ---      ---       #224
      00FFB7E2H   LINE      ---      ---       #226
      00FFB7F0H   LINE      ---      ---       #228
      00FFB803H   LINE      ---      ---       #230
      00FFB80DH   LINE      ---      ---       #232
      00FFB812H   LINE      ---      ---       #233
      00FFB812H   LINE      ---      ---       #236
      00FFB82BH   LINE      ---      ---       #237
      00FFB83AH   LINE      ---      ---       #239
      00000000H   STKSYM    ---      BYTE      listIdx
      FFFFFFFCH   STKSYM    ---      DWORD     bitMask
      REG=4       REGSYM    ---      ---       smaddr
      REG=7       REGSYM    ---      ---       inaddr
      R13         REGSYM    ---      BYTE      Pannum
      ---         BLOCKEND  CODE     ---       LVL=1
      00FFB83CH   LINE      ---      ---       #240
      00FFB83CH   LINE      CODE     ---       #240

      00FFB394H   BLOCK     CODE     ---       LVL=0
      00FFB394H   LINE      ---      ---       #243
      00FFB39CH   LINE      ---      ---       #244
      REG=3       REGSYM    ---      ---       addr
      00FFB39CH   BLOCK     CODE     NEAR LAB  LVL=1
      00FFB39CH   LINE      ---      ---       #248
      00FFB39EH   LINE      ---      ---       #251
      00FFB3A4H   LINE      ---      ---       #253
      00FFB3A8H   LINE      ---      ---       #254
      00FFB3AAH   LINE      ---      ---       #257
      00FFB3AFH   LINE      ---      ---       #258
      00FFB3AFH   LINE      ---      ---       #260
      00FFB3C3H   LINE      ---      ---       #262
      00FFB3C6H   LINE      ---      ---       #264
      00FFB3D4H   LINE      ---      ---       #266
      00FFB3EEH   LINE      ---      ---       #268
      00FFB417H   LINE      ---      ---       #271
      00FFB41CH   LINE      ---      ---       #272
L251 LINKER/LOCATER V4.66.93.0                                                        07/01/2025  14:01:01  PAGE 180


      00FFB41CH   LINE      ---      ---       #275
      00FFB435H   LINE      ---      ---       #276
      00FFB444H   LINE      ---      ---       #278
      00000000H   STKSYM    ---      BYTE      listIdx
      FFFFFFFCH   STKSYM    ---      DWORD     bitMask
      FFFFFFFAH   STKSYM    ---      ---       smaddr
      REG=7       REGSYM    ---      ---       inaddr
      R13         REGSYM    ---      BYTE      Pannum
      ---         BLOCKEND  CODE     ---       LVL=1
      00FFB446H   LINE      ---      ---       #279
      00FFB446H   LINE      CODE     ---       #279

      00FF5FC0H   BLOCK     CODE     ---       LVL=0
      00FF5FC0H   LINE      ---      ---       #418
      00FF5FC8H   LINE      ---      ---       #420
      00FF5FD0H   LINE      ---      ---       #421
      00FF5FDCH   LINE      ---      ---       #422
      R15         REGSYM    ---      BYTE      type
      REG=6       REGSYM    ---      ---       addr
      ---         BLOCKEND  ---      ---       LVL=0

      00FF2D5FH   BLOCK     CODE     ---       LVL=0
      00FF2D5FH   LINE      ---      ---       #425
      00FF2D67H   LINE      ---      ---       #427
      00FF2D6BH   LINE      ---      ---       #429
      00FF2D6EH   LINE      ---      ---       #430
      00FF2D6EH   LINE      ---      ---       #432
      00FF2D7FH   LINE      ---      ---       #433
      R13         REGSYM    ---      BYTE      type
      REG=7       REGSYM    ---      ---       addr
      ---         BLOCKEND  ---      ---       LVL=0

      00FFB845H   BLOCK     CODE     ---       LVL=0
      00FFB845H   LINE      ---      ---       #437
      00FFB84BH   LINE      ---      ---       #438
      REG=7       REGSYM    ---      ---       addr
      00FFB84BH   BLOCK     CODE     NEAR LAB  LVL=1
      00FFB84BH   LINE      ---      ---       #439
      00FFB850H   LINE      ---      ---       #440
      00FFB855H   LINE      ---      ---       #442
      00FFB858H   LINE      ---      ---       #444
      00FFB87BH   LINE      ---      ---       #446
      00FFB898H   LINE      ---      ---       #447
      00FFB8C2H   LINE      ---      ---       #448
      00FFB8C8H   LINE      ---      ---       #450
      00FFB8CCH   LINE      ---      ---       #451
      00FFB8E0H   LINE      ---      ---       #454
      0000B6ADH   SYMBOL    EDATA    BYTE      listIdx
      R13         REGSYM    ---      BYTE      Pannum
      ---         BLOCKEND  CODE     ---       LVL=1
      00FFB8E1H   LINE      ---      ---       #455
      00FFB8E1H   LINE      CODE     ---       #455

      00FFB957H   BLOCK     CODE     ---       LVL=0
      00FFB957H   LINE      ---      ---       #458
      00FFB95DH   LINE      ---      ---       #459
      REG=7       REGSYM    ---      ---       addr
      00FFB95DH   BLOCK     CODE     NEAR LAB  LVL=1
      00FFB95DH   LINE      ---      ---       #460
      00FFB962H   LINE      ---      ---       #461
      00FFB967H   LINE      ---      ---       #463
      00FFB96AH   LINE      ---      ---       #465
      00FFB98DH   LINE      ---      ---       #467
      00FFB9ADH   LINE      ---      ---       #468
      00FFB9D7H   LINE      ---      ---       #469
L251 LINKER/LOCATER V4.66.93.0                                                        07/01/2025  14:01:01  PAGE 181


      00FFB9DDH   LINE      ---      ---       #471
      00FFB9E1H   LINE      ---      ---       #472
      00FFB9F5H   LINE      ---      ---       #475
      0000B6AEH   SYMBOL    EDATA    BYTE      listIdx
      R13         REGSYM    ---      BYTE      Pannum
      ---         BLOCKEND  CODE     ---       LVL=1
      00FFB9F6H   LINE      ---      ---       #476
      00FFB9F6H   LINE      CODE     ---       #476

      00FFB78FH   BLOCK     CODE     ---       LVL=0
      00FFB78FH   LINE      ---      ---       #519
      00FFB797H   LINE      ---      ---       #521
      00FFB79FH   LINE      ---      ---       #522
      00FFB7ABH   LINE      ---      ---       #523
      R15         REGSYM    ---      BYTE      type
      REG=6       REGSYM    ---      ---       addr
      ---         BLOCKEND  ---      ---       LVL=0

      00FFB8E6H   BLOCK     CODE     ---       LVL=0
      00FFB8E6H   LINE      ---      ---       #526
      00FFB8EAH   LINE      ---      ---       #527
      R15         REGSYM    ---      BYTE      listidx
      00FFB8EAH   BLOCK     CODE     NEAR LAB  LVL=1
      00FFB8EAH   LINE      ---      ---       #528
      00FFB8EFH   LINE      ---      ---       #530
      00FFB903H   LINE      ---      ---       #532
      00FFB903H   LINE      ---      ---       #533
      00FFB915H   LINE      ---      ---       #534
      00FFB917H   LINE      ---      ---       #535
      00FFB917H   LINE      ---      ---       #536
      00FFB929H   LINE      ---      ---       #537
      00FFB92BH   LINE      ---      ---       #538
      00FFB92BH   LINE      ---      ---       #539
      00FFB93DH   LINE      ---      ---       #540
      00FFB93FH   LINE      ---      ---       #541
      00FFB93FH   LINE      ---      ---       #542
      00FFB954H   LINE      ---      ---       #543
      00FFB954H   LINE      ---      ---       #545
      00FFB954H   LINE      ---      ---       #546
      00FFB954H   LINE      ---      ---       #547
      R6          REGSYM    ---      BYTE      Pannum
      ---         BLOCKEND  CODE     ---       LVL=1
      00FFB954H   LINE      ---      ---       #548
      00FFB954H   LINE      CODE     ---       #548

      00FFB9FBH   BLOCK     CODE     ---       LVL=0
      00FFB9FBH   LINE      ---      ---       #551
      00FFB9FFH   LINE      ---      ---       #552
      R15         REGSYM    ---      BYTE      listidx
      00FFB9FFH   BLOCK     CODE     NEAR LAB  LVL=1
      00FFB9FFH   LINE      ---      ---       #553
      00FFBA04H   LINE      ---      ---       #555
      00FFBA18H   LINE      ---      ---       #557
      00FFBA18H   LINE      ---      ---       #558
      00FFBA2AH   LINE      ---      ---       #559
      00FFBA2CH   LINE      ---      ---       #560
      00FFBA2CH   LINE      ---      ---       #561
      00FFBA3EH   LINE      ---      ---       #562
      00FFBA40H   LINE      ---      ---       #563
      00FFBA40H   LINE      ---      ---       #564
      00FFBA52H   LINE      ---      ---       #565
      00FFBA54H   LINE      ---      ---       #566
      00FFBA54H   LINE      ---      ---       #567
      00FFBA69H   LINE      ---      ---       #568
      00FFBA69H   LINE      ---      ---       #570
L251 LINKER/LOCATER V4.66.93.0                                                        07/01/2025  14:01:01  PAGE 182


      00FFBA69H   LINE      ---      ---       #571
      00FFBA69H   LINE      ---      ---       #572
      R6          REGSYM    ---      BYTE      Pannum
      ---         BLOCKEND  CODE     ---       LVL=1
      00FFBA69H   LINE      ---      ---       #573
      00FFBA69H   LINE      CODE     ---       #573

      00FF5FA2H   BLOCK     CODE     ---       LVL=0
      00FF5FA2H   LINE      ---      ---       #621
      00FF5FA8H   LINE      ---      ---       #623
      00FF5FB0H   LINE      ---      ---       #624
      00FF5FBDH   LINE      ---      ---       #625
      R15         REGSYM    ---      BYTE      type
      R14         REGSYM    ---      BYTE      listidx
      ---         BLOCKEND  ---      ---       LVL=0

      ---         MODULE    ---      ---       mac_rx_scan
      00FFA323H   PUBLIC    CODE     ---       MAC_RxScan_Config
      00FFA2BBH   PUBLIC    CODE     ---       MAC_RxScan_HwInit
      00FF6355H   PUBLIC    CODE     ---       MAC_RxScan_HwDeInit
      00FFA059H   PUBLIC    CODE     ---       MAC_RxScan_TaskStart
      00FFA724H   PUBLIC    CODE     ---       MAC_RxScan_TaskRestart
      00FF28B8H   PUBLIC    CODE     ---       MAC_RxScan_R2tTaskRestart
      00FFBA6CH   PUBLIC    CODE     ---       MAC_RxScan_GetScanResult
      00FF290CH   PUBLIC    CODE     ---       MAC_RxScan_SwitchToNextFrequency
      00FFA330H   PUBLIC    CODE     ---       MAC_RxScan_PllAlwaysOn
      00FFA35BH   PUBLIC    CODE     ---       MAC_RxScan_HwRegBackup
      00FF6067H   PUBLIC    CODE     ---       MAC_RxScan_HwRegRestore
      0000B38CH   PUBLIC    EDATA    ---       gMacRxScanCtrl
      0000B3ADH   PUBLIC    EDATA    BYTE      r2t_need_set
      000000A8H.7 SFRSYM    DATA     BIT       EA
      00000080H   SFRSYM    DATA     BYTE      P0

      00FFA323H   BLOCK     CODE     ---       LVL=0
      00FFA323H   LINE      ---      ---       #45
      00FFA325H   LINE      ---      ---       #47
      REG=2       REGSYM    ---      ---       pRxScanCfg
      ---         BLOCKEND  ---      ---       LVL=0

      00FFA330H   BLOCK     CODE     ---       LVL=0
      00FFA330H   LINE      ---      ---       #51
      00FFA330H   LINE      ---      ---       #53
      00FFA33CH   LINE      ---      ---       #54
      00FFA341H   LINE      ---      ---       #56
      00FFA34DH   LINE      ---      ---       #58
      00FFA355H   LINE      ---      ---       #59
      00FFA35AH   LINE      ---      ---       #60
      ---         BLOCKEND  ---      ---       LVL=0

      00FFA35BH   BLOCK     CODE     ---       LVL=0
      00FFA35BH   LINE      ---      ---       #63
      00FFA35BH   LINE      ---      ---       #65
      00FFA36AH   LINE      ---      ---       #66
      00FFA37BH   LINE      ---      ---       #67
      00FFA389H   LINE      ---      ---       #68
      00FFA394H   LINE      ---      ---       #69
      00FFA39FH   LINE      ---      ---       #70
      00FFA3B1H   LINE      ---      ---       #71
      00FFA3C3H   LINE      ---      ---       #72
      00FFA3D0H   LINE      ---      ---       #73
      00FFA3DAH   LINE      ---      ---       #74
      00FFA3E7H   LINE      ---      ---       #75
      ---         BLOCKEND  ---      ---       LVL=0

      00FF6067H   BLOCK     CODE     ---       LVL=0
L251 LINKER/LOCATER V4.66.93.0                                                        07/01/2025  14:01:01  PAGE 183


      00FF6067H   LINE      ---      ---       #78
      00FF6067H   LINE      ---      ---       #80
      00FF6076H   LINE      ---      ---       #81
      00FF6087H   LINE      ---      ---       #82
      00FF608DH   LINE      ---      ---       #83
      00FF609CH   LINE      ---      ---       #84
      00FF60A7H   LINE      ---      ---       #85
      00FF60B6H   LINE      ---      ---       #86
      00FF60C5H   LINE      ---      ---       #87
      00FF60D2H   LINE      ---      ---       #88
      00FF60E0H   LINE      ---      ---       #89
      ---         BLOCKEND  ---      ---       LVL=0

      00FFA2BBH   BLOCK     CODE     ---       LVL=0
      00FFA2BBH   LINE      ---      ---       #93
      00FFA2BBH   LINE      ---      ---       #95
      00FFA2BDH   LINE      ---      ---       #98
      00FFA2C9H   LINE      ---      ---       #99
      00FFA2D5H   LINE      ---      ---       #100
      00FFA2DAH   LINE      ---      ---       #101
      00FFA2E6H   LINE      ---      ---       #104
      00FFA2F2H   LINE      ---      ---       #105
      00FFA2F7H   LINE      ---      ---       #106
      00FFA300H   LINE      ---      ---       #109
      00FFA309H   LINE      ---      ---       #110
      00FFA310H   LINE      ---      ---       #111
      00FFA31BH   LINE      ---      ---       #114
      00FFA31DH   LINE      ---      ---       #116
      00FFA322H   LINE      ---      ---       #117
      ---         BLOCKEND  ---      ---       LVL=0

      00FF6355H   BLOCK     CODE     ---       LVL=0
      00FF6355H   LINE      ---      ---       #120
      00FF6355H   LINE      ---      ---       #122
      ---         BLOCKEND  ---      ---       LVL=0

      00FFA059H   BLOCK     CODE     ---       LVL=0
      00FFA059H   LINE      ---      ---       #126
      00FFA059H   LINE      ---      ---       #128
      00FFA05BH   LINE      ---      ---       #129
      00FFA061H   LINE      ---      ---       #130
      00FFA06EH   LINE      ---      ---       #131
      00FFA074H   LINE      ---      ---       #132
      00FFA079H   LINE      ---      ---       #133
      00FFA07BH   LINE      ---      ---       #134
      ---         BLOCKEND  ---      ---       LVL=0

      00FFA724H   BLOCK     CODE     ---       LVL=0
      00FFA724H   LINE      ---      ---       #137
      00FFA724H   LINE      ---      ---       #139
      00FFA726H   LINE      ---      ---       #140
      00FFA734H   LINE      ---      ---       #141
      00FFA740H   LINE      ---      ---       #142
      00FFA74DH   LINE      ---      ---       #143
      00FFA753H   LINE      ---      ---       #144
      00FFA758H   LINE      ---      ---       #145
      00FFA75AH   LINE      ---      ---       #146
      ---         BLOCKEND  ---      ---       LVL=0

      00FF28B8H   BLOCK     CODE     ---       LVL=0
      00FF28B8H   LINE      ---      ---       #149
      00FF28B8H   LINE      ---      ---       #151
      00FF28BAH   LINE      ---      ---       #152
      00FF28C0H   LINE      ---      ---       #154
      00FF28C3H   LINE      ---      ---       #155
L251 LINKER/LOCATER V4.66.93.0                                                        07/01/2025  14:01:01  PAGE 184


      00FF28CDH   LINE      ---      ---       #156
      00FF28D2H   LINE      ---      ---       #157
      00FF28D4H   LINE      ---      ---       #160
      00FF28D7H   LINE      ---      ---       #161
      00FF28E5H   LINE      ---      ---       #162
      00FF28F1H   LINE      ---      ---       #163
      00FF28F1H   LINE      ---      ---       #164
      00FF28FEH   LINE      ---      ---       #165
      00FF2904H   LINE      ---      ---       #166
      00FF2909H   LINE      ---      ---       #167
      00FF290BH   LINE      ---      ---       #168
      ---         BLOCKEND  ---      ---       LVL=0

      00FFBA6CH   BLOCK     CODE     ---       LVL=0
      00FFBA6CH   LINE      ---      ---       #171
      00FFBA6CH   LINE      ---      ---       #173
      00FFBA72H   LINE      ---      ---       #175
      00FFBA75H   LINE      ---      ---       #176
      00FFBA75H   LINE      ---      ---       #178
      00FFBA7BH   LINE      ---      ---       #180
      00FFBA85H   LINE      ---      ---       #182
      00FFBA88H   LINE      ---      ---       #183
      00FFBA88H   LINE      ---      ---       #185
      00FFBA8BH   LINE      ---      ---       #186
      00FFBA8BH   LINE      ---      ---       #190
      00FFBA95H   LINE      ---      ---       #192
      00FFBA97H   LINE      ---      ---       #194
      00FFBAA1H   LINE      ---      ---       #196
      00FFBAA1H   LINE      ---      ---       #197
      00FFBAA3H   LINE      ---      ---       #198
      00FFBAB4H   LINE      ---      ---       #200
      00FFBAB4H   LINE      ---      ---       #202
      00FFBAB6H   LINE      ---      ---       #204
      00FFBAB6H   LINE      ---      ---       #206
      00FFBAC0H   LINE      ---      ---       #208
      00FFBAC2H   LINE      ---      ---       #209
      00FFBAC8H   LINE      ---      ---       #210
      00FFBAC9H   LINE      ---      ---       #211
      00FFBAC9H   LINE      ---      ---       #213
      00FFBAD5H   LINE      ---      ---       #215
      00FFBAEBH   LINE      ---      ---       #218
      00FFBAEDH   LINE      ---      ---       #219
      00FFBAEDH   LINE      ---      ---       #221
      ---         BLOCKEND  ---      ---       LVL=0

      00FF290CH   BLOCK     CODE     ---       LVL=0
      00FF290CH   LINE      ---      ---       #224
      00FF290CH   LINE      ---      ---       #227
      00FF2912H   LINE      ---      ---       #229
      00FF2915H   LINE      ---      ---       #230
      00FF2920H   LINE      ---      ---       #231
      00FF2924H   LINE      ---      ---       #232
      00FF2926H   LINE      ---      ---       #235
      00FF2929H   LINE      ---      ---       #236
      00FF2934H   LINE      ---      ---       #237
      00FF293AH   LINE      ---      ---       #238
      00FF293AH   LINE      ---      ---       #240
      00FF2946H   LINE      ---      ---       #241
      00FF294BH   LINE      ---      ---       #242
      00FF294DH   LINE      ---      ---       #245
      00FF2954H   LINE      ---      ---       #247
      00FF2957H   LINE      ---      ---       #248
      00FF2959H   LINE      ---      ---       #251
      00FF295BH   LINE      ---      ---       #252
      00FF295BH   LINE      ---      ---       #255
L251 LINKER/LOCATER V4.66.93.0                                                        07/01/2025  14:01:01  PAGE 185


      00FF2961H   LINE      ---      ---       #257
      00FF2962H   LINE      ---      ---       #258
      00FF2964H   LINE      ---      ---       #261
      00FF296AH   LINE      ---      ---       #262
      00FF296AH   LINE      ---      ---       #263
      ---         BLOCKEND  ---      ---       LVL=0

      ---         MODULE    ---      ---       msg_ctrl
      00FF144DH   PUBLIC    CODE     ---       MSG_HdlrInit
      00FF501CH   PUBLIC    CODE     ---       MSG_Hdlr
      00FFBAEEH   PUBLIC    CODE     ---       MSG_Isr?_
      00FF49DBH   PUBLIC    CODE     ---       MSG_Idle
      00FF57E6H   PUBLIC    CODE     ---       MSG_OutMsgForceHandle
      00FF505DH   PUBLIC    CODE     ---       MSG_OutStateSet
      00FFBB39H   PUBLIC    CODE     ---       MSG_EventClr
      00FF4F87H   PUBLIC    CODE     ---       MSG_InMsgProc
      00FF5066H   PUBLIC    CODE     ---       MSG_OutMsgToBmu
      00FF5033H   PUBLIC    CODE     ---       MSG_OutMsgProc
      0000B62CH   PUBLIC    EDATA    ---       sMsgCtrl
      000000A8H.7 SFRSYM    DATA     BIT       EA

      00FF505DH   BLOCK     CODE     ---       LVL=0
      00FF505DH   LINE      ---      ---       #89
      00FF505DH   LINE      ---      ---       #93
      00FF505FH   LINE      ---      ---       #94
      00FF5063H   LINE      ---      ---       #95
      00FF5065H   LINE      ---      ---       #96
      WR6         REGSYM    ---      INT       outMsgState
      ---         BLOCKEND  ---      ---       LVL=0

      00FFBB39H   BLOCK     CODE     ---       LVL=0
      00FFBB39H   LINE      ---      ---       #98
      00FFBB39H   LINE      ---      ---       #102
      00FFBB3BH   LINE      ---      ---       #103
      00FFBB47H   LINE      ---      ---       #104
      00FFBB49H   LINE      ---      ---       #105
      WR6         REGSYM    ---      INT       inType
      ---         BLOCKEND  ---      ---       LVL=0

      00FF144DH   BLOCK     CODE     ---       LVL=0
      00FF144DH   LINE      ---      ---       #127
      00FF144DH   LINE      ---      ---       #130
      00FF1450H   LINE      ---      ---       #133
      00FF1456H   LINE      ---      ---       #134
      00FF145AH   LINE      ---      ---       #135
      00FF145FH   LINE      ---      ---       #139
      ---         BLOCKEND  ---      ---       LVL=0

      00FF4F87H   BLOCK     CODE     ---       LVL=0
      00FF4F87H   LINE      ---      ---       #234
      00FF4F8BH   LINE      ---      ---       #235
      00FF4F8BH   BLOCK     CODE     NEAR LAB  LVL=1
      00FF4F8BH   LINE      ---      ---       #245
      00FF4F90H   LINE      ---      ---       #249
      00FF4F98H   LINE      ---      ---       #250
      00FF4FA3H   LINE      ---      ---       #251
      00FF4FA6H   LINE      ---      ---       #254
      00FF4FA6H   LINE      ---      ---       #255
      00FF4FB3H   LINE      ---      ---       #256
      00FF4FC4H   LINE      ---      ---       #259
      00FF4FC4H   LINE      ---      ---       #266
      00FF4FC9H   LINE      ---      ---       #268
      00FF4FCBH   LINE      ---      ---       #272
      00FF4FCBH   LINE      ---      ---       #273
      00FF4FCBH   LINE      ---      ---       #283
L251 LINKER/LOCATER V4.66.93.0                                                        07/01/2025  14:01:01  PAGE 186


      00FF4FD7H   LINE      ---      ---       #285
      00FF4FD9H   LINE      ---      ---       #288
      00FF4FD9H   LINE      ---      ---       #289
      00FF4FDCH   LINE      ---      ---       #290
      00FF4FDCH   LINE      ---      ---       #291
      R15         REGSYM    ---      BYTE      qIdx
      REG=6       REGSYM    ---      ---       pQPayload
      REG=6       REGSYM    ---      ---       pRuciHead
      0000B69CH   SYMBOL    EDATA    WORD      cmdLength
      ---         BLOCKEND  CODE     ---       LVL=1
      00FF4FDCH   LINE      ---      ---       #297
      00FF4FDCH   LINE      CODE     ---       #297

      00FF5066H   BLOCK     CODE     ---       LVL=0
      00FF5066H   LINE      ---      ---       #300
      00FF5068H   LINE      ---      ---       #301
      00FF5068H   BLOCK     CODE     NEAR LAB  LVL=1
      00FF5068H   LINE      ---      ---       #314
      00FF5070H   LINE      ---      ---       #317
      00FF5079H   LINE      ---      ---       #364
      00FF5080H   LINE      ---      ---       #369
      00FF5086H   LINE      ---      ---       #373
      REG=7       REGSYM    ---      ---       pQPayload
      WR4         REGSYM    ---      WORD      msgLength
      R15         REGSYM    ---      BYTE      retValue
      ---         BLOCKEND  CODE     ---       LVL=1
      00FF508DH   LINE      ---      ---       #375
      00FF508DH   LINE      CODE     ---       #375

      00FF5033H   BLOCK     CODE     ---       LVL=0
      00FF5033H   LINE      ---      ---       #378
      00FF5033H   LINE      ---      ---       #380
      00FF5045H   LINE      ---      ---       #382
      00FF5045H   LINE      ---      ---       #384
      00FF5049H   LINE      ---      ---       #386
      00FF5049H   LINE      ---      ---       #389
      00FF5051H   LINE      ---      ---       #390
      00FF5051H   LINE      ---      ---       #393
      00FF5057H   LINE      ---      ---       #396
      00FF5059H   LINE      ---      ---       #398
      00FF5059H   LINE      ---      ---       #400
      00FF5059H   LINE      ---      ---       #403
      00FF5059H   LINE      ---      ---       #405
      00FF5059H   LINE      ---      ---       #406
      00FF505CH   LINE      ---      ---       #407
      00FF505CH   LINE      ---      ---       #408
      00FF505CH   LINE      ---      ---       #409
      ---         BLOCKEND  ---      ---       LVL=0

      00FF501CH   BLOCK     CODE     ---       LVL=0
      00FF501CH   LINE      ---      ---       #411
      00FF501CH   LINE      ---      ---       #437
      00FF501EH   LINE      ---      ---       #440
      00FF5028H   LINE      ---      ---       #443
      00FF502FH   LINE      ---      ---       #446
      00FF5032H   LINE      ---      ---       #447
      ---         BLOCKEND  ---      ---       LVL=0

      00FFBAEEH   BLOCK     CODE     ---       LVL=0
      00FFBAEEH   LINE      ---      ---       #455
      00FFBAF0H   LINE      ---      ---       #460
      00FFBAF3H   LINE      ---      ---       #461
      00FFBAFEH   LINE      ---      ---       #464
      00FFBB03H   LINE      ---      ---       #465
      00FFBB0BH   LINE      ---      ---       #468
L251 LINKER/LOCATER V4.66.93.0                                                        07/01/2025  14:01:01  PAGE 187


      00FFBB10H   LINE      ---      ---       #469
      R4          REGSYM    ---      BYTE      statusBmu
      00FFBB10H   BLOCK     CODE     NEAR LAB  LVL=1
      00FFBB10H   LINE      ---      ---       #472
      00FFBB20H   LINE      ---      ---       #473
      R5          REGSYM    ---      BYTE      regValue
      ---         BLOCKEND  CODE     ---       LVL=1
      00FFBB30H   LINE      ---      ---       #474
      00FFBB30H   LINE      ---      ---       #477
      00FFBB38H   LINE      ---      ---       #490
      00FFBB38H   LINE      CODE     ---       #490

      00FF49DBH   BLOCK     CODE     ---       LVL=0
      00FF49DBH   LINE      ---      ---       #492
      00FF49DDH   LINE      ---      ---       #493
      00FF49DDH   BLOCK     CODE     NEAR LAB  LVL=1
      00FF49DDH   LINE      ---      ---       #497
      00FF49EDH   LINE      ---      ---       #498
      00FF49F0H   LINE      ---      ---       #501
      00FF49F2H   LINE      ---      ---       #503
      00FF49F9H   LINE      ---      ---       #504
      00FF49FCH   LINE      ---      ---       #505
      00FF4A04H   LINE      ---      ---       #507
      WR14        REGSYM    ---      INT       qIdx
      ---         BLOCKEND  CODE     ---       LVL=1
      00FF4A06H   LINE      ---      ---       #508
      00FF4A06H   LINE      CODE     ---       #508

      00FF57E6H   BLOCK     CODE     ---       LVL=0
      00FF57E6H   LINE      ---      ---       #510
      00FF57E8H   LINE      ---      ---       #511
      00FF57E8H   BLOCK     CODE     NEAR LAB  LVL=1
      00FF57E8H   LINE      ---      ---       #515
      00FF57EAH   LINE      ---      ---       #516
      00FF57ECH   LINE      ---      ---       #517
      R15         REGSYM    ---      BYTE      msgState
      ---         BLOCKEND  CODE     ---       LVL=1
      00FF57F3H   LINE      ---      ---       #518
      00FF57F3H   LINE      CODE     ---       #518

      ---         MODULE    ---      ---       hal
      00FF5F8FH   PUBLIC    CODE     ---       HAL_IsBleHw
      00FFBB4AH   PUBLIC    CODE     ---       HAL_IsWisunHw
      00FFBB5FH   PUBLIC    CODE     ---       HAL_IsZigbeeHw
      00FF6175H   PUBLIC    CODE     ---       HAL_IsSubgRf
      00FFBFDAH   PUBLIC    CODE     ---       HAL_Is2gRf
      00FF8787H   PUBLIC    CODE     ---       HAL_HwModeGet
      00FFBFE9H   PUBLIC    CODE     ---       HAL_ClkModeSet
      00FFC031H   PUBLIC    CODE     ---       HAL_HwModeInit?_
      00FFC3B4H   PUBLIC    CODE     ---       HAL_Watchdog
      00FFC266H   PUBLIC    CODE     ---       HAL_PktTypeSet

      00FFC266H   BLOCK     CODE     ---       LVL=0
      00FFC266H   LINE      ---      ---       #35
      00FFC266H   LINE      ---      ---       #36
      00FFC266H   BLOCK     CODE     NEAR LAB  LVL=1
      00FFC266H   LINE      ---      ---       #46
      00FFC273H   LINE      ---      ---       #47
      00FFC278H   LINE      ---      ---       #50
      00FFC27AH   LINE      ---      ---       #51
      00FFC294H   LINE      ---      ---       #52
      00FFC2AFH   LINE      ---      ---       #59
      00FFC2B3H   LINE      ---      ---       #60
      00FFC2BEH   LINE      ---      ---       #63
      R10         REGSYM    ---      BYTE      regValue
L251 LINKER/LOCATER V4.66.93.0                                                        07/01/2025  14:01:01  PAGE 188


      ---         BLOCKEND  CODE     ---       LVL=1
      00FFC2CAH   LINE      ---      ---       #64
      00FFC2CAH   LINE      CODE     ---       #64

      00FF5F8FH   BLOCK     CODE     ---       LVL=0
      00FF5F8FH   LINE      ---      ---       #70
      00FF5F8FH   LINE      ---      ---       #72
      00FF5FA1H   LINE      ---      ---       #73
      ---         BLOCKEND  ---      ---       LVL=0

      00FFBB4AH   BLOCK     CODE     ---       LVL=0
      00FFBB4AH   LINE      ---      ---       #77
      00FFBB4AH   LINE      ---      ---       #79
      00FFBB5EH   LINE      ---      ---       #80
      ---         BLOCKEND  ---      ---       LVL=0

      00FFBB5FH   BLOCK     CODE     ---       LVL=0
      00FFBB5FH   LINE      ---      ---       #84
      00FFBB5FH   LINE      ---      ---       #86
      00FFBB73H   LINE      ---      ---       #87
      ---         BLOCKEND  ---      ---       LVL=0

      00FF6154H   BLOCK     CODE     ---       LVL=0
      00FF6175H   LINE      ---      ---       #98
      00FF6175H   LINE      ---      ---       #100
      00FF6182H   LINE      ---      ---       #101
      00FF6154H   SYMBOL    CODE     NEAR LAB  ?L?COM001B
      ---         BLOCKEND  ---      ---       LVL=0

      00FFBFDAH   BLOCK     CODE     ---       LVL=0
      00FFBFDAH   LINE      ---      ---       #105
      00FFBFDAH   LINE      ---      ---       #107
      00FFBFE8H   LINE      ---      ---       #108
      ---         BLOCKEND  ---      ---       LVL=0

      00FFBFE9H   BLOCK     CODE     ---       LVL=0
      00FFBFE9H   LINE      ---      ---       #111
      00FFBFEBH   LINE      ---      ---       #115
      00FFBFF3H   LINE      ---      ---       #117
      00FFBFF3H   LINE      ---      ---       #119
      00FFBFF3H   LINE      ---      ---       #120
      00FFBFFFH   LINE      ---      ---       #121
      00FFC00BH   LINE      ---      ---       #122
      00FFC00CH   LINE      ---      ---       #124
      00FFC00EH   LINE      ---      ---       #127
      00FFC00EH   LINE      ---      ---       #128
      00FFC01AH   LINE      ---      ---       #129
      00FFC026H   LINE      ---      ---       #133
      00FFC02CH   LINE      ---      ---       #134
      00FFC02CH   LINE      ---      ---       #136
      00FFC02CH   LINE      ---      ---       #137
      00FFC030H   LINE      ---      ---       #138
      WR4         REGSYM    ---      INT       clkMode
      ---         BLOCKEND  ---      ---       LVL=0

      00FF8787H   BLOCK     CODE     ---       LVL=0
      00FF8787H   LINE      ---      ---       #140
      00FF8787H   LINE      ---      ---       #142
      00FF878EH   LINE      ---      ---       #162
      ---         BLOCKEND  ---      ---       LVL=0

      00FFC031H   BLOCK     CODE     ---       LVL=0
      00FFC031H   LINE      ---      ---       #269
      00FFC03BH   LINE      ---      ---       #276
      WR12        REGSYM    ---      INT       halType
L251 LINKER/LOCATER V4.66.93.0                                                        07/01/2025  14:01:01  PAGE 189


      FFFFFFFBH   STKSYM    ---      INT       rfkBand
      WR14        REGSYM    ---      INT       clkMode
      FFFFFFF3H   STKSYM    ---      INT       rxqOpMode
      00FFC03BH   BLOCK     CODE     NEAR LAB  LVL=1
      00FFC03BH   LINE      ---      ---       #290
      00FFC03DH   LINE      ---      ---       #294
      00FFC047H   LINE      ---      ---       #298
      00FFC04BH   LINE      ---      ---       #299
      00FFC063H   LINE      ---      ---       #300
      00FFC073H   LINE      ---      ---       #301
      00FFC07FH   LINE      ---      ---       #304
      00FFC083H   LINE      ---      ---       #306
      00FFC087H   LINE      ---      ---       #307
      00FFC089H   LINE      ---      ---       #311
      00FFC095H   LINE      ---      ---       #312
      00FFC095H   LINE      ---      ---       #315
      00FFC09EH   LINE      ---      ---       #318
      00FFC0A3H   LINE      ---      ---       #321
      00FFC0C1H   LINE      ---      ---       #325
      00FFC0C3H   LINE      ---      ---       #328
      00FFC0CFH   LINE      ---      ---       #330
      00FFC0CFH   LINE      ---      ---       #332
      00FFC0CFH   LINE      ---      ---       #333
      00FFC0DFH   LINE      ---      ---       #336
      00FFC0E1H   LINE      ---      ---       #338
      00FFC0E1H   LINE      ---      ---       #339
      00FFC0FBH   LINE      ---      ---       #341
      00FFC0FBH   LINE      ---      ---       #343
      00FFC0FBH   LINE      ---      ---       #346
      00FFC101H   LINE      ---      ---       #349
      00FFC107H   LINE      ---      ---       #352
      00FFC10DH   LINE      ---      ---       #355
      00FFC11CH   LINE      ---      ---       #358
      00FFC13BH   LINE      ---      ---       #362
      00FFC141H   LINE      ---      ---       #364
      00FFC14BH   LINE      ---      ---       #365
      00FFC16AH   LINE      ---      ---       #366
      00FFC174H   LINE      ---      ---       #367
      00FFC193H   LINE      ---      ---       #368
      00FFC193H   LINE      ---      ---       #372
      00FFC19EH   LINE      ---      ---       #375
      00FFC1ABH   LINE      ---      ---       #379
      00FFC1B5H   LINE      ---      ---       #383
      00FFC1C0H   LINE      ---      ---       #386
      00FFC1CCH   LINE      ---      ---       #389
      00FFC1D4H   LINE      ---      ---       #393
      00FFC1DCH   LINE      ---      ---       #394
      00FFC1E1H   LINE      ---      ---       #428
      FFFFFFFFH   STKSYM    ---      INT       clkModeCurrent
      FFFFFFFDH   STKSYM    ---      INT       rfBandTemp
      WR4         REGSYM    ---      INT       rfkBandTemp
      WR2         REGSYM    ---      INT       modemTemp
      ---         BLOCKEND  CODE     ---       LVL=1
      00FFC1E1H   LINE      ---      ---       #430
      00FFC1E1H   LINE      CODE     ---       #430

      00FFC3B4H   BLOCK     CODE     ---       LVL=0
      00FFC3B4H   LINE      ---      ---       #433
      00FFC3B4H   LINE      ---      ---       #448
      ---         BLOCKEND  ---      ---       LVL=0

      ---         MODULE    ---      ---       hal_cfg
      00FF1119H   PUBLIC    HCONST   ---       sHalFwCfg
      00FF1127H   PUBLIC    HCONST   ---       sHalHwCfgBLE
      00FF115DH   PUBLIC    HCONST   ---       sHalHwCfgWisun
L251 LINKER/LOCATER V4.66.93.0                                                        07/01/2025  14:01:01  PAGE 190


      00FF1193H   PUBLIC    HCONST   ---       sHalHwCfgZigbee

      ---         MODULE    ---      ---       hal_mac
      00FF9EB7H   PUBLIC    CODE     ---       HALMAC_WhitenSet
      00FF57CFH   PUBLIC    CODE     ---       HALMAC_CrcInitDftGet
      00FF9EDAH   PUBLIC    CODE     ---       HALMAC_CrcSet
      00FFC225H   PUBLIC    CODE     ---       HALMAC_TxPreambleSet
      00FFC235H   PUBLIC    CODE     ---       HALMAC_RxPreambleSet
      00FF2D4BH   PUBLIC    CODE     ---       HALMAC_TxSfdSet
      00FF2F16H   PUBLIC    CODE     ---       HALMAC_RxSfdSet
      00FF35A5H   PUBLIC    CODE     ---       HALMAC_PhrSet
      00FFC219H   PUBLIC    CODE     ---       HALMAC_RxMhrRptLenSet
      00FF2157H   PUBLIC    CODE     ---       HALMAC_RxMaxPktLenSet
      00FFC1E8H   PUBLIC    CODE     ---       HALMAC_PktBitEndianSet
      00FFC3B5H   PUBLIC    CODE     ---       HALMAC_WhitenDftGet
      00FF57C2H   PUBLIC    CODE     ---       HALMAC_WhitenInitDftGet
      00FF82DFH   PUBLIC    CODE     ---       HALMAC_CrcLenCfgGet
      00FF878FH   PUBLIC    CODE     ---       HALMAC_PhrLenCfgGet
      00FFC3BEH   PUBLIC    CODE     ---       HALMAC_SfdDftGet
      00FF82F8H   PUBLIC    CODE     ---       HALMAC_RxPayloadLenGet
      00FF214AH   PUBLIC    CODE     ---       HALMAC_MaxPayloadDftGet
      00FF87B1H   PUBLIC    CODE     ---       HALMAC_MaxPayloadLenGet
      00FF6D74H   PUBLIC    CODE     ---       HALMAC_TxTypeSet
      00FFC3D5H   PUBLIC    CODE     ---       HALMAC_IfsT2T
      00FFC461H   PUBLIC    CODE     ---       HALMAC_IfsT2R
      00FFC4C3H   PUBLIC    CODE     ---       HALMAC_IfsR2R
      00FFC545H   PUBLIC    CODE     ---       HALMAC_IfsR2T

      00FF9EB7H   BLOCK     CODE     ---       LVL=0
      00FF9EB7H   LINE      ---      ---       #23
      00FF9EB9H   LINE      ---      ---       #29
      00FF9ED2H   LINE      ---      ---       #32
      00FF9ED9H   LINE      ---      ---       #33
      WR6         REGSYM    ---      INT       whitenType
      R10         REGSYM    ---      BYTE      initValue
      ---         BLOCKEND  ---      ---       LVL=0

      00FF9EDAH   BLOCK     CODE     ---       LVL=0
      00FF9EDAH   LINE      ---      ---       #35
      00FF9EDEH   LINE      ---      ---       #41
      00FF9EF7H   LINE      ---      ---       #44
      00FF9EFBH   LINE      ---      ---       #45
      00FF9F0DH   LINE      ---      ---       #47
      00FF9F18H   LINE      ---      ---       #48
      WR2         REGSYM    ---      INT       crcType
      DR28        REGSYM    ---      DWORD     initValue
      ---         BLOCKEND  ---      ---       LVL=0

      00FFC225H   BLOCK     CODE     ---       LVL=0
      00FFC225H   LINE      ---      ---       #51
      00FFC225H   LINE      ---      ---       #56
      WR6         REGSYM    ---      INT       preambleType
      ---         BLOCKEND  ---      ---       LVL=0

      00FFC235H   BLOCK     CODE     ---       LVL=0
      00FFC235H   LINE      ---      ---       #59
      00FFC235H   LINE      ---      ---       #64
      WR6         REGSYM    ---      INT       preambleType
      ---         BLOCKEND  ---      ---       LVL=0

      00FF2D4BH   BLOCK     CODE     ---       LVL=0
      00FF2D4BH   LINE      ---      ---       #67
      00FF2D4BH   LINE      ---      ---       #73
      00FF2D59H   LINE      ---      ---       #76
      WR6         REGSYM    ---      INT       sfdType
L251 LINKER/LOCATER V4.66.93.0                                                        07/01/2025  14:01:01  PAGE 191


      DR0         REGSYM    ---      DWORD     sfdData
      ---         BLOCKEND  ---      ---       LVL=0

      00FF2F16H   BLOCK     CODE     ---       LVL=0
      00FF2F16H   LINE      ---      ---       #80
      00FF2F1AH   LINE      ---      ---       #85
      00FF2F2FH   LINE      ---      ---       #89
      00FF2F2FH   LINE      ---      ---       #90
      00FF2F35H   LINE      ---      ---       #92
      00FF2F44H   LINE      ---      ---       #93
      00FF2F5BH   LINE      ---      ---       #94
      00FF2F66H   LINE      ---      ---       #95
      00FF2F6AH   LINE      ---      ---       #96
      00FF2F6CH   LINE      ---      ---       #99
      00FF2F7CH   LINE      ---      ---       #100
      00FF2F93H   LINE      ---      ---       #101
      00FF2F9EH   LINE      ---      ---       #102
      00FF2FB1H   LINE      ---      ---       #103
      00FF2FB1H   LINE      ---      ---       #107
      00FF2FB1H   LINE      ---      ---       #109
      00FF2FC2H   LINE      ---      ---       #110
      00FF2FCDH   LINE      ---      ---       #111
      00FF2FCDH   LINE      ---      ---       #114
      00FF2FCDH   LINE      ---      ---       #115
      00FF2FCDH   LINE      ---      ---       #116
      00FF2FCDH   LINE      ---      ---       #117
      WR10        REGSYM    ---      INT       sfdType
      DR28        REGSYM    ---      DWORD     sfdData
      ---         BLOCKEND  ---      ---       LVL=0

      00FF3597H   BLOCK     CODE     ---       LVL=0
      00FF35A5H   LINE      ---      ---       #120
      00FF35A5H   LINE      ---      ---       #127
      00FF35B6H   LINE      ---      ---       #133
      00FF35C5H   LINE      ---      ---       #134
      00FF3597H   SYMBOL    CODE     NEAR LAB  ?L?COM0033
      WR6         REGSYM    ---      INT       phrType
      DR0         REGSYM    ---      DWORD     phrData
      ---         BLOCKEND  ---      ---       LVL=0

      00FFC219H   BLOCK     CODE     ---       LVL=0
      00FFC219H   LINE      ---      ---       #136
      00FFC219H   LINE      ---      ---       #140
      WR6         REGSYM    ---      WORD      rptLen
      ---         BLOCKEND  ---      ---       LVL=0

      00FF2153H   BLOCK     CODE     ---       LVL=0
      00FF2157H   LINE      ---      ---       #144
      00FF2153H   SYMBOL    CODE     NEAR LAB  ?L?COM0054
      WR2         REGSYM    ---      WORD      pktLen
      00FF2157H   BLOCK     CODE     NEAR LAB  LVL=1
      00FF2165H   LINE      ---      ---       #157
      00FF216AH   LINE      ---      ---       #158
      DR8         REGSYM    ---      DWORD     regVal
      ---         BLOCKEND  CODE     ---       LVL=1
      00FF2175H   LINE      ---      ---       #159
      00FF2175H   LINE      CODE     ---       #159

      00FFC1E8H   BLOCK     CODE     ---       LVL=0
      00FFC1E8H   LINE      ---      ---       #162
      WR2         REGSYM    ---      INT       bitEndian
      00FFC1E8H   BLOCK     CODE     NEAR LAB  LVL=1
      00FFC1F6H   LINE      ---      ---       #175
      00FFC207H   LINE      ---      ---       #176
      DR28        REGSYM    ---      DWORD     regVal
L251 LINKER/LOCATER V4.66.93.0                                                        07/01/2025  14:01:01  PAGE 192


      ---         BLOCKEND  CODE     ---       LVL=1
      ---         BLOCKEND  CODE     ---       LVL=0

      00FFC3B5H   BLOCK     CODE     ---       LVL=0
      00FFC3B5H   LINE      ---      ---       #181
      00FFC3B5H   LINE      ---      ---       #183
      00FFC3BDH   LINE      ---      ---       #184
      ---         BLOCKEND  ---      ---       LVL=0

      00FF57C2H   BLOCK     CODE     ---       LVL=0
      00FF57C2H   LINE      ---      ---       #186
      00FF57C2H   LINE      ---      ---       #189
      00FF57CAH   LINE      ---      ---       #190
      ---         BLOCKEND  ---      ---       LVL=0

      00FF57CBH   BLOCK     CODE     ---       LVL=0
      00FF57CFH   LINE      ---      ---       #192
      00FF57CFH   LINE      ---      ---       #197
      00FF57E5H   LINE      ---      ---       #198
      00FF57CBH   SYMBOL    CODE     NEAR LAB  ?L?COM0058
      WR6         REGSYM    ---      INT       crcType
      ---         BLOCKEND  ---      ---       LVL=0

      00FF82DFH   BLOCK     CODE     ---       LVL=0
      00FF82DFH   LINE      ---      ---       #201
      00FF82DFH   LINE      ---      ---       #202
      00FF82DFH   BLOCK     CODE     NEAR LAB  LVL=1
      00FF82DFH   LINE      ---      ---       #206
      00FF82ECH   LINE      ---      ---       #207
      R7          REGSYM    ---      BYTE      regValue
      ---         BLOCKEND  CODE     ---       LVL=1
      00FF82F7H   LINE      ---      ---       #208
      00FF82F7H   LINE      CODE     ---       #208

      00FF878FH   BLOCK     CODE     ---       LVL=0
      00FF878FH   LINE      ---      ---       #210
      00FF878FH   LINE      ---      ---       #214
      00FF879AH   LINE      ---      ---       #215
      00FF879DH   LINE      ---      ---       #219
      00FF87A3H   LINE      ---      ---       #220
      00FF87A6H   LINE      ---      ---       #224
      00FF87ACH   LINE      ---      ---       #225
      00FF87AFH   LINE      ---      ---       #238
      00FF87B0H   LINE      ---      ---       #239
      ---         BLOCKEND  ---      ---       LVL=0

      00FF82F8H   BLOCK     CODE     ---       LVL=0
      00FF82F8H   LINE      ---      ---       #254
      00FF82F8H   LINE      ---      ---       #256
      00FF830BH   LINE      ---      ---       #259
      00FF830BH   LINE      ---      ---       #260
      00FF831DH   LINE      ---      ---       #264
      00FF831DH   LINE      ---      ---       #265
      00FF8334H   LINE      ---      ---       #269
      00FF8334H   LINE      ---      ---       #270
      00FF834CH   LINE      ---      ---       #278
      00FF834CH   LINE      ---      ---       #279
      00FF834EH   LINE      ---      ---       #280
      00FF834EH   LINE      ---      ---       #281
      ---         BLOCKEND  ---      ---       LVL=0

      00FFC3BEH   BLOCK     CODE     ---       LVL=0
      00FFC3BEH   LINE      ---      ---       #283
      00FFC3BEH   LINE      ---      ---       #288
      00FFC3D4H   LINE      ---      ---       #289
L251 LINKER/LOCATER V4.66.93.0                                                        07/01/2025  14:01:01  PAGE 193


      WR6         REGSYM    ---      INT       sfdType
      ---         BLOCKEND  ---      ---       LVL=0

      00FF214AH   BLOCK     CODE     ---       LVL=0
      00FF214AH   LINE      ---      ---       #292
      00FF214AH   LINE      ---      ---       #295
      00FF2152H   LINE      ---      ---       #296
      ---         BLOCKEND  ---      ---       LVL=0

      00FF87B1H   BLOCK     CODE     ---       LVL=0
      00FF87B1H   LINE      ---      ---       #299
      00FF87B1H   LINE      ---      ---       #301
      00FF87C4H   LINE      ---      ---       #305
      00FF87C4H   LINE      ---      ---       #310
      00FF87C9H   LINE      ---      ---       #315
      00FF87C9H   LINE      ---      ---       #318
      00FF87C9H   LINE      ---      ---       #320
      00FF87D8H   LINE      ---      ---       #322
      00FF87D8H   LINE      ---      ---       #324
      00FF87DAH   LINE      ---      ---       #325
      ---         BLOCKEND  ---      ---       LVL=0

      00FF6D68H   BLOCK     CODE     ---       LVL=0
      00FF6D74H   LINE      ---      ---       #328
      00FF6D74H   LINE      ---      ---       #330
      00FF6D80H   LINE      ---      ---       #332
      00FF6D80H   LINE      ---      ---       #334
      00FF6D8CH   LINE      ---      ---       #335
      00FF6D8EH   LINE      ---      ---       #336
      00FF6D8EH   LINE      ---      ---       #337
      00FF6D8EH   LINE      ---      ---       #338
      00FF6D8EH   LINE      ---      ---       #339
      00FF6D90H   LINE      ---      ---       #340
      00FF6D90H   LINE      ---      ---       #342
      00FF6D9CH   LINE      ---      ---       #343
      00FF6DA1H   LINE      ---      ---       #344
      00FF6DADH   LINE      ---      ---       #345
      00FF6DB6H   LINE      ---      ---       #346
      00FF6DBEH   LINE      ---      ---       #347
      00FF6DBFH   LINE      ---      ---       #348
      00FF6DBFH   LINE      ---      ---       #350
      00FF6DCBH   LINE      ---      ---       #351
      00FF6DCDH   LINE      ---      ---       #352
      00FF6DCDH   LINE      ---      ---       #353
      00FF6DCFH   LINE      ---      ---       #354
      00FF6DCFH   LINE      ---      ---       #356
      00FF6DDBH   LINE      ---      ---       #357
      00FF6DE0H   LINE      ---      ---       #358
      00FF6DECH   LINE      ---      ---       #359
      00FF6DECH   LINE      ---      ---       #360
      00FF6DECH   LINE      ---      ---       #361
      00FF6D68H   SYMBOL    CODE     NEAR LAB  ?L?COM001F
      WR6         REGSYM    ---      INT       type
      ---         BLOCKEND  ---      ---       LVL=0

      00FFC3D5H   BLOCK     CODE     ---       LVL=0
      00FFC3D5H   LINE      ---      ---       #363
      00FFC3DBH   LINE      ---      ---       #368
      WR14        REGSYM    ---      WORD      ifs
      WR4         REGSYM    ---      INT       txBw
      R3          REGSYM    ---      BYTE      bEndTimer
      00FFC3DBH   BLOCK     CODE     NEAR LAB  LVL=1
      00FFC3DBH   LINE      ---      ---       #371
      00FFC3DFH   LINE      ---      ---       #372
      00FFC3F0H   LINE      ---      ---       #374
L251 LINKER/LOCATER V4.66.93.0                                                        07/01/2025  14:01:01  PAGE 194


      00FFC40AH   LINE      ---      ---       #376
      00FFC41EH   LINE      ---      ---       #377
      00FFC432H   LINE      ---      ---       #379
      R13         REGSYM    ---      BYTE      txTailDelay
      ---         BLOCKEND  CODE     ---       LVL=1
      00FFC434H   LINE      ---      ---       #380
      00FFC434H   LINE      CODE     ---       #380

      00FFC461H   BLOCK     CODE     ---       LVL=0
      00FFC461H   LINE      ---      ---       #383
      00FFC467H   LINE      ---      ---       #388
      WR14        REGSYM    ---      WORD      ifs
      WR4         REGSYM    ---      INT       txBw
      R3          REGSYM    ---      BYTE      bEndTimer
      00FFC467H   BLOCK     CODE     NEAR LAB  LVL=1
      00FFC467H   LINE      ---      ---       #391
      00FFC46BH   LINE      ---      ---       #392
      00FFC47CH   LINE      ---      ---       #394
      00FFC496H   LINE      ---      ---       #396
      00FFC4AAH   LINE      ---      ---       #397
      00FFC4BEH   LINE      ---      ---       #399
      R13         REGSYM    ---      BYTE      txTailDelay
      ---         BLOCKEND  CODE     ---       LVL=1
      00FFC4C0H   LINE      ---      ---       #400
      00FFC4C0H   LINE      CODE     ---       #400

      00FFC4C3H   BLOCK     CODE     ---       LVL=0
      00FFC4C3H   LINE      ---      ---       #402
      WR14        REGSYM    ---      WORD      ifs
      WR4         REGSYM    ---      INT       rxBw
      00FFC4C5H   BLOCK     CODE     NEAR LAB  LVL=1
      00FFC4C9H   LINE      ---      ---       #409
      00FFC4DDH   LINE      ---      ---       #410
      00FFC4F3H   LINE      ---      ---       #412
      R10         REGSYM    ---      BYTE      rxTailDelay
      ---         BLOCKEND  CODE     ---       LVL=1
      00FFC4F5H   LINE      ---      ---       #413
      00FFC4F5H   LINE      CODE     ---       #413

      00FFC545H   BLOCK     CODE     ---       LVL=0
      00FFC545H   LINE      ---      ---       #415
      WR14        REGSYM    ---      WORD      ifs
      WR4         REGSYM    ---      INT       rxBw
      00FFC547H   BLOCK     CODE     NEAR LAB  LVL=1
      00FFC54BH   LINE      ---      ---       #422
      00FFC55FH   LINE      ---      ---       #423
      00FFC575H   LINE      ---      ---       #425
      R10         REGSYM    ---      BYTE      rxTailDelay
      ---         BLOCKEND  CODE     ---       LVL=1
      00FFC577H   LINE      ---      ---       #426
      00FFC577H   LINE      CODE     ---       #426

      ---         MODULE    ---      ---       hal_para
      00FF082BH   PUBLIC    HCONST   ---       phyTabBpFir15Tap
      00FF0833H   PUBLIC    HCONST   ---       phyTabBpFir31Tap
      00FF0843H   PUBLIC    HCONST   ---       phyTabIfMap
      00FF084BH   PUBLIC    HCONST   ---       phyTabIfMapDclk
      00FF0851H   PUBLIC    HCONST   ---       sHalHwPara
      00FF08CAH   PUBLIC    HCONST   ---       sHalHwTab

      ---         MODULE    ---      ---       hal_phy
      00FFC57AH   PUBLIC    CODE     ---       HALPHY_DfeSet
      00FFC5F3H   PUBLIC    CODE     ---       HALPHY_ParaSet
      00FF2FDFH   PUBLIC    CODE     ---       HALPHY_GaussianFiltSet
      00FFC791H   PUBLIC    CODE     ---       HALPHY_RxDisable
L251 LINKER/LOCATER V4.66.93.0                                                        07/01/2025  14:01:01  PAGE 195


      00FF671DH   PUBLIC    CODE     ---       HALPHY_RxEnable
      00FF6183H   PUBLIC    CODE     ---       HALPHY_TxEnable
      00FF45F0H   PUBLIC    CODE     ---       HALPHY_PreamNumSet
      00FFC7ABH   PUBLIC    CODE     ---       HALPHY_TxBwSet
      00FFCA69H   PUBLIC    CODE     ---       HALPHY_RxBwSet
      00FFCEB9H   PUBLIC    CODE     ---       HALPHY_InputPwrGet
      00FFCE33H   PUBLIC    CODE     ---       HALPHY_BleRxParaSet
      00FF6674H   PUBLIC    CODE     ---       HALPHY_FskRxParaSet
      00FFCE98H   PUBLIC    CODE     ---       HALPHY_ModIdxSet

      00FFCE33H   BLOCK     CODE     ---       LVL=0
      00FFCE33H   LINE      ---      ---       #25
      00FFCE3BH   LINE      ---      ---       #34
      00FFCE4EH   LINE      ---      ---       #35
      00FFCE61H   LINE      ---      ---       #36
      00FFCE69H   LINE      ---      ---       #37
      00FFCE74H   LINE      ---      ---       #38
      00FFCE7BH   LINE      ---      ---       #39
      00FFCE86H   LINE      ---      ---       #40
      R11         REGSYM    ---      BYTE      detectionOffset
      R8          REGSYM    ---      BYTE      rxPreamBase
      R9          REGSYM    ---      BYTE      syncBitTh
      WR2         REGSYM    ---      WORD      syncCorrTh
      R10         REGSYM    ---      BYTE      trackBitTh
      WR0         REGSYM    ---      WORD      trackCorrTh
      ---         BLOCKEND  ---      ---       LVL=0

      00FF6674H   BLOCK     CODE     ---       LVL=0
      00FF6674H   LINE      ---      ---       #44
      00FF6676H   LINE      ---      ---       #50
      00FF668AH   LINE      ---      ---       #51
      00FF66A0H   LINE      ---      ---       #52
      R2          REGSYM    ---      BYTE      trackKp
      R3          REGSYM    ---      BYTE      trackKq
      R6          REGSYM    ---      BYTE      cfoEstAlphaIdx
      ---         BLOCKEND  ---      ---       LVL=0

      00FFC57AH   BLOCK     CODE     ---       LVL=0
      00FFC57AH   LINE      ---      ---       #59
      00FFC57AH   LINE      ---      ---       #61
      00FFC58DH   LINE      ---      ---       #65
      00FFC58DH   LINE      ---      ---       #68
      00FFC58DH   LINE      ---      ---       #71
      00FFC5A0H   LINE      ---      ---       #73
      00FFC5A8H   LINE      ---      ---       #74
      00FFC5AAH   LINE      ---      ---       #78
      00FFC5AAH   LINE      ---      ---       #81
      00FFC5B0H   LINE      ---      ---       #83
      00FFC5B8H   LINE      ---      ---       #84
      00FFC5BAH   LINE      ---      ---       #88
      00FFC5CDH   LINE      ---      ---       #89
      00FFC5CDH   LINE      ---      ---       #91
      00FFC5E0H   LINE      ---      ---       #92
      00FFC5E0H   LINE      ---      ---       #103
      00FFC5E0H   LINE      ---      ---       #107
      ---         BLOCKEND  ---      ---       LVL=0

      00FFC5F3H   BLOCK     CODE     ---       LVL=0
      00FFC5F3H   LINE      ---      ---       #111
      00FFC5F3H   LINE      ---      ---       #114
      00FFC60AH   LINE      ---      ---       #117
      00FFC60AH   LINE      ---      ---       #121
      00FFC626H   LINE      ---      ---       #122
      00FFC639H   LINE      ---      ---       #123
      00FFC64CH   LINE      ---      ---       #124
L251 LINKER/LOCATER V4.66.93.0                                                        07/01/2025  14:01:01  PAGE 196


      00FFC653H   LINE      ---      ---       #125
      00FFC668H   LINE      ---      ---       #128
      00FFC66AH   LINE      ---      ---       #132
      00FFC66AH   LINE      ---      ---       #133
      00FFC684H   LINE      ---      ---       #134
      00FFC697H   LINE      ---      ---       #135
      00FFC699H   LINE      ---      ---       #139
      00FFC699H   LINE      ---      ---       #140
      00FFC6B3H   LINE      ---      ---       #141
      00FFC6BEH   LINE      ---      ---       #142
      00FFC6CAH   LINE      ---      ---       #143
      00FFC6E1H   LINE      ---      ---       #144
      00FFC6F4H   LINE      ---      ---       #145
      00FFC6FFH   LINE      ---      ---       #146
      00FFC71AH   LINE      ---      ---       #148
      00FFC720H   LINE      ---      ---       #150
      00FFC733H   LINE      ---      ---       #151
      00FFC73EH   LINE      ---      ---       #152
      00FFC742H   LINE      ---      ---       #153
      00FFC744H   LINE      ---      ---       #157
      00FFC757H   LINE      ---      ---       #158
      00FFC762H   LINE      ---      ---       #159
      00FFC77AH   LINE      ---      ---       #160
      00FFC77AH   LINE      ---      ---       #161
      00FFC790H   LINE      ---      ---       #162
      00FFC790H   LINE      ---      ---       #177
      00FFC790H   LINE      ---      ---       #178
      00FFC790H   LINE      ---      ---       #179
      00FFC790H   LINE      ---      ---       #180
      ---         BLOCKEND  ---      ---       LVL=0

      00FF2FDFH   BLOCK     CODE     ---       LVL=0
      00FF2FDFH   LINE      ---      ---       #182
      00FF2FDFH   LINE      ---      ---       #186
      WR6         REGSYM    ---      INT       type
      ---         BLOCKEND  ---      ---       LVL=0

      00FFC791H   BLOCK     CODE     ---       LVL=0
      00FFC791H   LINE      ---      ---       #285
      00FFC791H   LINE      ---      ---       #288
      00FFC79AH   LINE      ---      ---       #291
      00FFC7A2H   LINE      ---      ---       #292
      00FFC7AAH   LINE      ---      ---       #293
      ---         BLOCKEND  ---      ---       LVL=0

      00FF671DH   BLOCK     CODE     ---       LVL=0
      00FF671DH   LINE      ---      ---       #295
      00FF671DH   LINE      ---      ---       #308
      00FF672CH   LINE      ---      ---       #314
      00FF6738H   LINE      ---      ---       #315
      00FF6744H   LINE      ---      ---       #317
      00FF6749H   LINE      ---      ---       #318
      00FF6755H   LINE      ---      ---       #326
      ---         BLOCKEND  ---      ---       LVL=0

      00FF6183H   BLOCK     CODE     ---       LVL=0
      00FF6183H   LINE      ---      ---       #332
      00FF6185H   LINE      ---      ---       #333
      00FF6185H   BLOCK     CODE     NEAR LAB  LVL=1
      00FF6185H   LINE      ---      ---       #334
      00FF618DH   LINE      ---      ---       #336
      00FF6191H   LINE      ---      ---       #351
      00FF619EH   LINE      ---      ---       #352
      00FF61BEH   LINE      ---      ---       #358
      00FF61D3H   LINE      ---      ---       #359
L251 LINKER/LOCATER V4.66.93.0                                                        07/01/2025  14:01:01  PAGE 197


      REG=7       REGSYM    ---      ---       pPllCfg
      WR12        REGSYM    ---      INT       modIdx
      00FF61D3H   BLOCK     CODE     NEAR LAB  LVL=2
      00FF61D3H   LINE      ---      ---       #360
      00FF61DAH   LINE      ---      ---       #361
      00FF61DEH   LINE      ---      ---       #364
      00FF620EH   LINE      ---      ---       #365
      00FF622AH   LINE      ---      ---       #366
      00FF625BH   LINE      ---      ---       #367
      00FF6287H   LINE      ---      ---       #368
      00FF6291H   LINE      ---      ---       #371
      00FF629AH   LINE      ---      ---       #372
      00FF62A6H   LINE      ---      ---       #373
      00FF62A8H   LINE      ---      ---       #377
      00FF62EAH   LINE      ---      ---       #378
      00FF631FH   LINE      ---      ---       #379
      00FF631FH   LINE      ---      ---       #381
      00FF6323H   LINE      ---      ---       #386
      00FF632FH   LINE      ---      ---       #387
      00FF633BH   LINE      ---      ---       #389
      00FF6340H   LINE      ---      ---       #390
      WR2         REGSYM    ---      INT       dataBwIdx
      WR30        REGSYM    ---      INT       subgBand
      ---         BLOCKEND  CODE     ---       LVL=2
      00FF634CH   LINE      ---      ---       #391
      00FF634CH   LINE      ---      ---       #400
      00FF6350H   LINE      ---      ---       #404
      00FF6352H   LINE      ---      ---       #408
      00FF6352H   LINE      CODE     ---       #408
      ---         BLOCKEND  CODE     ---       LVL=0

      00FFCE98H   BLOCK     CODE     ---       LVL=0
      00FFCE98H   LINE      ---      ---       #412
      00FFCE98H   LINE      ---      ---       #417
      00FFCE9CH   LINE      ---      ---       #426
      00FFCEA4H   LINE      ---      ---       #427
      00FFCEA6H   LINE      ---      ---       #437
      WR6         REGSYM    ---      INT       modIdx
      ---         BLOCKEND  ---      ---       LVL=0

      00FF45F0H   BLOCK     CODE     ---       LVL=0
      00FF45F0H   LINE      ---      ---       #443
      00FF45F0H   LINE      ---      ---       #447
      R7          REGSYM    ---      BYTE      preambleNum
      ---         BLOCKEND  ---      ---       LVL=0

      00FFC7ABH   BLOCK     CODE     ---       LVL=0
      00FFC7ABH   LINE      ---      ---       #451
      00FFC7B3H   LINE      ---      ---       #457
      WR30        REGSYM    ---      INT       dataBw
      WR8         REGSYM    ---      INT       modIdx
      WR28        REGSYM    ---      INT       codingType
      R11         REGSYM    ---      BYTE      bAutoCfg
      00FFC7B3H   BLOCK     CODE     NEAR LAB  LVL=1
      00FFC7B3H   LINE      ---      ---       #462
      00FFC7C5H   LINE      ---      ---       #464
      00FFC7CBH   LINE      ---      ---       #482
      00FFC7D0H   LINE      ---      ---       #484
      00FFC7E8H   LINE      ---      ---       #487
      00FFC7E8H   LINE      ---      ---       #496
      00FFC7EEH   LINE      ---      ---       #497
      00FFC7F8H   LINE      ---      ---       #500
      00FFC807H   LINE      ---      ---       #502
      00FFC809H   LINE      ---      ---       #506
      00FFC809H   LINE      ---      ---       #509
L251 LINKER/LOCATER V4.66.93.0                                                        07/01/2025  14:01:01  PAGE 198


      00FFC80FH   LINE      ---      ---       #510
      00FFC819H   LINE      ---      ---       #514
      00FFC824H   LINE      ---      ---       #517
      00FFC824H   LINE      ---      ---       #522
      00FFC834H   LINE      ---      ---       #524
      00FFC836H   LINE      ---      ---       #528
      00FFC836H   LINE      ---      ---       #533
      00FFC846H   LINE      ---      ---       #535
      00FFC848H   LINE      ---      ---       #537
      00FFC848H   LINE      ---      ---       #538
      00FFC848H   LINE      ---      ---       #539
      00FFC848H   LINE      ---      ---       #543
      00FFC848H   LINE      ---      ---       #545
      00FFC853H   LINE      ---      ---       #548
      00FFC853H   LINE      ---      ---       #553
      00FFC863H   LINE      ---      ---       #555
      00FFC865H   LINE      ---      ---       #559
      00FFC865H   LINE      ---      ---       #564
      00FFC887H   LINE      ---      ---       #566
      00FFC887H   LINE      ---      ---       #568
      00FFC887H   LINE      ---      ---       #569
      00FFC887H   LINE      ---      ---       #582
      00FFC887H   LINE      ---      ---       #588
      00FFC887H   LINE      ---      ---       #591
      00FFC89CH   LINE      ---      ---       #595
      00FFC89CH   LINE      ---      ---       #598
      00FFC89CH   LINE      ---      ---       #601
      00FFC89CH   LINE      ---      ---       #604
      00FFC8A3H   LINE      ---      ---       #606
      00FFC8ABH   LINE      ---      ---       #608
      00FFC8B3H   LINE      ---      ---       #611
      00FFC8D5H   LINE      ---      ---       #613
      00FFC8F1H   LINE      ---      ---       #619
      00FFC8FBH   LINE      ---      ---       #621
      00FFC8FBH   LINE      ---      ---       #623
      00FFC8FBH   LINE      ---      ---       #626
      00FFC8FDH   LINE      ---      ---       #638
      00FFC922H   LINE      ---      ---       #639
      00FFC93BH   LINE      ---      ---       #642
      00FFC961H   LINE      ---      ---       #644
      00FFC969H   LINE      ---      ---       #650
      00FFC96BH   LINE      ---      ---       #653
      00FFC96BH   LINE      ---      ---       #656
      00FFC97BH   LINE      ---      ---       #668
      00FFC9ABH   LINE      ---      ---       #669
      00FFC9C4H   LINE      ---      ---       #672
      00FFC9EBH   LINE      ---      ---       #674
      00FFC9F4H   LINE      ---      ---       #679
      00FFC9F4H   LINE      ---      ---       #681
      00FFC9F4H   LINE      ---      ---       #685
      00FFCA16H   LINE      ---      ---       #686
      00FFCA2DH   LINE      ---      ---       #688
      00FFCA3BH   LINE      ---      ---       #691
      00FFCA41H   LINE      ---      ---       #692
      00FFCA4BH   LINE      ---      ---       #694
      00FFCA5EH   LINE      ---      ---       #699
      00FFCA5EH   LINE      ---      ---       #725
      00FFCA5EH   LINE      ---      ---       #729
      00FFCA66H   LINE      ---      ---       #736
      WR12        REGSYM    ---      INT       dataBwEff
      WR14        REGSYM    ---      INT       dataBwIdx
      WR6         REGSYM    ---      INT       dataBwIdxDclk
      ---         BLOCKEND  CODE     ---       LVL=1
      00FFCA66H   LINE      ---      ---       #737
      00FFCA66H   LINE      CODE     ---       #737
L251 LINKER/LOCATER V4.66.93.0                                                        07/01/2025  14:01:01  PAGE 199



      00FFCA69H   BLOCK     CODE     ---       LVL=0
      00FFCA69H   LINE      ---      ---       #739
      00FFCA77H   LINE      ---      ---       #745
      WR14        REGSYM    ---      INT       dataBw
      0000B5F8H   SYMBOL    EDATA    INT       modIdx
      WR12        REGSYM    ---      INT       codingType
      0000B5FAH   SYMBOL    EDATA    BYTE      bAutoCfg
      00FFCA77H   BLOCK     CODE     NEAR LAB  LVL=1
      00FFCA77H   LINE      ---      ---       #750
      00FFCA8DH   LINE      ---      ---       #752
      00FFCA97H   LINE      ---      ---       #776
      00FFCAB0H   LINE      ---      ---       #780
      00FFCAB0H   LINE      ---      ---       #783
      00FFCAC2H   LINE      ---      ---       #789
      00FFCAC8H   LINE      ---      ---       #791
      00FFCAE6H   LINE      ---      ---       #794
      00FFCAEFH   LINE      ---      ---       #795
      00FFCAF1H   LINE      ---      ---       #799
      00FFCAF7H   LINE      ---      ---       #801
      00FFCB13H   LINE      ---      ---       #804
      00FFCB15H   LINE      ---      ---       #807
      00FFCB33H   LINE      ---      ---       #810
      00FFCB33H   LINE      ---      ---       #811
      00FFCB3FH   LINE      ---      ---       #812
      00FFCB3FH   LINE      ---      ---       #816
      00FFCB3FH   LINE      ---      ---       #819
      00FFCB3FH   LINE      ---      ---       #823
      00FFCB4EH   LINE      ---      ---       #825
      00FFCB5EH   LINE      ---      ---       #827
      00FFCB60H   LINE      ---      ---       #840
      00FFCB7DH   LINE      ---      ---       #843
      00FFCB7DH   LINE      ---      ---       #847
      00FFCB83H   LINE      ---      ---       #848
      00FFCB8DH   LINE      ---      ---       #850
      00FFCB9FH   LINE      ---      ---       #854
      00FFCBA5H   LINE      ---      ---       #858
      00FFCBBEH   LINE      ---      ---       #860
      00FFCBCCH   LINE      ---      ---       #862
      00FFCBD5H   LINE      ---      ---       #867
      00FFCBDBH   LINE      ---      ---       #868
      00FFCBE5H   LINE      ---      ---       #870
      00FFCBF8H   LINE      ---      ---       #898
      00FFCC1CH   LINE      ---      ---       #900
      00FFCC1CH   LINE      ---      ---       #903
      00FFCC28H   LINE      ---      ---       #905
      00FFCC34H   LINE      ---      ---       #907
      00FFCC40H   LINE      ---      ---       #910
      00FFCC4FH   LINE      ---      ---       #913
      00FFCC4FH   LINE      ---      ---       #916
      00FFCC78H   LINE      ---      ---       #917
      00FFCC8EH   LINE      ---      ---       #920
      00FFCCB2H   LINE      ---      ---       #921
      00FFCCCBH   LINE      ---      ---       #923
      00FFCCEFH   LINE      ---      ---       #925
      00FFCD05H   LINE      ---      ---       #926
      00FFCD13H   LINE      ---      ---       #939
      00FFCD1FH   LINE      ---      ---       #940
      00FFCD21H   LINE      ---      ---       #944
      00FFCD21H   LINE      ---      ---       #947
      00FFCD4AH   LINE      ---      ---       #948
      00FFCD60H   LINE      ---      ---       #951
      00FFCD84H   LINE      ---      ---       #952
      00FFCD9DH   LINE      ---      ---       #954
      00FFCDC1H   LINE      ---      ---       #956
L251 LINKER/LOCATER V4.66.93.0                                                        07/01/2025  14:01:01  PAGE 200


      00FFCDD7H   LINE      ---      ---       #957
      00FFCDE5H   LINE      ---      ---       #973
      00FFCDF2H   LINE      ---      ---       #974
      00FFCDF2H   LINE      ---      ---       #976
      00FFCDF2H   LINE      ---      ---       #979
      00FFCE04H   LINE      ---      ---       #985
      00FFCE1DH   LINE      ---      ---       #989
      00FFCE1DH   LINE      ---      ---       #1022
      00FFCE1DH   LINE      ---      ---       #1023
      00FFCE1DH   LINE      ---      ---       #1024
      00FFCE1DH   LINE      ---      ---       #1028
      00FFCE2AH   LINE      ---      ---       #1029
      00FFCE30H   LINE      ---      ---       #1038
      WR6         REGSYM    ---      INT       dataBwEff
      0000B5FBH   SYMBOL    EDATA    INT       dataBwIdx
      0000B5FDH   SYMBOL    EDATA    INT       dataBwIdxDclk
      ---         BLOCKEND  CODE     ---       LVL=1
      00FFCE30H   LINE      ---      ---       #1039
      00FFCE30H   LINE      CODE     ---       #1039

      00FFCEB9H   BLOCK     CODE     ---       LVL=0
      00FFCEB9H   LINE      ---      ---       #1041
      00FFCEC1H   LINE      ---      ---       #1047
      R15         REGSYM    ---      BYTE      LNAGainIndex
      R8          REGSYM    ---      BYTE      TIAGainindex
      R9          REGSYM    ---      BYTE      VGAGainindex
      R10         REGSYM    ---      CHAR      RSSIvalue
      00FFCEC1H   BLOCK     CODE     NEAR LAB  LVL=1
      00FFCEC1H   LINE      ---      ---       #1049
      00FFCEC5H   LINE      ---      ---       #1050
      00FFCECEH   LINE      ---      ---       #1061
      00FFCF0DH   LINE      ---      ---       #1065
      00FFCF13H   LINE      ---      ---       #1066
      00FFCF19H   LINE      ---      ---       #1068
      00FFCF2DH   LINE      ---      ---       #1069
      00FFCF3DH   LINE      ---      ---       #1070
      00FFCF3FH   LINE      ---      ---       #1074
      WR6         REGSYM    ---      INT       RSSIvalueTemp
      R5          REGSYM    ---      BYTE      rfkBand
      REG=1       REGSYM    ---      ---       pRssiCtrl
      ---         BLOCKEND  CODE     ---       LVL=1
      00FFCF41H   LINE      ---      ---       #1075
      00FFCF41H   LINE      CODE     ---       #1075
      00FF6352H   LINE      ---      ---       #409

      ---         MODULE    ---      ---       hal_pkt
      00FF35CFH   PUBLIC    CODE     ---       HALPKT_TxqDoneSet
      00FF2269H   PUBLIC    CODE     ---       HALPKT_RxqDoneSet
      00FF39D3H   PUBLIC    CODE     ---       HALPKT_PhyStatusGet

      00FF35C6H   BLOCK     CODE     ---       LVL=0
      00FF35CFH   LINE      ---      ---       #23
      00FF35D7H   LINE      ---      ---       #31
      00FF35E3H   LINE      ---      ---       #34
      00FF35EDH   LINE      ---      ---       #35
      00FF35F1H   LINE      ---      ---       #38
      00FF35F9H   LINE      ---      ---       #40
      00FF3602H   LINE      ---      ---       #41
      00FF3605H   LINE      ---      ---       #42
      00FF3605H   LINE      ---      ---       #44
      00FF3609H   LINE      ---      ---       #47
      00FF360EH   LINE      ---      ---       #48
      00FF360EH   LINE      ---      ---       #50
      00FF3610H   LINE      ---      ---       #51
      00FF35C6H   SYMBOL    CODE     NEAR LAB  ?L?COM0005
L251 LINKER/LOCATER V4.66.93.0                                                        07/01/2025  14:01:01  PAGE 201


      R14         REGSYM    ---      BYTE      bLocalTxQueue
      R15         REGSYM    ---      BYTE      txQueueId
      R10         REGSYM    ---      BYTE      txPktId
      WR4         REGSYM    ---      INT       txProcess
      ---         BLOCKEND  ---      ---       LVL=0

      00FF2263H   BLOCK     CODE     ---       LVL=0
      00FF2269H   LINE      ---      ---       #53
      00FF226DH   LINE      ---      ---       #59
      00FF2279H   LINE      ---      ---       #62
      00FF2287H   LINE      ---      ---       #63
      00FF228AH   LINE      ---      ---       #66
      00FF2296H   LINE      ---      ---       #68
      00FF2296H   LINE      ---      ---       #69
      00FF2298H   LINE      ---      ---       #70
      00FF229AH   LINE      ---      ---       #72
      00FF229AH   LINE      ---      ---       #73
      00FF22A4H   LINE      ---      ---       #74
      00FF22A6H   LINE      ---      ---       #76
      00FF22A8H   LINE      ---      ---       #77
      00FF22AAH   LINE      ---      ---       #79
      00FF22AAH   LINE      ---      ---       #80
      00FF22B3H   LINE      ---      ---       #81
      00FF22B5H   LINE      ---      ---       #83
      00FF22B5H   LINE      ---      ---       #84
      00FF22B7H   LINE      ---      ---       #85
      00FF22B7H   LINE      ---      ---       #87
      00FF22B9H   LINE      ---      ---       #88
      00FF2263H   SYMBOL    CODE     NEAR LAB  ?L?COM0015
      R10         REGSYM    ---      BYTE      bLocalRxQueue
      WR4         REGSYM    ---      INT       rxProcess
      ---         BLOCKEND  ---      ---       LVL=0

      00FF39CEH   BLOCK     CODE     ---       LVL=0
      00FF39D3H   LINE      ---      ---       #91
      00FF39D9H   LINE      ---      ---       #95
      00FF39CEH   SYMBOL    CODE     NEAR LAB  ?L?COM003D
      R1          REGSYM    ---      BYTE      bLocalRxQueue
      REG=1       REGSYM    ---      ---       pRxPhyStatus
      00FF39D9H   BLOCK     CODE     NEAR LAB  LVL=1
      00FF39D9H   LINE      ---      ---       #100
      00FF39E6H   LINE      ---      ---       #101
      00FF39EAH   LINE      ---      ---       #103
      00FF39EEH   LINE      ---      ---       #104
      00FF39F8H   LINE      ---      ---       #106
      00FF3A00H   LINE      ---      ---       #112
      WR4         REGSYM    ---      WORD      rxPktLength
      R15         REGSYM    ---      BYTE      retValue
      WR4         REGSYM    ---      WORD      offset
      ---         BLOCKEND  CODE     ---       LVL=1
      00FF3A02H   LINE      ---      ---       #113
      00FF3A02H   LINE      CODE     ---       #113

      ---         MODULE    ---      ---       hal_rf
      00FFCF44H   PUBLIC    CODE     ---       HALRF_AgcSet
      00FFBE98H   PUBLIC    CODE     ---       HALRF_TxPwrSet
      00FFCF57H   PUBLIC    CODE     ---       HALRF_TxPwrCompChUpdat
      00FF5617H   PUBLIC    CODE     ---       HALRF_TxPwrCompSet
      00FF56AAH   PUBLIC    CODE     ---       HALRF_TxPwrChCompSet
      00FFCFA9H   PUBLIC    CODE     ---       HALRF_TxPwrChSegSet
      00FFBEE2H   PUBLIC    CODE     ---       HALRF_TxPwrRptGet
      00FFCFC9H   PUBLIC    CODE     ---       HALRF_TemperatureRptGet
      00FF3FC7H   PUBLIC    CODE     ---       HALRF_VoltageRptGet
      00FFCFE0H   PUBLIC    CODE     ---       HALRF_RssiOffsetSet
      00FF6642H   PUBLIC    CODE     ---       HALRF_AllPathDisable
L251 LINKER/LOCATER V4.66.93.0                                                        07/01/2025  14:01:01  PAGE 202


      00FF563AH   PUBLIC    CODE     ---       HALRF_TxPwrCompUpdate
      0000B69EH   PUBLIC    EDATA    ---       txPwrCtrlArray

      00FFCF44H   BLOCK     CODE     ---       LVL=0
      00FFCF44H   LINE      ---      ---       #32
      00FFCF44H   LINE      ---      ---       #40
      00FFCF48H   LINE      ---      ---       #41
      00FFCF4CH   LINE      ---      ---       #42
      00FFCF50H   LINE      ---      ---       #43
      00FFCF54H   LINE      ---      ---       #46
      WR6         REGSYM    ---      INT       type
      R3          REGSYM    ---      BYTE      lnaGain
      R5          REGSYM    ---      BYTE      tiaGain
      R4          REGSYM    ---      BYTE      vgaGain
      ---         BLOCKEND  ---      ---       LVL=0

      00FFBE98H   BLOCK     CODE     ---       LVL=0
      00FFBE98H   LINE      ---      ---       #50
      00FFBEA2H   LINE      ---      ---       #56
      WR30        REGSYM    ---      INT       rfkBand
      WR8         REGSYM    ---      INT       modem
      R15         REGSYM    ---      BYTE      gainTab
      R10         REGSYM    ---      BYTE      offset
      00FFBEA2H   BLOCK     CODE     NEAR LAB  LVL=1
      00FFBEA2H   LINE      ---      ---       #58
      00FFBEB0H   LINE      ---      ---       #67
      00FFBEB8H   LINE      ---      ---       #69
      00FFBEBCH   LINE      ---      ---       #70
      00FFBEC0H   LINE      ---      ---       #76
      00FFBED4H   LINE      ---      ---       #78
      00FFBED6H   LINE      ---      ---       #79
      REG=14      REGSYM    ---      ---       pTxPwrCtrl
      ---         BLOCKEND  CODE     ---       LVL=1
      ---         BLOCKEND  CODE     ---       LVL=0

      00FFCF57H   BLOCK     CODE     ---       LVL=0
      00FFCF57H   LINE      ---      ---       #84
      00FFCF59H   LINE      ---      ---       #87
      DR28        REGSYM    ---      DWORD     freq
      00FFCF59H   BLOCK     CODE     NEAR LAB  LVL=1
      00FFCF59H   LINE      ---      ---       #91
      00FFCF5BH   LINE      ---      ---       #93
      00FFCF5BH   LINE      ---      ---       #95
      00FFCF67H   LINE      ---      ---       #96
      00FFCF71H   LINE      ---      ---       #98
      00FFCF79H   LINE      ---      ---       #100
      00FFCF7BH   LINE      ---      ---       #102
      00FFCF92H   LINE      ---      ---       #103
      00FFCF92H   LINE      ---      ---       #104
      00FFCF99H   LINE      ---      ---       #106
      00FFCFA1H   LINE      ---      ---       #107
      00FFCFA3H   LINE      ---      ---       #108
      REG=6       REGSYM    ---      ---       pChSeg
      R6          REGSYM    ---      BYTE      segIdx
      R7          REGSYM    ---      BYTE      updateIdx
      ---         BLOCKEND  CODE     ---       LVL=1
      00FFCFA8H   LINE      ---      ---       #110
      00FFCFA8H   LINE      CODE     ---       #110

      00FF563AH   BLOCK     CODE     ---       LVL=0
      00FF563AH   LINE      ---      ---       #112
      00FF563CH   LINE      ---      ---       #115
      R6          REGSYM    ---      BYTE      modemType
      00FF563CH   BLOCK     CODE     NEAR LAB  LVL=1
      00FF563CH   LINE      ---      ---       #120
L251 LINKER/LOCATER V4.66.93.0                                                        07/01/2025  14:01:01  PAGE 203


      00FF5645H   LINE      ---      ---       #123
      00FF5647H   LINE      ---      ---       #125
      00FF564DH   LINE      ---      ---       #126
      00FF5653H   LINE      ---      ---       #127
      00FF565FH   LINE      ---      ---       #128
      00FF5665H   LINE      ---      ---       #129
      00FF566BH   LINE      ---      ---       #130
      00FF5671H   LINE      ---      ---       #131
      00FF5675H   LINE      ---      ---       #132
      00FF567DH   LINE      ---      ---       #133
      R10         REGSYM    ---      BYTE      segIdx
      WR4         REGSYM    ---      INT       tempValue
      REG=3       REGSYM    ---      ---       pTxPwrCtrl
      ---         BLOCKEND  CODE     ---       LVL=1
      00FF5684H   LINE      ---      ---       #135
      00FF5684H   LINE      CODE     ---       #135

      00FF5617H   BLOCK     CODE     ---       LVL=0
      00FF5617H   LINE      ---      ---       #137
      00FF5619H   LINE      ---      ---       #143
      R1          REGSYM    ---      CHAR      txPwrOffset
      R2          REGSYM    ---      BYTE      txPolyGain
      R3          REGSYM    ---      BYTE      txPaPwPre
      R10         REGSYM    ---      BYTE      modemType
      00FF5619H   BLOCK     CODE     NEAR LAB  LVL=1
      00FF5619H   LINE      ---      ---       #146
      00FF5622H   LINE      ---      ---       #149
      00FF562AH   LINE      ---      ---       #150
      00FF562EH   LINE      ---      ---       #151
      00FF5632H   LINE      ---      ---       #152
      00FF5636H   LINE      ---      ---       #153
      REG=4       REGSYM    ---      ---       pTxPwrCtrl
      ---         BLOCKEND  CODE     ---       LVL=1
      ---         BLOCKEND  CODE     ---       LVL=0

      00FF56AAH   BLOCK     CODE     ---       LVL=0
      00FF56AAH   LINE      ---      ---       #157
      00FF56B0H   LINE      ---      ---       #161
      REG=2       REGSYM    ---      ---       pTxPwrOffset
      R15         REGSYM    ---      BYTE      modemType
      00FF56B0H   BLOCK     CODE     NEAR LAB  LVL=1
      00FF56B0H   LINE      ---      ---       #164
      00FF56B9H   LINE      ---      ---       #167
      00FF56C1H   LINE      ---      ---       #168
      00FF56CCH   LINE      ---      ---       #169
      REG=3       REGSYM    ---      ---       pTxPwrCtrl
      ---         BLOCKEND  CODE     ---       LVL=1
      00FF56D0H   LINE      ---      ---       #171
      00FF56D0H   LINE      CODE     ---       #171

      00FFCFA9H   BLOCK     CODE     ---       LVL=0
      00FFCFA9H   LINE      ---      ---       #173
      00FFCFABH   LINE      ---      ---       #177
      REG=1       REGSYM    ---      ---       pChSeg
      R5          REGSYM    ---      BYTE      modemType
      00FFCFABH   BLOCK     CODE     NEAR LAB  LVL=1
      00FFCFABH   LINE      ---      ---       #180
      00FFCFB4H   LINE      ---      ---       #183
      00FFCFBCH   LINE      ---      ---       #184
      REG=3       REGSYM    ---      ---       pTxPwrCtrl
      ---         BLOCKEND  CODE     ---       LVL=1
      ---         BLOCKEND  CODE     ---       LVL=0

      00FFBEE2H   BLOCK     CODE     ---       LVL=0
      00FFBEE2H   LINE      ---      ---       #188
L251 LINKER/LOCATER V4.66.93.0                                                        07/01/2025  14:01:01  PAGE 204


      00FFBEE8H   LINE      ---      ---       #192
      WR30        REGSYM    ---      INT       rfkBand
      REG=4       REGSYM    ---      ---       pTxPwrRpt
      00FFBEE8H   BLOCK     CODE     NEAR LAB  LVL=1
      00FFBEE8H   LINE      ---      ---       #198
      00FFBEEEH   LINE      ---      ---       #199
      00FFBEFCH   LINE      ---      ---       #201
      00FFBF02H   LINE      ---      ---       #202
      00FFBF08H   LINE      ---      ---       #204
      00FFBF0CH   LINE      ---      ---       #207
      00FFBF10H   LINE      ---      ---       #211
      00FFBF12H   LINE      ---      ---       #213
      00FFBF20H   LINE      ---      ---       #214
      00FFBF25H   LINE      ---      ---       #215
      00FFBF27H   LINE      ---      ---       #216
      00FFBF2CH   LINE      ---      ---       #217
      00FFBF2FH   LINE      ---      ---       #218
      00FFBF36H   LINE      ---      ---       #219
      00FFBF3DH   LINE      ---      ---       #220
      00FFBF3FH   LINE      ---      ---       #223
      WR0         REGSYM    ---      INT       modem
      R10         REGSYM    ---      BYTE      segIdx
      R15         REGSYM    ---      CHAR      txPwrIdx
      R7          REGSYM    ---      CHAR      tempVal
      REG=14      REGSYM    ---      ---       pTxPwrCtrl
      ---         BLOCKEND  CODE     ---       LVL=1
      00FFBF4AH   LINE      ---      ---       #224
      00FFBF4AH   LINE      CODE     ---       #224

      00FFCFE0H   BLOCK     CODE     ---       LVL=0
      00FFCFE0H   LINE      ---      ---       #228
      00FFCFE2H   LINE      ---      ---       #232
      WR6         REGSYM    ---      INT       rfkBand
      R10         REGSYM    ---      BYTE      offset
      00FFCFE2H   BLOCK     CODE     NEAR LAB  LVL=1
      00FFCFE2H   LINE      ---      ---       #234
      00FFCFEAH   LINE      ---      ---       #236
      00FFCFF2H   LINE      ---      ---       #237
      REG=4       REGSYM    ---      ---       pRssiCtrl
      ---         BLOCKEND  CODE     ---       LVL=1
      00FFCFF6H   LINE      ---      ---       #238
      00FFCFF6H   LINE      CODE     ---       #238

      00FFCFC9H   BLOCK     CODE     ---       LVL=0
      00FFCFC9H   LINE      ---      ---       #240
      00FFCFCDH   LINE      ---      ---       #245
      00FFCFD8H   LINE      ---      ---       #246
      00FFCFDFH   LINE      ---      ---       #247
      REG=4       REGSYM    ---      ---       pTimeStamp
      REG=5       REGSYM    ---      ---       pValue
      ---         BLOCKEND  ---      ---       LVL=0

      00FF3FC7H   BLOCK     CODE     ---       LVL=0
      00FF3FC7H   LINE      ---      ---       #249
      00FF3FCBH   LINE      ---      ---       #254
      00FF3FD6H   LINE      ---      ---       #255
      00FF3FDDH   LINE      ---      ---       #256
      REG=4       REGSYM    ---      ---       pTimeStamp
      REG=5       REGSYM    ---      ---       pValue
      ---         BLOCKEND  ---      ---       LVL=0

      00FF6642H   BLOCK     CODE     ---       LVL=0
      00FF6642H   LINE      ---      ---       #259
      00FF6642H   LINE      ---      ---       #261
      00FF664EH   LINE      ---      ---       #263
L251 LINKER/LOCATER V4.66.93.0                                                        07/01/2025  14:01:01  PAGE 205


      00FF6653H   LINE      ---      ---       #264
      00FF6658H   LINE      ---      ---       #265
      00FF665DH   LINE      ---      ---       #267
      00FF6669H   LINE      ---      ---       #268
      00FF666EH   LINE      ---      ---       #269
      00FF6673H   LINE      ---      ---       #275
      ---         BLOCKEND  ---      ---       LVL=0

      ---         MODULE    ---      ---       hal_rfdb

      ---         MODULE    ---      ---       hal_sec
      00FF4F5DH   PUBLIC    CODE     ---       HALSEC_AesKeySet
      00FFCFF7H   PUBLIC    CODE     ---       HALSEC_AesKeyOnlySet
      00FFD01AH   PUBLIC    CODE     ---       HALSEC_NonceOnlySet
      00FFD027H   PUBLIC    CODE     ---       HALSEC_AesLevelOnlySet
      00FF87DBH   PUBLIC    CODE     ---       HALSEC_AesSet
      00FFD051H   PUBLIC    CODE     ---       HALSEC_AesTxSet
      0000B650H   PUBLIC    EDATA    BYTE      ?HALSEC_AesSet?BYTE

      00FF4F5DH   BLOCK     CODE     ---       LVL=0
      00FF4F5DH   LINE      ---      ---       #23
      00FF4F64H   LINE      ---      ---       #35
      00FF4F77H   LINE      ---      ---       #39
      00FF4F84H   LINE      ---      ---       #40
      WR2         REGSYM    ---      INT       aesKeyType
      REG=0       REGSYM    ---      ---       pAesKey
      REG=7       REGSYM    ---      ---       pNonce
      ---         BLOCKEND  ---      ---       LVL=0

      00FFCFF7H   BLOCK     CODE     ---       LVL=0
      00FFCFF7H   LINE      ---      ---       #42
      00FFCFFAH   LINE      ---      ---       #53
      WR2         REGSYM    ---      INT       aesKeyType
      REG=0       REGSYM    ---      ---       pAesKey
      ---         BLOCKEND  ---      ---       LVL=0

      00FFD00DH   BLOCK     CODE     ---       LVL=0
      00FFD01AH   LINE      ---      ---       #57
      00FFD01CH   LINE      ---      ---       #63
      00FFD00DH   SYMBOL    CODE     NEAR LAB  ?L?COM0036
      REG=2       REGSYM    ---      ---       pNonce
      ---         BLOCKEND  ---      ---       LVL=0

      00FFD027H   BLOCK     CODE     ---       LVL=0
      00FFD027H   LINE      ---      ---       #66
      00FFD029H   LINE      ---      ---       #74
      00FFD045H   LINE      ---      ---       #77
      WR6         REGSYM    ---      INT       aesLevel
      R10         REGSYM    ---      BYTE      bLoopback
      ---         BLOCKEND  ---      ---       LVL=0

      00FF87DBH   BLOCK     CODE     ---       LVL=0
      00FF87DBH   LINE      ---      ---       #80
      00FF87DFH   LINE      ---      ---       #93
      00FF87FDH   LINE      ---      ---       #96
      00FF8812H   LINE      ---      ---       #100
      00FF881DH   LINE      ---      ---       #104
      00FF8828H   LINE      ---      ---       #107
      00FF8835H   LINE      ---      ---       #108
      00FF8842H   LINE      ---      ---       #111
      00FF8852H   LINE      ---      ---       #112
      WR6         REGSYM    ---      INT       aesLevel
      WR8         REGSYM    ---      INT       aesMode
      R10         REGSYM    ---      BYTE      bLoopback
      WR2         REGSYM    ---      WORD      aDataLength
L251 LINKER/LOCATER V4.66.93.0                                                        07/01/2025  14:01:01  PAGE 206


      WR0         REGSYM    ---      WORD      mDataLength
      0000B659H   SYMBOL    EDATA    WORD      bypassLen0
      0000B65BH   SYMBOL    EDATA    WORD      bypassLen1
      ---         BLOCKEND  ---      ---       LVL=0

      00FFD051H   BLOCK     CODE     ---       LVL=0
      00FFD051H   LINE      ---      ---       #114
      00FFD055H   LINE      ---      ---       #121
      00FFD060H   LINE      ---      ---       #125
      00FFD06BH   LINE      ---      ---       #126
      WR0         REGSYM    ---      WORD      aDataLength
      WR2         REGSYM    ---      WORD      mDataLength
      ---         BLOCKEND  ---      ---       LVL=0

      ---         MODULE    ---      ---       hal_rfk
      00FF42FFH   PUBLIC    CODE     ---       HALRFK_Calibration
      00FFD06CH   PUBLIC    CODE     ---       HALRFK_kValueSet?_
      00FFBF4DH   PUBLIC    CODE     ---       HALRFK_kValueSet2Hw
      00FFD0C5H   PUBLIC    CODE     ---       HALRFK_kValueGet?_

      00FF42FFH   BLOCK     CODE     ---       LVL=0
      00FF42FFH   LINE      ---      ---       #40
      00FF4301H   LINE      ---      ---       #41
      00FF4301H   BLOCK     CODE     NEAR LAB  LVL=1
      00FF4301H   LINE      ---      ---       #42
      00FF4307H   LINE      ---      ---       #43
      00FF430DH   LINE      ---      ---       #44
      00FF4319H   LINE      ---      ---       #51
      00FF431DH   LINE      ---      ---       #55
      00FF4321H   LINE      ---      ---       #56
      00FF4321H   LINE      ---      ---       #68
      00FF4324H   LINE      ---      ---       #71
      00FF432BH   LINE      ---      ---       #76
      00FF4330H   LINE      ---      ---       #103
      00FF4332H   LINE      ---      ---       #105
      00FF4336H   LINE      ---      ---       #106
      00FF4338H   LINE      ---      ---       #107
      00FF433EH   LINE      ---      ---       #108
      00FF4340H   LINE      ---      ---       #109
      00FF4342H   LINE      ---      ---       #110
      00FF434AH   LINE      ---      ---       #115
      00FF434FH   LINE      ---      ---       #125
      00FF4354H   LINE      ---      ---       #143
      00FF4356H   LINE      ---      ---       #145
      00FF435AH   LINE      ---      ---       #146
      00FF435CH   LINE      ---      ---       #147
      00FF4365H   LINE      ---      ---       #148
      00FF4367H   LINE      ---      ---       #149
      00FF4369H   LINE      ---      ---       #150
      00FF4371H   LINE      ---      ---       #155
      00FF4377H   LINE      ---      ---       #157
      00FF437BH   LINE      ---      ---       #158
      00FF437DH   LINE      ---      ---       #159
      00FF4386H   LINE      ---      ---       #160
      00FF4388H   LINE      ---      ---       #161
      00FF438AH   LINE      ---      ---       #162
      00FF4392H   LINE      ---      ---       #167
      00FF4397H   LINE      ---      ---       #174
      WR14        REGSYM    ---      INT       rfBand
      WR6         REGSYM    ---      INT       rfkBand
      REG=6       REGSYM    ---      ---       pRfkCtrl
      0000B3AEH   SYMBOL    EDATA    ---       sHalrfkParaBackup
      ---         BLOCKEND  CODE     ---       LVL=1
      00FF439EH   LINE      ---      ---       #187
      00FF439EH   LINE      CODE     ---       #187
L251 LINKER/LOCATER V4.66.93.0                                                        07/01/2025  14:01:01  PAGE 207



      00FFD06CH   BLOCK     CODE     ---       LVL=0
      00FFD06CH   LINE      ---      ---       #218
      00FFD072H   LINE      ---      ---       #226
      WR0         REGSYM    ---      INT       rfkBand
      R11         REGSYM    ---      BYTE      status
      R10         REGSYM    ---      BYTE      rxFilt
      REG=1       REGSYM    ---      ---       pTxLo
      FFFFFFFDH   STKSYM    ---      ---       pTxSb
      00FFD072H   BLOCK     CODE     NEAR LAB  LVL=1
      00FFD072H   LINE      ---      ---       #227
      00FFD07EH   LINE      ---      ---       #231
      00FFD081H   LINE      ---      ---       #232
      00FFD085H   LINE      ---      ---       #239
      00FFD085H   LINE      ---      ---       #241
      00FFD08CH   LINE      ---      ---       #242
      00FFD094H   LINE      ---      ---       #243
      00FFD09FH   LINE      ---      ---       #244
      00FFD0ABH   LINE      ---      ---       #245
      00FFD0B7H   LINE      ---      ---       #248
      00FFD0C1H   LINE      ---      ---       #249
      REG=4       REGSYM    ---      ---       pRfkCtrl
      ---         BLOCKEND  CODE     ---       LVL=1
      00FFD0C4H   LINE      ---      ---       #250
      00FFD0C4H   LINE      CODE     ---       #250

      00FFBF4DH   BLOCK     CODE     ---       LVL=0
      00FFBF4DH   LINE      ---      ---       #253
      00FFBF4DH   LINE      ---      ---       #254
      00FFBF4DH   BLOCK     CODE     NEAR LAB  LVL=1
      00FFBF4DH   LINE      ---      ---       #255
      00FFBF5AH   LINE      ---      ---       #258
      00FFBF62H   LINE      ---      ---       #263
      00FFBF66H   LINE      ---      ---       #265
      00FFBF68H   LINE      ---      ---       #271
      00FFBF73H   LINE      ---      ---       #273
      00FFBF73H   LINE      ---      ---       #292
      00FFBF78H   LINE      ---      ---       #294
      00FFBF83H   LINE      ---      ---       #295
      00FFBF87H   LINE      ---      ---       #296
      00FFBF89H   LINE      ---      ---       #299
      00FFBF91H   LINE      ---      ---       #300
      00FFBF98H   LINE      ---      ---       #301
      00FFBF98H   LINE      ---      ---       #303
      00FFBF9DH   LINE      ---      ---       #305
      00FFBFA8H   LINE      ---      ---       #306
      00FFBFB3H   LINE      ---      ---       #307
      00FFBFBEH   LINE      ---      ---       #308
      00FFBFBFH   LINE      ---      ---       #311
      00FFBFC8H   LINE      ---      ---       #312
      00FFBFD0H   LINE      ---      ---       #313
      00FFBFD9H   LINE      ---      ---       #314
      00FFBFD9H   LINE      ---      ---       #319
      REG=3       REGSYM    ---      ---       pRfkCtrl
      ---         BLOCKEND  CODE     ---       LVL=1
      00FFBFD9H   LINE      ---      ---       #321
      00FFBFD9H   LINE      CODE     ---       #321

      00FFD0C5H   BLOCK     CODE     ---       LVL=0
      00FFD0C5H   LINE      ---      ---       #324
      00FFD0CDH   LINE      ---      ---       #331
      REG=5       REGSYM    ---      ---       pStatus
      REG=0       REGSYM    ---      ---       pRxFilt
      REG=1       REGSYM    ---      ---       pRxTiaDc
      REG=7       REGSYM    ---      ---       pTxLo
L251 LINKER/LOCATER V4.66.93.0                                                        07/01/2025  14:01:01  PAGE 208


      FFFFFFF9H   STKSYM    ---      ---       pTxSb
      00FFD0CDH   BLOCK     CODE     NEAR LAB  LVL=1
      00FFD0CDH   LINE      ---      ---       #332
      00FFD0DAH   LINE      ---      ---       #334
      00FFD0E0H   LINE      ---      ---       #335
      00FFD0E7H   LINE      ---      ---       #336
      00FFD0F6H   LINE      ---      ---       #337
      00FFD105H   LINE      ---      ---       #338
      REG=6       REGSYM    ---      ---       pRfkCtrl
      ---         BLOCKEND  CODE     ---       LVL=1
      00FFD116H   LINE      ---      ---       #339
      00FFD116H   LINE      CODE     ---       #339

      ---         MODULE    ---      ---       hal_io
      00FFD119H   PUBLIC    CODE     ---       HALIO_dioSet
      00000080H   SFRSYM    DATA     BYTE      P0

      00FFD119H   BLOCK     CODE     ---       LVL=0
      00FFD119H   LINE      ---      ---       #24
      00FFD119H   LINE      ---      ---       #33
      00FFD137H   LINE      ---      ---       #34
      00FFD142H   LINE      ---      ---       #53
      00FFD145H   LINE      ---      ---       #54
      ---         BLOCKEND  ---      ---       LVL=0

      ---         MODULE    ---      ---       hal_init
      00FFC2CBH   PUBLIC    CODE     ---       HAL_ParaInit
      00FFD146H   PUBLIC    CODE     ---       HAL_ColdInit
      00FFC245H   PUBLIC    CODE     ---       HAL_DftParaGet
      0000AF07H   PUBLIC    EDATA    ---       pHalFwCfg
      0000AF0BH   PUBLIC    EDATA    ---       pHalRegPatch
      0000AF0FH   PUBLIC    EDATA    ---       pHalHwCfg
      0000AF13H   PUBLIC    EDATA    ---       pHalMdmDefaultCfg
      0000AF17H   PUBLIC    EDATA    ---       pHalRfDefaultCfg2G
      0000AF1BH   PUBLIC    EDATA    ---       pHalRfDefaultCfgSubG
      0000AF1FH   PUBLIC    EDATA    ---       pHalPmuDefaultCfg2G
      0000AF23H   PUBLIC    EDATA    ---       pHalPmuDefaultCfgSubG
      0000AF27H   PUBLIC    EDATA    ---       pHalBmuMemSizeHwRxq
      0000AF2BH   PUBLIC    EDATA    ---       pHalBmuMemSizeHwSwRxq
      0000AF2FH   PUBLIC    EDATA    ---       pHalHwPara
      0000AF33H   PUBLIC    EDATA    ---       pHalHwTab
      0000AF37H   PUBLIC    EDATA    ---       sHalCtrl
      0000B065H   PUBLIC    EDATA    ---       sHalPktCfg
      0000B094H   PUBLIC    EDATA    ---       pHalPktCfg
      0000B096H   PUBLIC    EDATA    ---       sHalFuncHdlr
      0000B0DAH   PUBLIC    EDATA    ---       pHalPrtclCfg
      00FF128CH   PUBLIC    HCONST   ---       sHalParaIndDefault

      00FFC245H   BLOCK     CODE     ---       LVL=0
      00FFC245H   LINE      ---      ---       #263
      00FFC247H   LINE      ---      ---       #266
      WR2         REGSYM    ---      INT       halType
      00FFC247H   BLOCK     CODE     NEAR LAB  LVL=1
      00FFC247H   LINE      ---      ---       #274
      00FFC24FH   LINE      ---      ---       #276
      REG=1       REGSYM    ---      ---       pHalParaInd
      ---         BLOCKEND  CODE     ---       LVL=1
      00FFC265H   LINE      ---      ---       #277
      00FFC265H   LINE      CODE     ---       #277

      00FFC2CBH   BLOCK     CODE     ---       LVL=0
      00FFC2CBH   LINE      ---      ---       #279
      00FFC2CBH   LINE      ---      ---       #296
      00FFC2D9H   LINE      ---      ---       #297
      00FFC2E7H   LINE      ---      ---       #306
L251 LINKER/LOCATER V4.66.93.0                                                        07/01/2025  14:01:01  PAGE 209


      00FFC2F9H   LINE      ---      ---       #317
      00FFC30BH   LINE      ---      ---       #334
      00FFC31DH   LINE      ---      ---       #337
      00FFC32FH   LINE      ---      ---       #356
      00FFC341H   LINE      ---      ---       #359
      00FFC353H   LINE      ---      ---       #373
      00FFC365H   LINE      ---      ---       #374
      00FFC377H   LINE      ---      ---       #383
      00FFC389H   LINE      ---      ---       #391
      00FFC39BH   LINE      ---      ---       #399
      00FFC3ADH   LINE      ---      ---       #407
      00FFC3B3H   LINE      ---      ---       #410
      ---         BLOCKEND  ---      ---       LVL=0

      00FFD146H   BLOCK     CODE     ---       LVL=0
      00FFD146H   LINE      ---      ---       #412
      00FFD146H   LINE      ---      ---       #420
      00FFD14CH   LINE      ---      ---       #421
      00FFD150H   LINE      ---      ---       #422
      00FFD166H   LINE      ---      ---       #423
      ---         BLOCKEND  ---      ---       LVL=0

      ---         MODULE    ---      ---       hal_patch

      ---         MODULE    ---      ---       hal_prtcl
      00FF133EH   PUBLIC    HCONST   ---       sHalPrtclCfg

      ---         MODULE    ---      ---       hal_rt569mp_init
      00FFBB74H   PUBLIC    CODE     ---       HAL_HwInit

      00FFBB74H   BLOCK     CODE     ---       LVL=0
      00FFBB74H   LINE      ---      ---       #27
      00FFBB82H   LINE      ---      ---       #34
      00FFBB86H   LINE      ---      ---       #35
      00FFBB8AH   LINE      ---      ---       #36
      00FFBB8EH   LINE      ---      ---       #145
      00FFBB9DH   LINE      ---      ---       #148
      00FFBBADH   LINE      ---      ---       #151
      00FFBBADH   LINE      ---      ---       #152
      00FFBBBCH   LINE      ---      ---       #153
      00FFBBCBH   LINE      ---      ---       #154
      00FFBBD7H   LINE      ---      ---       #158
      00FFBBDBH   LINE      ---      ---       #159
      00FFBBE6H   LINE      ---      ---       #162
      00FFBBEFH   LINE      ---      ---       #164
      00FFBBF1H   LINE      ---      ---       #168
      00FFBBF1H   LINE      ---      ---       #169
      00FFBC00H   LINE      ---      ---       #170
      00FFBC0FH   LINE      ---      ---       #171
      00FFBC1BH   LINE      ---      ---       #174
      00FFBC27H   LINE      ---      ---       #175
      00FFBC33H   LINE      ---      ---       #176
      00FFBC38H   LINE      ---      ---       #177
      00FFBC44H   LINE      ---      ---       #178
      00FFBC4DH   LINE      ---      ---       #179
      00FFBC59H   LINE      ---      ---       #180
      00FFBC65H   LINE      ---      ---       #182
      00FFBC7CH   LINE      ---      ---       #191
      00FFBC88H   LINE      ---      ---       #192
      00FFBC96H   LINE      ---      ---       #193
      00FFBC9BH   LINE      ---      ---       #194
      00FFBCA7H   LINE      ---      ---       #196
      00FFBCAFH   LINE      ---      ---       #198
      00FFBCB8H   LINE      ---      ---       #199
      00FFBCC4H   LINE      ---      ---       #200
L251 LINKER/LOCATER V4.66.93.0                                                        07/01/2025  14:01:01  PAGE 210


      00FFBCD0H   LINE      ---      ---       #203
      00FFBCDCH   LINE      ---      ---       #204
      00FFBCEAH   LINE      ---      ---       #205
      00FFBCF6H   LINE      ---      ---       #206
      00FFBD04H   LINE      ---      ---       #210
      00FFBD12H   LINE      ---      ---       #211
      00FFBD1EH   LINE      ---      ---       #212
      00FFBD2AH   LINE      ---      ---       #213
      00FFBD31H   LINE      ---      ---       #241
      00FFBD39H   LINE      ---      ---       #243
      00FFBD39H   LINE      ---      ---       #244
      00FFBD45H   LINE      ---      ---       #245
      00FFBD53H   LINE      ---      ---       #246
      00FFBD53H   LINE      ---      ---       #247
      00FFBD53H   LINE      ---      ---       #249
      00FFBD53H   LINE      ---      ---       #251
      00FFBD53H   LINE      ---      ---       #254
      00FFBD59H   LINE      ---      ---       #257
      00FFBD5FH   LINE      ---      ---       #260
      00FFBD62H   LINE      ---      ---       #263
      00FFBD78H   LINE      ---      ---       #275
      00FFBD84H   LINE      ---      ---       #290
      00FFBDA2H   LINE      ---      ---       #292
      00FFBDADH   LINE      ---      ---       #295
      00FFBDAFH   LINE      ---      ---       #301
      00FFBDC0H   LINE      ---      ---       #304
      00FFBDC2H   LINE      ---      ---       #307
      00FFBDCCH   LINE      ---      ---       #318
      00FFBDD5H   LINE      ---      ---       #319
      00FFBDDDH   LINE      ---      ---       #325
      0000B65DH   SYMBOL    EDATA    INT       rfBand
      WR14        REGSYM    ---      INT       rfkBand
      WR12        REGSYM    ---      INT       modem
      0000B65FH   SYMBOL    EDATA    INT       clkMode
      ---         BLOCKEND  ---      ---       LVL=0

      ---         MODULE    ---      ---       rt569mp_mem
      00FF13FBH   PUBLIC    HCONST   ---       pMemMapSharedBuffer
      00FF13FDH   PUBLIC    HCONST   ---       pMemMapExtData
      00FF13FFH   PUBLIC    HCONST   ---       pMemMapBmuLinkTable

      ---         MODULE    ---      ---       rt569mp_reg
      00FF0006H   PUBLIC    HCONST   ---       pBmuMacIntrSts

      ---         MODULE    ---      ---       hal_rt569mp_rfk
      00FFD167H   PUBLIC    CODE     ---       HALRFK_ParaBackUp
      00FF637BH   PUBLIC    CODE     ---       HALRFK_ParaRecover
      00FF43D0H   PUBLIC    CODE     ---       HALRFK_SingleToneEnable
      00FF43A1H   PUBLIC    CODE     ---       HALRFK_SingleToneDisable
      00FF4607H   PUBLIC    CODE     ---       HALRFK_PllForLokSet
      00FFD2D8H   PUBLIC    CODE     ---       HALRFK_TxLok
      00FF4627H   PUBLIC    CODE     ---       HALRFK_PllForSideBandKSet
      00FFD35CH   PUBLIC    CODE     ---       HALRFK_TxSbk
      00FF64E0H   PUBLIC    CODE     ---       HALRFK_LbPathEnable
      00FFD42AH   PUBLIC    CODE     ---       HALRFK_LbPathDisable
      00FF428EH   PUBLIC    CODE     ---       HALRFK_LbTrxEnable
      00FF43AEH   PUBLIC    CODE     ---       HALRFK_LbTrxDisable
      00FF46A4H   PUBLIC    CODE     ---       HALRFK_PllForFiltKSet
      00FF4463H   PUBLIC    CODE     ---       HALRFK_RxFiltK
      00FFD451H   PUBLIC    CODE     ---       HALRFK_RxPathEnable
      00FFD4C1H   PUBLIC    CODE     ---       HALRFK_RxPathDisable
      00FF65C5H   PUBLIC    CODE     ---       HALRFK_RxEnable
      00FFD4ECH   PUBLIC    CODE     ---       HALRFK_RxDisable
      00FFD50AH   PUBLIC    CODE     ---       HALRFK_RingPllSet
      00FF43F9H   PUBLIC    CODE     ---       HALRFK_RssiGet
L251 LINKER/LOCATER V4.66.93.0                                                        07/01/2025  14:01:01  PAGE 211


      00FF464EH   PUBLIC    CODE     ---       HALRFK_RfGainCfg
      00FF46F8H   PUBLIC    CODE     ---       HALRFK_RfPllCfg
      00FF6419H   PUBLIC    CODE     ---       HALRFK_RfTxCfg
      00FFD263H   PUBLIC    CODE     ---       HALRFK_RxBwCfg
      0000B661H   PUBLIC    EDATA    ---       sHalRfkCtrl
      0000B676H   PUBLIC    EDATA    BYTE      ?HALRFK_RingPllSet?BYTE

      00FFD50AH   BLOCK     CODE     ---       LVL=0
      00FFD50AH   LINE      ---      ---       #211
      00FFD50CH   LINE      ---      ---       #225
      00FFD51FH   LINE      ---      ---       #226
      00FFD532H   LINE      ---      ---       #227
      00FFD546H   LINE      ---      ---       #228
      00FFD55CH   LINE      ---      ---       #229
      00FFD570H   LINE      ---      ---       #230
      00FFD582H   LINE      ---      ---       #231
      00FFD597H   LINE      ---      ---       #232
      00FFD5ADH   LINE      ---      ---       #233
      00FFD5C3H   LINE      ---      ---       #234
      00FFD5C9H   LINE      ---      ---       #235
      00FFD5DCH   LINE      ---      ---       #237
      00FFD5F9H   LINE      ---      ---       #238
      WR30        REGSYM    ---      INT       band
      R11         REGSYM    ---      BYTE      divNum
      R9          REGSYM    ---      BYTE      divNum2
      R10         REGSYM    ---      BYTE      calDiv
      R3          REGSYM    ---      BYTE      div2ClkRing
      R2          REGSYM    ---      BYTE      manuBank
      R1          REGSYM    ---      BYTE      bank1
      R0          REGSYM    ---      BYTE      iniBank
      0000B67FH   SYMBOL    EDATA    BYTE      bypRst
      0000B680H   SYMBOL    EDATA    BYTE      tuneBuff
      0000B681H   SYMBOL    EDATA    BYTE      calBuf
      ---         BLOCKEND  ---      ---       LVL=0

      00FF43EDH   BLOCK     CODE     ---       LVL=0
      00FF43F9H   LINE      ---      ---       #240
      00FF43FFH   LINE      ---      ---       #244
      00FF43EDH   SYMBOL    CODE     NEAR LAB  ?L?COM002A
      WR4         REGSYM    ---      WORD      extraDelay
      R15         REGSYM    ---      BYTE      rssiAvg
      00FF43FFH   BLOCK     CODE     NEAR LAB  LVL=1
      00FF43FFH   LINE      ---      ---       #251
      00FF440BH   LINE      ---      ---       #253
      00FF4411H   LINE      ---      ---       #255
      00FF441DH   LINE      ---      ---       #258
      00FF441FH   LINE      ---      ---       #259
      00FF4423H   LINE      ---      ---       #261
      00FF4429H   LINE      ---      ---       #262
      00FF4434H   LINE      ---      ---       #263
      00FF443CH   LINE      ---      ---       #264
      00FF4453H   LINE      ---      ---       #266
      WR12        REGSYM    ---      INT       rssiAcc
      0000B6AFH   SYMBOL    EDATA    CHAR      rssiTemp
      R14         REGSYM    ---      BYTE      idx
      ---         BLOCKEND  CODE     ---       LVL=1
      00FF4460H   LINE      ---      ---       #267
      00FF4460H   LINE      CODE     ---       #267

      00FF4647H   BLOCK     CODE     ---       LVL=0
      00FF464EH   LINE      ---      ---       #269
      00FF4654H   LINE      ---      ---       #275
      00FF4662H   LINE      ---      ---       #276
      00FF4676H   LINE      ---      ---       #277
      00FF4686H   LINE      ---      ---       #278
L251 LINKER/LOCATER V4.66.93.0                                                        07/01/2025  14:01:01  PAGE 212


      00FF468DH   LINE      ---      ---       #279
      00FF4647H   SYMBOL    CODE     NEAR LAB  ?L?COM0049
      R10         REGSYM    ---      BYTE      lnaGain
      R2          REGSYM    ---      BYTE      vgaGain
      R3          REGSYM    ---      BYTE      tiaGain
      ---         BLOCKEND  ---      ---       LVL=0

      00FF46F8H   BLOCK     CODE     ---       LVL=0
      00FF46F8H   LINE      ---      ---       #282
      00FF46FEH   LINE      ---      ---       #291
      00FF4711H   LINE      ---      ---       #292
      00FF4728H   LINE      ---      ---       #293
      00FF4733H   LINE      ---      ---       #294
      00FF4747H   LINE      ---      ---       #295
      00FF475BH   LINE      ---      ---       #296
      00FF4762H   LINE      ---      ---       #297
      R11         REGSYM    ---      BYTE      pllN
      R9          REGSYM    ---      BYTE      pllS
      WR0         REGSYM    ---      WORD      pllSDM
      R10         REGSYM    ---      BYTE      mod
      R3          REGSYM    ---      BYTE      mod46
      R2          REGSYM    ---      BYTE      selVco
      ---         BLOCKEND  ---      ---       LVL=0

      00FF6405H   BLOCK     CODE     ---       LVL=0
      00FF6419H   LINE      ---      ---       #315
      00FF6423H   LINE      ---      ---       #326
      00FF6436H   LINE      ---      ---       #327
      00FF644FH   LINE      ---      ---       #328
      00FF6466H   LINE      ---      ---       #329
      00FF647AH   LINE      ---      ---       #330
      00FF648DH   LINE      ---      ---       #331
      00FF649DH   LINE      ---      ---       #332
      00FF64B7H   LINE      ---      ---       #333
      00FF6405H   SYMBOL    CODE     NEAR LAB  ?L?COM0014
      R11         REGSYM    ---      BYTE      regGainAttRefBle
      R8          REGSYM    ---      BYTE      gainPre
      R9          REGSYM    ---      BYTE      pwPa
      R0          REGSYM    ---      BYTE      pwD2s
      R1          REGSYM    ---      BYTE      pabPreSze
      R3          REGSYM    ---      BYTE      gainPa
      R2          REGSYM    ---      BYTE      pabPwPre
      R10         REGSYM    ---      BYTE      gainPaBit2
      ---         BLOCKEND  ---      ---       LVL=0

      00FFD263H   BLOCK     CODE     ---       LVL=0
      00FFD263H   LINE      ---      ---       #342
      00FFD263H   LINE      ---      ---       #345
      00FFD26CH   LINE      ---      ---       #346
      00FFD27AH   LINE      ---      ---       #347
      00FFD281H   LINE      ---      ---       #351
      00FFD294H   LINE      ---      ---       #360
      00FFD2A7H   LINE      ---      ---       #367
      00FFD2BAH   LINE      ---      ---       #373
      00FFD2C3H   LINE      ---      ---       #376
      00FFD2CFH   LINE      ---      ---       #377
      00FFD2D7H   LINE      ---      ---       #378
      ---         BLOCKEND  ---      ---       LVL=0

      00FFD167H   BLOCK     CODE     ---       LVL=0
      00FFD167H   LINE      ---      ---       #380
      00FFD16BH   LINE      ---      ---       #392
      00FFD178H   LINE      ---      ---       #393
      00FFD186H   LINE      ---      ---       #394
      00FFD193H   LINE      ---      ---       #395
L251 LINKER/LOCATER V4.66.93.0                                                        07/01/2025  14:01:01  PAGE 213


      00FFD19EH   LINE      ---      ---       #396
      00FFD1ABH   LINE      ---      ---       #397
      00FFD1B8H   LINE      ---      ---       #398
      00FFD1C7H   LINE      ---      ---       #399
      00FFD1D2H   LINE      ---      ---       #400
      00FFD1DFH   LINE      ---      ---       #404
      00FFD1ECH   LINE      ---      ---       #405
      00FFD1F9H   LINE      ---      ---       #406
      00FFD207H   LINE      ---      ---       #407
      00FFD216H   LINE      ---      ---       #411
      00FFD220H   LINE      ---      ---       #414
      00FFD22FH   LINE      ---      ---       #415
      00FFD23AH   LINE      ---      ---       #416
      00FFD245H   LINE      ---      ---       #417
      00FFD256H   LINE      ---      ---       #420
      00FFD25EH   LINE      ---      ---       #423
      00FFD260H   LINE      ---      ---       #428
      REG=7       REGSYM    ---      ---       pPara
      ---         BLOCKEND  ---      ---       LVL=0

      00FF637BH   BLOCK     CODE     ---       LVL=0
      00FF637BH   LINE      ---      ---       #430
      00FF637FH   LINE      ---      ---       #435
      00FF6384H   LINE      ---      ---       #436
      00FF639CH   LINE      ---      ---       #442
      00FF63BEH   LINE      ---      ---       #448
      00FF63C8H   LINE      ---      ---       #451
      00FF63DBH   LINE      ---      ---       #452
      00FF63E6H   LINE      ---      ---       #453
      00FF63F1H   LINE      ---      ---       #454
      00FF6402H   LINE      ---      ---       #455
      REG=7       REGSYM    ---      ---       pPara
      ---         BLOCKEND  ---      ---       LVL=0

      00FF43CCH   BLOCK     CODE     ---       LVL=0
      00FF43D0H   LINE      ---      ---       #457
      00FF43D2H   LINE      ---      ---       #463
      00FF43D9H   LINE      ---      ---       #464
      00FF43E0H   LINE      ---      ---       #467
      00FF43ECH   LINE      ---      ---       #468
      00FF43CCH   SYMBOL    CODE     NEAR LAB  ?L?COM004E
      R11         REGSYM    ---      BYTE      stI
      R4          REGSYM    ---      BYTE      stQ
      ---         BLOCKEND  ---      ---       LVL=0

      00FF43A1H   BLOCK     CODE     ---       LVL=0
      00FF43A1H   LINE      ---      ---       #470
      00FF43A1H   LINE      ---      ---       #473
      00FF43ADH   LINE      ---      ---       #474
      ---         BLOCKEND  ---      ---       LVL=0

      00FF4607H   BLOCK     CODE     ---       LVL=0
      00FF4607H   LINE      ---      ---       #478
      00FF460CH   LINE      ---      ---       #486
      00FF460EH   LINE      ---      ---       #488
      00FF4612H   LINE      ---      ---       #497
      00FF4612H   LINE      ---      ---       #499
      00FF4624H   LINE      ---      ---       #500
      00FF4624H   LINE      ---      ---       #502
      00FF4624H   LINE      ---      ---       #503
      WR14        REGSYM    ---      INT       rfBand
      ---         BLOCKEND  ---      ---       LVL=0

      00FFD2D8H   BLOCK     CODE     ---       LVL=0
      00FFD2D8H   LINE      ---      ---       #505
L251 LINKER/LOCATER V4.66.93.0                                                        07/01/2025  14:01:01  PAGE 214


      00FFD2DCH   LINE      ---      ---       #508
      REG=7       REGSYM    ---      ---       pDcOffset
      00FFD2DCH   BLOCK     CODE     NEAR LAB  LVL=1
      00FFD2DCH   LINE      ---      ---       #527
      00FFD2E2H   LINE      ---      ---       #528
      00FFD2E7H   LINE      ---      ---       #529
      00FFD2E9H   LINE      ---      ---       #533
      00FFD2ECH   LINE      ---      ---       #537
      00FFD2F3H   LINE      ---      ---       #542
      00FFD2F9H   LINE      ---      ---       #546
      00FFD304H   LINE      ---      ---       #552
      00FFD30BH   LINE      ---      ---       #554
      00FFD315H   LINE      ---      ---       #556
      00FFD31DH   LINE      ---      ---       #557
      00FFD321H   LINE      ---      ---       #558
      00FFD325H   LINE      ---      ---       #559
      00FFD338H   LINE      ---      ---       #571
      00FFD340H   LINE      ---      ---       #574
      00FFD34BH   LINE      ---      ---       #575
      00FFD352H   LINE      ---      ---       #576
      00FFD355H   LINE      ---      ---       #577
      0000B665H   SYMBOL    EDATA    CHAR      rssiMin
      0000B666H   SYMBOL    EDATA    CHAR      rssiTemp
      0000B667H   SYMBOL    EDATA    CHAR      minI
      R13         REGSYM    ---      CHAR      minQ
      R12         REGSYM    ---      CHAR      iIdx
      0000B668H   SYMBOL    EDATA    CHAR      qIdx
      ---         BLOCKEND  CODE     ---       LVL=1
      00FFD359H   LINE      ---      ---       #578
      00FFD359H   LINE      CODE     ---       #578

      00FF4627H   BLOCK     CODE     ---       LVL=0
      00FF4627H   LINE      ---      ---       #582
      00FF462CH   LINE      ---      ---       #590
      00FF462EH   LINE      ---      ---       #592
      00FF4632H   LINE      ---      ---       #601
      00FF4632H   LINE      ---      ---       #603
      00FF4644H   LINE      ---      ---       #605
      00FF4644H   LINE      ---      ---       #606
      WR14        REGSYM    ---      INT       rfBand
      ---         BLOCKEND  ---      ---       LVL=0

      00FFD35CH   BLOCK     CODE     ---       LVL=0
      00FFD35CH   LINE      ---      ---       #608
      00FFD360H   LINE      ---      ---       #611
      REG=7       REGSYM    ---      ---       pIqc
      00FFD360H   BLOCK     CODE     NEAR LAB  LVL=1
      00FFD360H   LINE      ---      ---       #632
      00FFD366H   LINE      ---      ---       #633
      00FFD36AH   LINE      ---      ---       #634
      00FFD36FH   LINE      ---      ---       #635
      00FFD375H   LINE      ---      ---       #636
      00FFD381H   LINE      ---      ---       #640
      00FFD385H   LINE      ---      ---       #644
      00FFD393H   LINE      ---      ---       #645
      00FFD39EH   LINE      ---      ---       #646
      00FFD3A9H   LINE      ---      ---       #652
      00FFD3B6H   LINE      ---      ---       #654
      00FFD3C0H   LINE      ---      ---       #656
      00FFD3C8H   LINE      ---      ---       #657
      00FFD3D3H   LINE      ---      ---       #658
      00FFD3DBH   LINE      ---      ---       #659
      00FFD3E3H   LINE      ---      ---       #660
      00FFD3E3H   LINE      ---      ---       #663
      00FFD3EFH   LINE      ---      ---       #674
L251 LINKER/LOCATER V4.66.93.0                                                        07/01/2025  14:01:01  PAGE 215


      00FFD3F3H   LINE      ---      ---       #676
      00FFD3FEH   LINE      ---      ---       #677
      00FFD409H   LINE      ---      ---       #678
      00FFD414H   LINE      ---      ---       #679
      00FFD417H   LINE      ---      ---       #680
      00FFD41FH   LINE      ---      ---       #681
      0000B5C7H   SYMBOL    EDATA    CHAR      rssiMin
      0000B5C8H   SYMBOL    EDATA    CHAR      rssiTemp
      0000B5C9H   SYMBOL    EDATA    CHAR      minA
      0000B5CAH   SYMBOL    EDATA    CHAR      minB
      0000B5CBH   SYMBOL    EDATA    CHAR      minC
      WR12        REGSYM    ---      WORD      idx
      0000B5CCH   SYMBOL    EDATA    ---       pSbkCand
      ---         BLOCKEND  CODE     ---       LVL=1
      00FFD427H   LINE      ---      ---       #682
      00FFD427H   LINE      CODE     ---       #682

      00FF64E0H   BLOCK     CODE     ---       LVL=0
      00FF64E0H   LINE      ---      ---       #702
      00FF64E2H   LINE      ---      ---       #707
      00FF64EDH   LINE      ---      ---       #708
      00FF64F8H   LINE      ---      ---       #711
      00FF6506H   LINE      ---      ---       #712
      00FF6514H   LINE      ---      ---       #713
      00FF651EH   LINE      ---      ---       #716
      00FF652AH   LINE      ---      ---       #717
      00FF652EH   LINE      ---      ---       #718
      00FF6532H   LINE      ---      ---       #732
      00FF6532H   LINE      ---      ---       #735
      00FF653AH   LINE      ---      ---       #736
      00FF6566H   LINE      ---      ---       #738
      00FF6572H   LINE      ---      ---       #739
      00FF657EH   LINE      ---      ---       #740
      00FF658AH   LINE      ---      ---       #741
      00FF6596H   LINE      ---      ---       #742
      00FF6596H   LINE      ---      ---       #744
      00FF6596H   LINE      ---      ---       #745
      WR2         REGSYM    ---      INT       rfBand
      ---         BLOCKEND  ---      ---       LVL=0

      00FFD42AH   BLOCK     CODE     ---       LVL=0
      00FFD42AH   LINE      ---      ---       #747
      00FFD42CH   LINE      ---      ---       #752
      00FFD438H   LINE      ---      ---       #753
      00FFD43CH   LINE      ---      ---       #766
      00FFD43CH   LINE      ---      ---       #769
      00FFD444H   LINE      ---      ---       #771
      00FFD450H   LINE      ---      ---       #772
      00FFD450H   LINE      ---      ---       #774
      00FFD450H   LINE      ---      ---       #775
      WR4         REGSYM    ---      INT       rfBand
      ---         BLOCKEND  ---      ---       LVL=0

      00FF428EH   BLOCK     CODE     ---       LVL=0
      00FF428EH   LINE      ---      ---       #777
      00FF4290H   LINE      ---      ---       #778
      00FF4290H   BLOCK     CODE     NEAR LAB  LVL=1
      00FF4290H   LINE      ---      ---       #784
      00FF429CH   LINE      ---      ---       #794
      00FF42A8H   LINE      ---      ---       #795
      00FF42B2H   LINE      ---      ---       #796
      00FF42CBH   LINE      ---      ---       #797
      00FF42E0H   LINE      ---      ---       #800
      00FF42EDH   LINE      ---      ---       #801
      00FF42F2H   LINE      ---      ---       #802
L251 LINKER/LOCATER V4.66.93.0                                                        07/01/2025  14:01:01  PAGE 216


      R15         REGSYM    ---      BYTE      bandSel
      ---         BLOCKEND  CODE     ---       LVL=1
      00FF42FCH   LINE      ---      ---       #814
      00FF42FCH   LINE      CODE     ---       #814

      00FF43AEH   BLOCK     CODE     ---       LVL=0
      00FF43AEH   LINE      ---      ---       #816
      00FF43AEH   LINE      ---      ---       #819
      00FF43BAH   LINE      ---      ---       #820
      00FF43C6H   LINE      ---      ---       #821
      00FF43CBH   LINE      ---      ---       #822
      ---         BLOCKEND  ---      ---       LVL=0

      00FF46A4H   BLOCK     CODE     ---       LVL=0
      00FF46A4H   LINE      ---      ---       #854
      00FF46A9H   LINE      ---      ---       #862
      00FF46B3H   LINE      ---      ---       #864
      00FF46B7H   LINE      ---      ---       #878
      00FF46B7H   LINE      ---      ---       #880
      00FF46C9H   LINE      ---      ---       #882
      00FF46D1H   LINE      ---      ---       #883
      00FF46D9H   LINE      ---      ---       #884
      00FF46E7H   LINE      ---      ---       #885
      00FF46F5H   LINE      ---      ---       #886
      00FF46F5H   LINE      ---      ---       #888
      00FF46F5H   LINE      ---      ---       #889
      WR14        REGSYM    ---      INT       rfBand
      ---         BLOCKEND  ---      ---       LVL=0

      00FF4463H   BLOCK     CODE     ---       LVL=0
      00FF4463H   LINE      ---      ---       #891
      00FF4467H   LINE      ---      ---       #894
      REG=7       REGSYM    ---      ---       pFiltCap
      00FF4467H   BLOCK     CODE     NEAR LAB  LVL=1
      00FF4467H   LINE      ---      ---       #924
      00FF446DH   LINE      ---      ---       #925
      00FF4471H   LINE      ---      ---       #929
      00FF4477H   LINE      ---      ---       #933
      00FF4482H   LINE      ---      ---       #936
      00FF4494H   LINE      ---      ---       #942
      00FF449AH   LINE      ---      ---       #954
      00FF44AEH   LINE      ---      ---       #957
      00FF44D2H   LINE      ---      ---       #994
      00FF44D8H   LINE      ---      ---       #996
      00FF44DCH   LINE      ---      ---       #997
      00FF44E4H   LINE      ---      ---       #1013
      00FF44F6H   LINE      ---      ---       #1017
      00FF4501H   LINE      ---      ---       #1018
      0000B617H   SYMBOL    EDATA    BYTE      minCap
      0000B618H   SYMBOL    EDATA    BYTE      cIdx
      0000B619H   SYMBOL    EDATA    CHAR      rssiRef
      0000B61AH   SYMBOL    EDATA    CHAR      rssiTemp1
      WR12        REGSYM    ---      INT       minRssiDiff
      0000B61BH   SYMBOL    EDATA    INT       rssiDiff
      ---         BLOCKEND  CODE     ---       LVL=1
      00FF4504H   LINE      ---      ---       #1024
      00FF4504H   LINE      CODE     ---       #1024

      00FFD451H   BLOCK     CODE     ---       LVL=0
      00FFD451H   LINE      ---      ---       #1028
      00FFD453H   LINE      ---      ---       #1033
      00FFD45EH   LINE      ---      ---       #1034
      00FFD465H   LINE      ---      ---       #1037
      00FFD473H   LINE      ---      ---       #1038
      00FFD481H   LINE      ---      ---       #1039
L251 LINKER/LOCATER V4.66.93.0                                                        07/01/2025  14:01:01  PAGE 217


      00FFD48BH   LINE      ---      ---       #1042
      00FFD4A4H   LINE      ---      ---       #1043
      00FFD4A8H   LINE      ---      ---       #1054
      00FFD4A8H   LINE      ---      ---       #1056
      00FFD4B4H   LINE      ---      ---       #1057
      00FFD4C0H   LINE      ---      ---       #1058
      00FFD4C0H   LINE      ---      ---       #1060
      00FFD4C0H   LINE      ---      ---       #1061
      WR2         REGSYM    ---      INT       rfBand
      ---         BLOCKEND  ---      ---       LVL=0

      00FFD4C1H   BLOCK     CODE     ---       LVL=0
      00FFD4C1H   LINE      ---      ---       #1063
      00FFD4C3H   LINE      ---      ---       #1068
      00FFD4CFH   LINE      ---      ---       #1069
      00FFD4D3H   LINE      ---      ---       #1081
      00FFD4D3H   LINE      ---      ---       #1084
      00FFD4DFH   LINE      ---      ---       #1085
      00FFD4EBH   LINE      ---      ---       #1086
      00FFD4EBH   LINE      ---      ---       #1088
      00FFD4EBH   LINE      ---      ---       #1089
      WR4         REGSYM    ---      INT       rfBand
      ---         BLOCKEND  ---      ---       LVL=0

      00FF65C5H   BLOCK     CODE     ---       LVL=0
      00FF65C5H   LINE      ---      ---       #1091
      00FF65C7H   LINE      ---      ---       #1092
      00FF65C7H   BLOCK     CODE     NEAR LAB  LVL=1
      00FF65C7H   LINE      ---      ---       #1098
      00FF65D2H   LINE      ---      ---       #1108
      00FF65DEH   LINE      ---      ---       #1109
      00FF65E9H   LINE      ---      ---       #1110
      00FF6600H   LINE      ---      ---       #1111
      00FF661BH   LINE      ---      ---       #1112
      00FF662CH   LINE      ---      ---       #1113
      00FF6634H   LINE      ---      ---       #1116
      R15         REGSYM    ---      BYTE      bandSel
      ---         BLOCKEND  CODE     ---       LVL=1
      00FF663FH   LINE      ---      ---       #1128
      00FF663FH   LINE      CODE     ---       #1128

      00FFD4ECH   BLOCK     CODE     ---       LVL=0
      00FFD4ECH   LINE      ---      ---       #1130
      00FFD4ECH   LINE      ---      ---       #1133
      00FFD4F8H   LINE      ---      ---       #1134
      00FFD504H   LINE      ---      ---       #1135
      00FFD509H   LINE      ---      ---       #1136
      ---         BLOCKEND  ---      ---       LVL=0

      ---         MODULE    ---      ---       hal_rt569mp_rf
      00FF66AEH   PUBLIC    CODE     ---       HALRF_PllCfg
      00FFD5FAH   PUBLIC    CODE     ---       HALRF_Freq2gCfg
      00FFD7C4H   PUBLIC    CODE     ---       HALRF_FreqSubgCfg
      00FFD979H   PUBLIC    CODE     ---       HALRF_AgcInit
      00FFD9E4H   PUBLIC    CODE     ---       HALRF_TemperatureMeasure
      00FFD9E5H   PUBLIC    CODE     ---       HALRF_VoltageMeasure
      00FFBDE0H   PUBLIC    CODE     ---       HALRF_TxPwrSet2Hw
      00FF6105H   PUBLIC    CODE     ---       HALRF_TxPwrCompSet2Hw
      00FF4763H   PUBLIC    CODE     ---       HALRF_AgcSet2Hw
      00FFD9E6H   PUBLIC    CODE     ---       HALRF_ExtFemInit
      00FFD725H   PUBLIC    CODE     ---       HALRF_IfCheck
      00FFD6BBH   PUBLIC    CODE     ---       HALRF_Freq2gCal
      00FFBE22H   PUBLIC    CODE     ---       HALRF_TxGainTableCfg
      00FF13A3H   PUBLIC    HCONST   ---       pllFreqBandTab
      0000B661H   PUBLIC    EDATA    BYTE      ?HALRF_IfCheck?BYTE
L251 LINKER/LOCATER V4.66.93.0                                                        07/01/2025  14:01:01  PAGE 218



      00FFD725H   BLOCK     CODE     ---       LVL=0
      00FFD725H   LINE      ---      ---       #95
      00FFD729H   LINE      ---      ---       #122
      00FFD736H   LINE      ---      ---       #125
      00FFD736H   LINE      ---      ---       #126
      00FFD73BH   LINE      ---      ---       #127
      00FFD74AH   LINE      ---      ---       #128
      00FFD755H   LINE      ---      ---       #129
      00FFD774H   LINE      ---      ---       #131
      00FFD77DH   LINE      ---      ---       #135
      00FFD77EH   LINE      ---      ---       #138
      00FFD77EH   LINE      ---      ---       #139
      00FFD783H   LINE      ---      ---       #140
      00FFD792H   LINE      ---      ---       #141
      00FFD79DH   LINE      ---      ---       #142
      00FFD7BCH   LINE      ---      ---       #146
      00FFD7C0H   LINE      ---      ---       #148
      00FFD7C1H   LINE      ---      ---       #150
      00FFD7C1H   LINE      ---      ---       #151
      WR6         REGSYM    ---      INT       dataBw
      REG=2       REGSYM    ---      ---       pIfNum
      REG=15      REGSYM    ---      ---       pIfTab
      REG=4       REGSYM    ---      ---       pPllCfgRet
      0000B669H   SYMBOL    EDATA    ---       pIfIdx
      0000B66BH   SYMBOL    EDATA    ---       pIfIdxZero
      ---         BLOCKEND  ---      ---       LVL=0

      00FFD6BBH   BLOCK     CODE     ---       LVL=0
      00FFD6BBH   LINE      ---      ---       #158
      00FFD6BBH   LINE      ---      ---       #163
      WR6         REGSYM    ---      WORD      freq
      WR4         REGSYM    ---      WORD      ifVal
      REG=1       REGSYM    ---      ---       pPllCfgRet
      00FFD6BBH   BLOCK     CODE     NEAR LAB  LVL=1
      00FFD6BBH   LINE      ---      ---       #167
      00FFD6C3H   LINE      ---      ---       #179
      00FFD6CDH   LINE      ---      ---       #180
      00FFD6CFH   LINE      ---      ---       #181
      00FFD6E1H   LINE      ---      ---       #182
      00FFD6F3H   LINE      ---      ---       #183
      00FFD70AH   LINE      ---      ---       #184
      00FFD71BH   LINE      ---      ---       #185
      00FFD720H   LINE      ---      ---       #186
      DR4         REGSYM    ---      DWORD     freqTarget
      ---         BLOCKEND  CODE     ---       LVL=1
      00FFD724H   LINE      ---      ---       #187
      00FFD724H   LINE      CODE     ---       #187

      00FF66AEH   BLOCK     CODE     ---       LVL=0
      00FF66AEH   LINE      ---      ---       #193
      00FF66B0H   LINE      ---      ---       #198
      00FF66C6H   LINE      ---      ---       #199
      00FF66DEH   LINE      ---      ---       #200
      00FF66F0H   LINE      ---      ---       #201
      00FF6706H   LINE      ---      ---       #202
      00FF671CH   LINE      ---      ---       #210
      REG=1       REGSYM    ---      ---       pPllCfg
      ---         BLOCKEND  ---      ---       LVL=0

      00FFD5FAH   BLOCK     CODE     ---       LVL=0
      00FFD5FAH   LINE      ---      ---       #213
      00FFD600H   LINE      ---      ---       #218
      WR14        REGSYM    ---      WORD      freq
      WR4         REGSYM    ---      INT       dataBw
L251 LINKER/LOCATER V4.66.93.0                                                        07/01/2025  14:01:01  PAGE 219


      WR12        REGSYM    ---      INT       mode
      00FFD600H   BLOCK     CODE     NEAR LAB  LVL=1
      00FFD600H   LINE      ---      ---       #223
      00FFD608H   LINE      ---      ---       #227
      00FFD628H   LINE      ---      ---       #230
      00FFD638H   LINE      ---      ---       #234
      00FFD63BH   LINE      ---      ---       #238
      00FFD64DH   LINE      ---      ---       #240
      00FFD64DH   LINE      ---      ---       #247
      00FFD64DH   LINE      ---      ---       #253
      00FFD64DH   LINE      ---      ---       #256
      00FFD670H   LINE      ---      ---       #260
      00FFD672H   LINE      ---      ---       #262
      00FFD672H   LINE      ---      ---       #264
      00FFD675H   LINE      ---      ---       #267
      00FFD68FH   LINE      ---      ---       #271
      00FFD699H   LINE      ---      ---       #272
      00FFD6A5H   LINE      ---      ---       #273
      00FFD6B8H   LINE      ---      ---       #274
      00FFD6B8H   LINE      ---      ---       #275
      0000B5BDH   SYMBOL    EDATA    ---       pIfTab
      0000B5C1H   SYMBOL    EDATA    BYTE      ifNum
      0000B5C2H   SYMBOL    EDATA    BYTE      ifIdx
      0000B5C3H   SYMBOL    EDATA    BYTE      ifZeroIdx
      0000B5C4H   SYMBOL    EDATA    ---       pPllCfgRet
      0000B5C6H   SYMBOL    EDATA    BYTE      ifBitShift
      ---         BLOCKEND  CODE     ---       LVL=1
      00FFD6B8H   LINE      ---      ---       #276
      00FFD6B8H   LINE      CODE     ---       #276

      00FFD7C4H   BLOCK     CODE     ---       LVL=0
      00FFD7C4H   LINE      ---      ---       #280
      00FFD7C8H   LINE      ---      ---       #283
      DR12        REGSYM    ---      DWORD     freq
      00FFD7C8H   BLOCK     CODE     NEAR LAB  LVL=1
      00FFD7C8H   LINE      ---      ---       #288
      00FFD7D0H   LINE      ---      ---       #291
      00FFD7F0H   LINE      ---      ---       #294
      00FFD7FCH   LINE      ---      ---       #296
      00FFD800H   LINE      ---      ---       #299
      00FFD80DH   LINE      ---      ---       #300
      00FFD830H   LINE      ---      ---       #304
      00FFD836H   LINE      ---      ---       #305
      00FFD842H   LINE      ---      ---       #307
      00FFD850H   LINE      ---      ---       #308
      00FFD866H   LINE      ---      ---       #311
      00FFD86BH   LINE      ---      ---       #314
      00FFD88EH   LINE      ---      ---       #315
      00FFD88EH   LINE      ---      ---       #318
      00FFD89AH   LINE      ---      ---       #319
      00FFD8A8H   LINE      ---      ---       #320
      00FFD8AAH   LINE      ---      ---       #321
      00FFD8BAH   LINE      ---      ---       #324
      00FFD8BDH   LINE      ---      ---       #325
      00FFD8BDH   LINE      ---      ---       #329
      00FFD8C7H   LINE      ---      ---       #330
      00FFD8E2H   LINE      ---      ---       #332
      00FFD8FFH   LINE      ---      ---       #333
      00FFD90EH   LINE      ---      ---       #336
      00FFD916H   LINE      ---      ---       #337
      00FFD92CH   LINE      ---      ---       #338
      00FFD93EH   LINE      ---      ---       #339
      00FFD94BH   LINE      ---      ---       #342
      00FFD955H   LINE      ---      ---       #343
      00FFD961H   LINE      ---      ---       #344
L251 LINKER/LOCATER V4.66.93.0                                                        07/01/2025  14:01:01  PAGE 220


      00FFD8BDH   SYMBOL    CODE     NEAR LAB  DONE?440?hal_rt569mp_rf
      0000B43DH   SYMBOL    EDATA    ---       pIfTab
      0000B441H   SYMBOL    EDATA    BYTE      ifNum
      0000B442H   SYMBOL    EDATA    BYTE      ifIdx
      0000B443H   SYMBOL    EDATA    BYTE      ifZeroIdx
      0000B444H   SYMBOL    EDATA    BYTE      bandIdx
      0000B445H   SYMBOL    EDATA    ---       pPllCfgRet
      0000B447H   SYMBOL    EDATA    DWORD     freqTarget
      0000B44BH   SYMBOL    EDATA    DWORD     absTrxIf
      0000B44FH   SYMBOL    EDATA    BYTE      ifBitShift
      00FFD8D5H   SYMBOL    CODE     NEAR LAB  DONE?440
      ---         BLOCKEND  CODE     ---       LVL=1
      00FFD976H   LINE      ---      ---       #345
      00FFD976H   LINE      CODE     ---       #345

      00FFD979H   BLOCK     CODE     ---       LVL=0
      00FFD979H   LINE      ---      ---       #348
      00FFD97BH   LINE      ---      ---       #433
      00FFD989H   LINE      ---      ---       #435
      00FFD98DH   LINE      ---      ---       #437
      00FFD996H   LINE      ---      ---       #438
      00FFD9A4H   LINE      ---      ---       #439
      00FFD9A9H   LINE      ---      ---       #440
      00FFD9B5H   LINE      ---      ---       #441
      00FFD9BEH   LINE      ---      ---       #442
      00FFD9C5H   LINE      ---      ---       #443
      00FFD9D0H   LINE      ---      ---       #444
      00FFD9DCH   LINE      ---      ---       #445
      00FFD9E3H   LINE      ---      ---       #446
      WR4         REGSYM    ---      INT       clkMode
      ---         BLOCKEND  ---      ---       LVL=0

      00FFD9E4H   BLOCK     CODE     ---       LVL=0
      00FFD9E4H   LINE      ---      ---       #564
      00FFD9E4H   LINE      ---      ---       #567
      ---         BLOCKEND  ---      ---       LVL=0

      00FFD9E5H   BLOCK     CODE     ---       LVL=0
      00FFD9E5H   LINE      ---      ---       #569
      00FFD9E5H   LINE      ---      ---       #572
      ---         BLOCKEND  ---      ---       LVL=0

      00FFBE22H   BLOCK     CODE     ---       LVL=0
      00FFBE22H   LINE      ---      ---       #575
      00FFBE24H   LINE      ---      ---       #578
      WR4         REGSYM    ---      INT       gainTabIdx
      00FFBE24H   BLOCK     CODE     NEAR LAB  LVL=1
      00FFBE24H   LINE      ---      ---       #579
      00FFBE2AH   LINE      ---      ---       #581
      00FFBE40H   LINE      ---      ---       #584
      00FFBE40H   LINE      ---      ---       #586
      00FFBE46H   LINE      ---      ---       #588
      00FFBE4AH   LINE      ---      ---       #589
      00FFBE4AH   LINE      ---      ---       #590
      00FFBE69H   LINE      ---      ---       #594
      00FFBE6BH   LINE      ---      ---       #598
      00FFBE6BH   LINE      ---      ---       #599
      00FFBE6BH   LINE      ---      ---       #600
      00FFBE6BH   LINE      ---      ---       #601
      00FFBE6BH   LINE      ---      ---       #602
      00FFBE8BH   LINE      ---      ---       #603
      00FFBE8BH   LINE      ---      ---       #604
      00FFBE8BH   LINE      ---      ---       #606
      WR6         REGSYM    ---      INT       rfkBand
      ---         BLOCKEND  CODE     ---       LVL=1
L251 LINKER/LOCATER V4.66.93.0                                                        07/01/2025  14:01:01  PAGE 221


      00FFBE8BH   LINE      ---      ---       #607
      00FFBE8BH   LINE      CODE     ---       #607

      00FFBDE0H   BLOCK     CODE     ---       LVL=0
      00FFBDE0H   LINE      ---      ---       #610
      00FFBDE0H   LINE      ---      ---       #611
      00FFBDE0H   BLOCK     CODE     NEAR LAB  LVL=1
      00FFBDE0H   LINE      ---      ---       #612
      00FFBDF8H   LINE      ---      ---       #615
      00FFBDFEH   LINE      ---      ---       #617
      00FFBE09H   LINE      ---      ---       #619
      00FFBE0DH   LINE      ---      ---       #621
      00FFBE0FH   LINE      ---      ---       #624
      00FFBE1AH   LINE      ---      ---       #626
      REG=3       REGSYM    ---      ---       pTxPwrCtrl
      ---         BLOCKEND  CODE     ---       LVL=1
      ---         BLOCKEND  CODE     ---       LVL=0

      00FF6105H   BLOCK     CODE     ---       LVL=0
      00FF6105H   LINE      ---      ---       #635
      00FF6107H   LINE      ---      ---       #636
      00FF6107H   BLOCK     CODE     NEAR LAB  LVL=1
      00FF6107H   LINE      ---      ---       #638
      00FF6114H   LINE      ---      ---       #642
      00FF6118H   LINE      ---      ---       #643
      00FF6118H   LINE      ---      ---       #646
      00FF611EH   LINE      ---      ---       #648
      00FF612CH   LINE      ---      ---       #649
      00FF613EH   LINE      ---      ---       #650
      00FF6151H   LINE      ---      ---       #651
      REG=7       REGSYM    ---      ---       pTxPwrCtrl
      ---         BLOCKEND  CODE     ---       LVL=1
      ---         BLOCKEND  CODE     ---       LVL=0

      00FF4763H   BLOCK     CODE     ---       LVL=0
      00FF4763H   LINE      ---      ---       #655
      00FF4763H   LINE      ---      ---       #656
      00FF4763H   BLOCK     CODE     NEAR LAB  LVL=1
      00FF4763H   LINE      ---      ---       #673
      00FF4769H   LINE      ---      ---       #675
      00FF478AH   LINE      ---      ---       #679
      00FF479CH   LINE      ---      ---       #680
      00FF47B4H   LINE      ---      ---       #681
      00FF47B7H   LINE      ---      ---       #682
      00FF47C6H   LINE      ---      ---       #683
      00FF47CDH   LINE      ---      ---       #685
      00FF47DAH   LINE      ---      ---       #688
      00FF47DDH   LINE      ---      ---       #690
      00FF47E3H   LINE      ---      ---       #691
      00FF47EEH   LINE      ---      ---       #702
      WR6         REGSYM    ---      INT       type
      ---         BLOCKEND  CODE     ---       LVL=1
      00FF47EEH   LINE      ---      ---       #703
      00FF47EEH   LINE      CODE     ---       #703

      00FFD9E6H   BLOCK     CODE     ---       LVL=0
      00FFD9E6H   LINE      ---      ---       #705
      00FFD9E6H   LINE      ---      ---       #707
      00FFD9F4H   LINE      ---      ---       #708
      00FFDA02H   LINE      ---      ---       #709
      00FFDA10H   LINE      ---      ---       #710
      ---         BLOCKEND  ---      ---       LVL=0

      ---         MODULE    ---      ---       hal_rt569mp_tcon
      00FFDA11H   PUBLIC    CODE     ---       HALTCON_Init
L251 LINKER/LOCATER V4.66.93.0                                                        07/01/2025  14:01:01  PAGE 222


      00FFDB3BH   PUBLIC    CODE     ---       HALTCON_PreTxTimeSet
      00FFC437H   PUBLIC    CODE     ---       HALTCON_TxTailDelayGet
      00FFC4FCH   PUBLIC    CODE     ---       HALTCON_RxTailDelayGet

      00FFDA11H   BLOCK     CODE     ---       LVL=0
      00FFDA11H   LINE      ---      ---       #25
      00FFDA11H   LINE      ---      ---       #28
      00FFDA11H   BLOCK     CODE     NEAR LAB  LVL=1
      00FFDA11H   LINE      ---      ---       #32
      00FFDA11H   LINE      ---      ---       #45
      00FFDA15H   LINE      ---      ---       #48
      00FFDA1FH   LINE      ---      ---       #50
      00FFDA1FH   LINE      ---      ---       #52
      00FFDA1FH   LINE      ---      ---       #53
      00FFDA27H   LINE      ---      ---       #54
      00FFDA2BH   LINE      ---      ---       #55
      00FFDA2FH   LINE      ---      ---       #56
      00FFDA33H   LINE      ---      ---       #57
      00FFDA37H   LINE      ---      ---       #58
      00FFDA39H   LINE      ---      ---       #62
      00FFDA39H   LINE      ---      ---       #63
      00FFDA41H   LINE      ---      ---       #64
      00FFDA45H   LINE      ---      ---       #65
      00FFDA49H   LINE      ---      ---       #66
      00FFDA4DH   LINE      ---      ---       #67
      00FFDA51H   LINE      ---      ---       #68
      00FFDA51H   LINE      ---      ---       #70
      00FFDA51H   LINE      ---      ---       #73
      00FFDA59H   LINE      ---      ---       #74
      00FFDA6DH   LINE      ---      ---       #75
      00FFDA79H   LINE      ---      ---       #76
      00FFDA82H   LINE      ---      ---       #77
      00FFDAA0H   LINE      ---      ---       #78
      00FFDABCH   LINE      ---      ---       #81
      00FFDAC7H   LINE      ---      ---       #82
      00FFDAD0H   LINE      ---      ---       #83
      00FFDADCH   LINE      ---      ---       #84
      00FFDAE5H   LINE      ---      ---       #85
      00FFDAF0H   LINE      ---      ---       #86
      00FFDAF7H   LINE      ---      ---       #87
      00FFDAFEH   LINE      ---      ---       #90
      00FFDB05H   LINE      ---      ---       #91
      00FFDB0CH   LINE      ---      ---       #92
      00FFDB20H   LINE      ---      ---       #95
      00FFDB27H   LINE      ---      ---       #96
      00FFDB2EH   LINE      ---      ---       #113
      00FFDB3AH   LINE      ---      ---       #116
      R10         REGSYM    ---      BYTE      unitShift
      WR4         REGSYM    ---      WORD      txDelayTime
      WR2         REGSYM    ---      WORD      pllLockTime
      WR26        REGSYM    ---      WORD      paOnTime
      WR0         REGSYM    ---      WORD      txOnTime
      WR28        REGSYM    ---      WORD      paOffTime
      WR30        REGSYM    ---      WORD      rxOnTime
      ---         BLOCKEND  CODE     ---       LVL=1
      00FFDB3AH   LINE      ---      ---       #117
      00FFDB3AH   LINE      CODE     ---       #117

      00FFDB3BH   BLOCK     CODE     ---       LVL=0
      00FFDB3BH   LINE      ---      ---       #119
      00FFDB3DH   LINE      ---      ---       #122
      WR2         REGSYM    ---      INT       dataBwIdx
      00FFDB3DH   BLOCK     CODE     NEAR LAB  LVL=1
      00FFDB3DH   LINE      ---      ---       #137
      00FFDB47H   LINE      ---      ---       #139
L251 LINKER/LOCATER V4.66.93.0                                                        07/01/2025  14:01:01  PAGE 223


      00FFDB47H   LINE      ---      ---       #141
      00FFDB47H   LINE      ---      ---       #142
      00FFDB4FH   LINE      ---      ---       #143
      00FFDB51H   LINE      ---      ---       #147
      00FFDB51H   LINE      ---      ---       #148
      00FFDB59H   LINE      ---      ---       #149
      00FFDB59H   LINE      ---      ---       #151
      00FFDB59H   LINE      ---      ---       #154
      00FFDB5DH   LINE      ---      ---       #162
      00FFDB74H   LINE      ---      ---       #165
      00FFDB78H   LINE      ---      ---       #166
      00FFDB86H   LINE      ---      ---       #168
      00FFDB8FH   LINE      ---      ---       #171
      R11         REGSYM    ---      BYTE      unitShift
      WR4         REGSYM    ---      WORD      mdmTxDelayTime
      WR8         REGSYM    ---      WORD      pllLockTime
      ---         BLOCKEND  CODE     ---       LVL=1
      00FFDB8FH   LINE      ---      ---       #172
      00FFDB8FH   LINE      CODE     ---       #172

      00FFC437H   BLOCK     CODE     ---       LVL=0
      00FFC437H   LINE      ---      ---       #174
      00FFC437H   LINE      ---      ---       #177
      WR6         REGSYM    ---      INT       dataBw
      00FFC437H   BLOCK     CODE     NEAR LAB  LVL=1
      00FFC437H   LINE      ---      ---       #181
      00FFC44FH   LINE      ---      ---       #198
      00FFC460H   LINE      ---      ---       #201
      R11         REGSYM    ---      BYTE      delayTime
      ---         BLOCKEND  CODE     ---       LVL=1
      00FFC460H   LINE      ---      ---       #202
      00FFC460H   LINE      CODE     ---       #202

      00FFC4F8H   BLOCK     CODE     ---       LVL=0
      00FFC4FCH   LINE      ---      ---       #204
      00FFC4FCH   LINE      ---      ---       #207
      00FFC4F8H   SYMBOL    CODE     NEAR LAB  ?L?COM004F
      WR6         REGSYM    ---      INT       dataBw
      00FFC4FCH   BLOCK     CODE     NEAR LAB  LVL=1
      00FFC4FCH   LINE      ---      ---       #210
      00FFC505H   LINE      ---      ---       #212
      00FFC505H   LINE      ---      ---       #214
      00FFC505H   LINE      ---      ---       #215
      00FFC51DH   LINE      ---      ---       #219
      00FFC51FH   LINE      ---      ---       #222
      00FFC51FH   LINE      ---      ---       #223
      00FFC537H   LINE      ---      ---       #224
      00FFC537H   LINE      ---      ---       #232
      00FFC537H   LINE      ---      ---       #235
      00FFC542H   LINE      ---      ---       #238
      R9          REGSYM    ---      BYTE      delayTime
      ---         BLOCKEND  CODE     ---       LVL=1
      00FFC544H   LINE      ---      ---       #239
      00FFC544H   LINE      CODE     ---       #239

      ---         MODULE    ---      ---       hal_rt569mp_para
      00FF01E2H   PUBLIC    HCONST   ---       rfConfig
      00FF02B2H   PUBLIC    HCONST   ---       pmuConfig
      00FF039AH   PUBLIC    HCONST   ---       rfTabSideBnadK
      00FF074BH   PUBLIC    HCONST   ---       phyConfig

      ---         MODULE    ---      ---       hal_rt569mp_pmu
      00FFDB90H   PUBLIC    CODE     ---       HALPMU_PwrModeSet
      00FFDBBDH   PUBLIC    CODE     ---       HALPMU_PwrModeGet

L251 LINKER/LOCATER V4.66.93.0                                                        07/01/2025  14:01:01  PAGE 224


      00FFDB90H   BLOCK     CODE     ---       LVL=0
      00FFDB90H   LINE      ---      ---       #23
      00FFDB92H   LINE      ---      ---       #27
      00FFDB9EH   LINE      ---      ---       #28
      00FFDBA3H   LINE      ---      ---       #29
      00FFDBA9H   LINE      ---      ---       #30
      00FFDBB0H   LINE      ---      ---       #31
      00FFDBB4H   LINE      ---      ---       #32
      00FFDBBCH   LINE      ---      ---       #35
      WR4         REGSYM    ---      INT       pwrMode
      ---         BLOCKEND  ---      ---       LVL=0

      00FFDBBDH   BLOCK     CODE     ---       LVL=0
      00FFDBBDH   LINE      ---      ---       #37
      00FFDBBDH   LINE      ---      ---       #39
      00FFDBCAH   LINE      ---      ---       #40
      00FFDBCFH   LINE      ---      ---       #41
      00FFDBD2H   LINE      ---      ---       #42
      00FFDBD5H   LINE      ---      ---       #44
      00FFDBD9H   LINE      ---      ---       #45
      ---         BLOCKEND  ---      ---       LVL=0

      ---         MODULE    ---      ---       Ruci
      00FF3E71H   PUBLIC    CODE     ---       RUCI_endianConvert
      0000B4A2H   PUBLIC    EDATA    BYTE      ?RUCI_endianConvert?BYTE

      00FF3E67H   BLOCK     CODE     ---       LVL=0
      00FF3E71H   LINE      ---      ---       #23
      00FF3E75H   LINE      ---      ---       #29
      00FF3E67H   SYMBOL    CODE     NEAR LAB  ?L?COM003A
      REG=3       REGSYM    ---      ---       pDataIn
      R15         REGSYM    ---      BYTE      paraNum
      REG=0       REGSYM    ---      ---       pTypeMapIn
      0000B4A9H   SYMBOL    EDATA    ---       pElemNumMapIn
      00FF3E75H   BLOCK     CODE     NEAR LAB  LVL=1
      00FF3E75H   LINE      ---      ---       #37
      00FF3E77H   LINE      ---      ---       #38
      00FF3E7BH   LINE      ---      ---       #39
      00FF3E83H   LINE      ---      ---       #41
      00FF3E87H   LINE      ---      ---       #43
      00FF3E9CH   LINE      ---      ---       #45
      00FF3E9CH   LINE      ---      ---       #48
      00FF3E9FH   LINE      ---      ---       #57
      00FF3EA6H   LINE      ---      ---       #58
      00FF3EAEH   LINE      ---      ---       #59
      00FF3EB6H   LINE      ---      ---       #60
      00FF3EBEH   LINE      ---      ---       #61
      00FF3EC1H   LINE      ---      ---       #62
      00FF3EC9H   LINE      ---      ---       #63
      00FF3ED1H   LINE      ---      ---       #64
      00FF3ED9H   LINE      ---      ---       #66
      00FF3EDBH   LINE      ---      ---       #67
      00FF3EF1H   LINE      ---      ---       #68
      00FF3EF3H   LINE      ---      ---       #70
      00FF3EF3H   LINE      ---      ---       #72
      00FF3EFAH   LINE      ---      ---       #74
      00FF3EFCH   LINE      ---      ---       #75
      00FF3F0AH   LINE      ---      ---       #76
      00FF3F0CH   LINE      ---      ---       #77
      00FF3F22H   LINE      ---      ---       #78
      00FF3F24H   LINE      ---      ---       #80
      00FF3F24H   LINE      ---      ---       #82
      00FF3F2FH   LINE      ---      ---       #83
      00FF3F31H   LINE      ---      ---       #85
      00FF3F31H   LINE      ---      ---       #86
L251 LINKER/LOCATER V4.66.93.0                                                        07/01/2025  14:01:01  PAGE 225


      00FF3F34H   LINE      ---      ---       #87
      00FF3F34H   LINE      ---      ---       #88
      00FF3F34H   LINE      ---      ---       #90
      00FF3F3EH   LINE      ---      ---       #91
      00FF3F48H   LINE      ---      ---       #92
      R14         REGSYM    ---      BYTE      paraIdx
      0000B4ADH   SYMBOL    EDATA    BYTE      elemIdx
      0000B4AEH   SYMBOL    EDATA    ---       pDwTemp
      REG=3       REGSYM    ---      ---       pWTemp
      REG=6       REGSYM    ---      ---       pData
      0000B4B2H   SYMBOL    EDATA    ---       pTypeMap
      0000B4B6H   SYMBOL    EDATA    ---       pElemNumMap
      ---         BLOCKEND  CODE     ---       LVL=1
      00FF3F50H   LINE      ---      ---       #93
      00FF3F50H   LINE      CODE     ---       #93

      ---         MODULE    ---      ---       Ruci_Pci15p4MacCmd
      00FF12D0H   PUBLIC    HCONST   ---       Ruci_ElmtType_Set15p4AddressFilter
      00FF12D8H   PUBLIC    HCONST   ---       Ruci_ElmtNum_Set15p4AddressFilter
      00FF12E0H   PUBLIC    HCONST   ---       Ruci_ElmtType_Set15p4MacPib
      00FF12EAH   PUBLIC    HCONST   ---       Ruci_ElmtNum_Set15p4MacPib
      00FF12F4H   PUBLIC    HCONST   ---       Ruci_ElmtType_Set15p4PhyPib
      00FF12FBH   PUBLIC    HCONST   ---       Ruci_ElmtNum_Set15p4PhyPib
      00FF1302H   PUBLIC    HCONST   ---       Ruci_ElmtType_SetCslReceiverCtrl
      00FF1307H   PUBLIC    HCONST   ---       Ruci_ElmtNum_SetCslReceiverCtrl
      00FF130CH   PUBLIC    HCONST   ---       Ruci_ElmtType_UpdateCslSampleTime
      00FF1310H   PUBLIC    HCONST   ---       Ruci_ElmtNum_UpdateCslSampleTime

      ---         MODULE    ---      ---       Ruci_PciBleCmd
      00FF1314H   PUBLIC    HCONST   ---       Ruci_ElmtType_SetBleMac
      00FF131BH   PUBLIC    HCONST   ---       Ruci_ElmtNum_SetBleMac
      00FF1322H   PUBLIC    HCONST   ---       Ruci_ElmtType_SetHtrpPara
      00FF1330H   PUBLIC    HCONST   ---       Ruci_ElmtNum_SetHtrpPara

      ---         MODULE    ---      ---       Ruci_PciCommonCmd
      00FF11C9H   PUBLIC    HCONST   ---       Ruci_ElmtType_SetRfFrequency
      00FF11CDH   PUBLIC    HCONST   ---       Ruci_ElmtNum_SetRfFrequency
      00FF11D1H   PUBLIC    HCONST   ---       Ruci_ElmtType_SetWakeOnRadio
      00FF11D7H   PUBLIC    HCONST   ---       Ruci_ElmtNum_SetWakeOnRadio
      00FF11DDH   PUBLIC    HCONST   ---       Ruci_ElmtType_SetRxEnable
      00FF11E1H   PUBLIC    HCONST   ---       Ruci_ElmtNum_SetRxEnable
      00FF11E5H   PUBLIC    HCONST   ---       Ruci_ElmtType_Set2ChScanFrequency
      00FF11EBH   PUBLIC    HCONST   ---       Ruci_ElmtNum_Set2ChScanFrequency
      00FF11F1H   PUBLIC    HCONST   ---       Ruci_ElmtType_SetRxReserveEnable
      00FF11F6H   PUBLIC    HCONST   ---       Ruci_ElmtNum_SetRxReserveEnable
      00FF11FBH   PUBLIC    HCONST   ---       Ruci_ElmtType_SetDutyCycle
      00FF1200H   PUBLIC    HCONST   ---       Ruci_ElmtNum_SetDutyCycle
      00FF1205H   PUBLIC    HCONST   ---       Ruci_ElmtType_SetRfeTxEnable
      00FF1213H   PUBLIC    HCONST   ---       Ruci_ElmtNum_SetRfeTxEnable
      00FF1221H   PUBLIC    HCONST   ---       Ruci_ElmtType_SetRfeRxEnable
      00FF122EH   PUBLIC    HCONST   ---       Ruci_ElmtNum_SetRfeRxEnable

      ---         MODULE    ---      ---       Ruci_PciData
      00FF13BBH   PUBLIC    HCONST   ---       Ruci_ElmtType_SetTxControlField
      00FF13C0H   PUBLIC    HCONST   ---       Ruci_ElmtNum_SetTxControlField
      00FF13C5H   PUBLIC    HCONST   ---       Ruci_ElmtType_RxControlField
      00FF13CBH   PUBLIC    HCONST   ---       Ruci_ElmtNum_RxControlField

      ---         MODULE    ---      ---       Ruci_PciEvent
      00FF13D1H   PUBLIC    HCONST   ---       Ruci_ElmtType_GetRegEvent
      00FF13D5H   PUBLIC    HCONST   ---       Ruci_ElmtNum_GetRegEvent
      00FF13D9H   PUBLIC    HCONST   ---       Ruci_ElmtType_GetCrcReportEvent
      00FF13DEH   PUBLIC    HCONST   ---       Ruci_ElmtNum_GetCrcReportEvent

      ---         MODULE    ---      ---       Ruci_PciFskCmd
L251 LINKER/LOCATER V4.66.93.0                                                        07/01/2025  14:01:01  PAGE 226


      00FF13F3H   PUBLIC    HCONST   ---       Ruci_ElmtType_SetFskSfd
      00FF13F7H   PUBLIC    HCONST   ---       Ruci_ElmtNum_SetFskSfd

      ---         MODULE    ---      ---       Ruci_PciOqpskCmd

      ---         MODULE    ---      ---       Ruci_PciSlinkCmd

      ---         MODULE    ---      ---       Ruci_CmnEvent
      00FF1365H   PUBLIC    HCONST   ---       Ruci_ElmtType_GetFwVerEvent
      00FF136DH   PUBLIC    HCONST   ---       Ruci_ElmtNum_GetFwVerEvent
      00FF1375H   PUBLIC    HCONST   ---       Ruci_ElmtType_GetTemperatureRptEvent
      00FF137AH   PUBLIC    HCONST   ---       Ruci_ElmtNum_GetTemperatureRptEvent
      00FF137FH   PUBLIC    HCONST   ---       Ruci_ElmtType_GetVoltageRptEvent
      00FF1384H   PUBLIC    HCONST   ---       Ruci_ElmtNum_GetVoltageRptEvent

      ---         MODULE    ---      ---       Ruci_CmnHalCmd
      00FF1389H   PUBLIC    HCONST   ---       Ruci_ElmtType_SetPmuMpkSetting
      00FF1396H   PUBLIC    HCONST   ---       Ruci_ElmtNum_SetPmuMpkSetting

      ---         MODULE    ---      ---       Ruci_CmnSysCmd

      ---         MODULE    ---      ---       ?C?INITEDATA
      00FF0123H   PUBLIC    CODE     ---       ?C?INITEDATA

      ---         MODULE    ---      ---       ?C?SIDIV
      00FF000EH   PUBLIC    CODE     ---       ?C?SIDIV

      ---         MODULE    ---      ---       ?C?LMUL
      00FF0040H   PUBLIC    CODE     ---       ?C?LMUL

      ---         MODULE    ---      ---       ?C?LIMUL
      00FF0051H   PUBLIC    CODE     ---       ?C?LIMUL

      ---         MODULE    ---      ---       ?C?ULDIV
      00FF005CH   PUBLIC    CODE     NEAR LAB  ?C?ULDIV
      00FF005AH   PUBLIC    CODE     NEAR LAB  ?C?ULIDIV

      ---         MODULE    ---      ---       memcpy
      00FF0190H   PUBLIC    CODE     ---       memcpy?_

      ---         MODULE    ---      ---       memset
      00FF01CEH   PUBLIC    CODE     ---       memset?_

      ---         MODULE    ---      ---       hmemcpy
      00FF01AFH   PUBLIC    CODE     ---       hmemcpy?_

      ---         MODULE    ---      ---       ?C?INITEDATA_END
      00FF1011H   PUBLIC    HCONST   WORD      ?C?INITEDATA_END

      ---         MODULE    ---      ---       ?L?COMMON
      00FFA521H   LINE      ---      ---       #41
      00FFA525H   LINE      ---      ---       #42
      00FFA525H   LINE      ---      ---       #45
      00FFA52CH   LINE      ---      ---       #46
      00FFA532H   LINE      ---      ---       #47
      00FFA536H   LINE      ---      ---       #48
      00FFA536H   LINE      ---      ---       #49
      00FFA540H   LINE      ---      ---       #50
      00FFA542H   LINE      ---      ---       #52
      00FFA545H   LINE      ---      ---       #53
      00FFA547H   LINE      ---      ---       #56
      00FFA552H   LINE      ---      ---       #59
      00FFA55EH   LINE      ---      ---       #60
      00FFA569H   LINE      ---      ---       #61
      00FFA571H   LINE      ---      ---       #62
L251 LINKER/LOCATER V4.66.93.0                                                        07/01/2025  14:01:01  PAGE 227


      00FFA578H   LINE      ---      ---       #64
      00FFA57EH   LINE      ---      ---       #66
      00FFA587H   LINE      ---      ---       #67
      00FFA58FH   LINE      ---      ---       #69
      00FFA598H   LINE      ---      ---       #72
      00FFA5A0H   LINE      ---      ---       #74
      00FFA5A8H   LINE      ---      ---       #75
      00FFA5AAH   LINE      ---      ---       #78
      00FFA5B0H   LINE      ---      ---       #79
      00FFA5B0H   LINE      ---      ---       #80
      00FFA5B0H   LINE      ---      ---       #85
      00FFA5BCH   LINE      ---      ---       #86
      00FFA5BEH   LINE      ---      ---       #87
      00FFA5BEH   LINE      ---      ---       #88
      00FFA5C7H   LINE      ---      ---       #91
      00FFA5C9H   LINE      ---      ---       #92
      00FFA5D3H   LINE      ---      ---       #93
      00FFA5DAH   LINE      ---      ---       #94
      00FFA5E5H   LINE      ---      ---       #95
      00FFA605H   LINE      ---      ---       #96
      00FFA610H   LINE      ---      ---       #97
      00FFA610H   LINE      ---      ---       #99
      00FFA611H   LINE      ---      ---       #101
      00FF6597H   SYMBOL    CODE     NEAR LAB  ?L?COM0007
      00FF4691H   SYMBOL    CODE     NEAR LAB  ?L?COM000B
      00FF60EDH   SYMBOL    CODE     NEAR LAB  ?L?COM000F
      00FF296BH   SYMBOL    CODE     NEAR LAB  ?L?COM0011
      00FF2FEAH   SYMBOL    CODE     NEAR LAB  ?L?COM0013
      00FF77CAH   SYMBOL    CODE     NEAR LAB  ?L?COM0019
      00FF64C8H   SYMBOL    CODE     NEAR LAB  ?L?COM001C
      00FFDBDAH   SYMBOL    CODE     NEAR LAB  ?L?COM0022
      00FF45FBH   SYMBOL    CODE     NEAR LAB  ?L?COM0023
      00FF3FB9H   SYMBOL    CODE     NEAR LAB  ?L?COM0025
      00FF6357H   SYMBOL    CODE     NEAR LAB  ?L?COM002C
      00FF605BH   SYMBOL    CODE     NEAR LAB  ?L?COM002D
      00FFCE87H   SYMBOL    CODE     NEAR LAB  ?L?COM0034
      00FF6363H   SYMBOL    CODE     NEAR LAB  ?L?COM003F
      00FF9B4CH   SYMBOL    CODE     NEAR LAB  ?L?COM0040
      00FF636FH   SYMBOL    CODE     NEAR LAB  ?L?COM0041
      00FFBE8CH   SYMBOL    CODE     NEAR LAB  ?L?COM0042
      00FFB38CH   SYMBOL    CODE     NEAR LAB  ?L?COM0043
      00FFA456H   SYMBOL    CODE     NEAR LAB  ?L?COM0047
      00FF4A95H   SYMBOL    CODE     NEAR LAB  ?L?COM0048
      00FFBED9H   SYMBOL    CODE     NEAR LAB  ?L?COM004A
      00FFC211H   SYMBOL    CODE     NEAR LAB  ?L?COM0050
      00FF7FE2H   SYMBOL    CODE     NEAR LAB  ?L?COM0052

Program Size: data=16.0 edata+hdata=6576 xdata=0 const=4641 code=51687
L251 RUN COMPLETE.  0 WARNING(S),  0 ERROR(S)
